(lp1
(dp2
S'behavRight'
p3
F0.5
sS'mdpseed'
p4
I1000
sS'inita'
p5
cnumpy.core.multiarray
scalar
p6
(cnumpy
dtype
p7
(S'f8'
I0
I1
tRp8
(I3
S'<'
NNNI-1
I-1
I0
tbS'\xfc\xa9\xf1\xd2MbP?'
tRp9
sS'Rstd'
p10
F0
sS'na'
p11
I2
sS'nf'
p12
I4
sS'N'
I100
sS'targtRight'
p13
F0.98999999999999999
sS'initsdist'
p14
cnumpy.core.multiarray
_reconstruct
p15
(cnumpy
ndarray
p16
(I0
tS'b'
tRp17
(I1
(I13
tg8
I00
S'\x00\x00\x00\x00\x00\x00\x00\x00\x00\x00\x00\x00\x00\x00\x00\x00\x00\x00\x00\x00\x00\x00\x00\x00\x00\x00\x00\x00\x00\x00\x00\x00\x00\x00\x00\x00\x00\x00\x00\x00\x00\x00\x00\x00\x00\x00\x00\x00\x00\x00\x00\x00\x00\x00\xf0?\x00\x00\x00\x00\x00\x00\x00\x00\x00\x00\x00\x00\x00\x00\x00\x00\x00\x00\x00\x00\x00\x00\x00\x00\x00\x00\x00\x00\x00\x00\x00\x00\x00\x00\x00\x00\x00\x00\x00\x00\x00\x00\x00\x00\x00\x00\x00\x00'
tbsS'ftype'
p18
S'binary'
p19
sS'T'
I100
sS'lmbda'
p20
g6
(g8
S'\x00\x00\x00\x00\x00\x00\x00\x00'
tRp21
sS'algname'
p22
S'oislstd'
p23
sS'ns'
p24
I13
sS'offpolicy'
p25
I01
sS'Gamma'
p26
g15
(g16
(I0
tS'b'
tRp27
(I1
(I13
I13
tg8
I00
S'\x00\x00\x00\x00\x00\x00\x00\x00\x00\x00\x00\x00\x00\x00\x00\x00\x00\x00\x00\x00\x00\x00\x00\x00\x00\x00\x00\x00\x00\x00\x00\x00\x00\x00\x00\x00\x00\x00\x00\x00\x00\x00\x00\x00\x00\x00\x00\x00\x00\x00\x00\x00\x00\x00\x00\x00\x00\x00\x00\x00\x00\x00\x00\x00\x00\x00\x00\x00\x00\x00\x00\x00\x00\x00\x00\x00\x00\x00\x00\x00\x00\x00\x00\x00\x00\x00\x00\x00\x00\x00\x00\x00\x00\x00\x00\x00\x00\x00\x00\x00\x00\x00\x00\x00\x00\x00\x00\x00\x00\x00\x00\x00\x00\x00\x00\x00\x00\x00\xf0?\x00\x00\x00\x00\x00\x00\x00\x00\x00\x00\x00\x00\x00\x00\x00\x00\x00\x00\x00\x00\x00\x00\x00\x00\x00\x00\x00\x00\x00\x00\x00\x00\x00\x00\x00\x00\x00\x00\x00\x00\x00\x00\x00\x00\x00\x00\x00\x00\x00\x00\x00\x00\x00\x00\x00\x00\x00\x00\x00\x00\x00\x00\x00\x00\x00\x00\x00\x00\x00\x00\x00\x00\x00\x00\x00\x00\x00\x00\x00\x00\x00\x00\x00\x00\x00\x00\x00\x00\x00\x00\x00\x00\x00\x00\x00\x00\x00\x00\x00\x00\x00\x00\x00\x00\x00\x00\x00\x00\x00\x00\xf0?\x00\x00\x00\x00\x00\x00\x00\x00\x00\x00\x00\x00\x00\x00\x00\x00\x00\x00\x00\x00\x00\x00\x00\x00\x00\x00\x00\x00\x00\x00\x00\x00\x00\x00\x00\x00\x00\x00\x00\x00\x00\x00\x00\x00\x00\x00\x00\x00\x00\x00\x00\x00\x00\x00\x00\x00\x00\x00\x00\x00\x00\x00\x00\x00\x00\x00\x00\x00\x00\x00\x00\x00\x00\x00\x00\x00\x00\x00\x00\x00\x00\x00\x00\x00\x00\x00\x00\x00\x00\x00\x00\x00\x00\x00\x00\x00\x00\x00\x00\x00\x00\x00\x00\x00\x00\x00\x00\x00\x00\x00\xf0?\x00\x00\x00\x00\x00\x00\x00\x00\x00\x00\x00\x00\x00\x00\x00\x00\x00\x00\x00\x00\x00\x00\x00\x00\x00\x00\x00\x00\x00\x00\x00\x00\x00\x00\x00\x00\x00\x00\x00\x00\x00\x00\x00\x00\x00\x00\x00\x00\x00\x00\x00\x00\x00\x00\x00\x00\x00\x00\x00\x00\x00\x00\x00\x00\x00\x00\x00\x00\x00\x00\x00\x00\x00\x00\x00\x00\x00\x00\x00\x00\x00\x00\x00\x00\x00\x00\x00\x00\x00\x00\x00\x00\x00\x00\x00\x00\x00\x00\x00\x00\x00\x00\x00\x00\x00\x00\x00\x00\x00\x00\xf0?\x00\x00\x00\x00\x00\x00\x00\x00\x00\x00\x00\x00\x00\x00\x00\x00\x00\x00\x00\x00\x00\x00\x00\x00\x00\x00\x00\x00\x00\x00\x00\x00\x00\x00\x00\x00\x00\x00\x00\x00\x00\x00\x00\x00\x00\x00\x00\x00\x00\x00\x00\x00\x00\x00\x00\x00\x00\x00\x00\x00\x00\x00\x00\x00\x00\x00\x00\x00\x00\x00\x00\x00\x00\x00\x00\x00\x00\x00\x00\x00\x00\x00\x00\x00\x00\x00\x00\x00\x00\x00\x00\x00\x00\x00\x00\x00\x00\x00\x00\x00\x00\x00\x00\x00\x00\x00\x00\x00\x00\x00\xf0?\x00\x00\x00\x00\x00\x00\x00\x00\x00\x00\x00\x00\x00\x00\x00\x00\x00\x00\x00\x00\x00\x00\x00\x00\x00\x00\x00\x00\x00\x00\x00\x00\x00\x00\x00\x00\x00\x00\x00\x00\x00\x00\x00\x00\x00\x00\x00\x00\x00\x00\x00\x00\x00\x00\x00\x00\x00\x00\x00\x00\x00\x00\x00\x00\x00\x00\x00\x00\x00\x00\x00\x00\x00\x00\x00\x00\x00\x00\x00\x00\x00\x00\x00\x00\x00\x00\x00\x00\x00\x00\x00\x00\x00\x00\x00\x00\x00\x00\x00\x00\x00\x00\x00\x00\x00\x00\x00\x00\x00\x00\xf0?\x00\x00\x00\x00\x00\x00\x00\x00\x00\x00\x00\x00\x00\x00\x00\x00\x00\x00\x00\x00\x00\x00\x00\x00\x00\x00\x00\x00\x00\x00\x00\x00\x00\x00\x00\x00\x00\x00\x00\x00\x00\x00\x00\x00\x00\x00\x00\x00\x00\x00\x00\x00\x00\x00\x00\x00\x00\x00\x00\x00\x00\x00\x00\x00\x00\x00\x00\x00\x00\x00\x00\x00\x00\x00\x00\x00\x00\x00\x00\x00\x00\x00\x00\x00\x00\x00\x00\x00\x00\x00\x00\x00\x00\x00\x00\x00\x00\x00\x00\x00\x00\x00\x00\x00\x00\x00\x00\x00\x00\x00\xf0?\x00\x00\x00\x00\x00\x00\x00\x00\x00\x00\x00\x00\x00\x00\x00\x00\x00\x00\x00\x00\x00\x00\x00\x00\x00\x00\x00\x00\x00\x00\x00\x00\x00\x00\x00\x00\x00\x00\x00\x00\x00\x00\x00\x00\x00\x00\x00\x00\x00\x00\x00\x00\x00\x00\x00\x00\x00\x00\x00\x00\x00\x00\x00\x00\x00\x00\x00\x00\x00\x00\x00\x00\x00\x00\x00\x00\x00\x00\x00\x00\x00\x00\x00\x00\x00\x00\x00\x00\x00\x00\x00\x00\x00\x00\x00\x00\x00\x00\x00\x00\x00\x00\x00\x00\x00\x00\x00\x00\x00\x00\xf0?\x00\x00\x00\x00\x00\x00\x00\x00\x00\x00\x00\x00\x00\x00\x00\x00\x00\x00\x00\x00\x00\x00\x00\x00\x00\x00\x00\x00\x00\x00\x00\x00\x00\x00\x00\x00\x00\x00\x00\x00\x00\x00\x00\x00\x00\x00\x00\x00\x00\x00\x00\x00\x00\x00\x00\x00\x00\x00\x00\x00\x00\x00\x00\x00\x00\x00\x00\x00\x00\x00\x00\x00\x00\x00\x00\x00\x00\x00\x00\x00\x00\x00\x00\x00\x00\x00\x00\x00\x00\x00\x00\x00\x00\x00\x00\x00\x00\x00\x00\x00\x00\x00\x00\x00\x00\x00\x00\x00\x00\x00\xf0?\x00\x00\x00\x00\x00\x00\x00\x00\x00\x00\x00\x00\x00\x00\x00\x00\x00\x00\x00\x00\x00\x00\x00\x00\x00\x00\x00\x00\x00\x00\x00\x00\x00\x00\x00\x00\x00\x00\x00\x00\x00\x00\x00\x00\x00\x00\x00\x00\x00\x00\x00\x00\x00\x00\x00\x00\x00\x00\x00\x00\x00\x00\x00\x00\x00\x00\x00\x00\x00\x00\x00\x00\x00\x00\x00\x00\x00\x00\x00\x00\x00\x00\x00\x00\x00\x00\x00\x00\x00\x00\x00\x00\x00\x00\x00\x00\x00\x00\x00\x00\x00\x00\x00\x00\x00\x00\x00\x00\x00\x00\xf0?\x00\x00\x00\x00\x00\x00\x00\x00\x00\x00\x00\x00\x00\x00\x00\x00\x00\x00\x00\x00\x00\x00\x00\x00\x00\x00\x00\x00\x00\x00\x00\x00\x00\x00\x00\x00\x00\x00\x00\x00\x00\x00\x00\x00\x00\x00\x00\x00\x00\x00\x00\x00\x00\x00\x00\x00\x00\x00\x00\x00\x00\x00\x00\x00\x00\x00\x00\x00\x00\x00\x00\x00\x00\x00\x00\x00\x00\x00\x00\x00\x00\x00\x00\x00\x00\x00\x00\x00\x00\x00\x00\x00\x00\x00\x00\x00\x00\x00\x00\x00\x00\x00\x00\x00\x00\x00\x00\x00\x00\x00\xf0?\x00\x00\x00\x00\x00\x00\x00\x00\x00\x00\x00\x00\x00\x00\x00\x00\x00\x00\x00\x00\x00\x00\x00\x00\x00\x00\x00\x00\x00\x00\x00\x00\x00\x00\x00\x00\x00\x00\x00\x00\x00\x00\x00\x00\x00\x00\x00\x00\x00\x00\x00\x00\x00\x00\x00\x00\x00\x00\x00\x00\x00\x00\x00\x00\x00\x00\x00\x00\x00\x00\x00\x00\x00\x00\x00\x00\x00\x00\x00\x00\x00\x00\x00\x00\x00\x00\x00\x00\x00\x00\x00\x00\x00\x00\x00\x00\x00\x00\x00\x00\x00\x00\x00\x00\x00\x00\x00\x00\x00\x00\x00\x00'
tbsa(dp28
g3
F0.5
sg4
I1000
sg5
g9
sg10
F0
sg11
I2
sg12
I4
sS'N'
I100
sg13
F0.98999999999999999
sg14
g17
sg18
g19
sS'T'
I100
sg20
g6
(g8
S'\x9a\x99\x99\x99\x99\x99\xb9?'
tRp29
sg22
g23
sg24
I13
sg25
I01
sg26
g27
sa(dp30
g3
F0.5
sg4
I1000
sg5
g9
sg10
F0
sg11
I2
sg12
I4
sS'N'
I100
sg13
F0.98999999999999999
sg14
g17
sg18
g19
sS'T'
I100
sg20
g6
(g8
S'\x9a\x99\x99\x99\x99\x99\xc9?'
tRp31
sg22
g23
sg24
I13
sg25
I01
sg26
g27
sa(dp32
g3
F0.5
sg4
I1000
sg5
g9
sg10
F0
sg11
I2
sg12
I4
sS'N'
I100
sg13
F0.98999999999999999
sg14
g17
sg18
g19
sS'T'
I100
sg20
g6
(g8
S'433333\xd3?'
tRp33
sg22
g23
sg24
I13
sg25
I01
sg26
g27
sa(dp34
g3
F0.5
sg4
I1000
sg5
g9
sg10
F0
sg11
I2
sg12
I4
sS'N'
I100
sg13
F0.98999999999999999
sg14
g17
sg18
g19
sS'T'
I100
sg20
g6
(g8
S'\x9a\x99\x99\x99\x99\x99\xd9?'
tRp35
sg22
g23
sg24
I13
sg25
I01
sg26
g27
sa(dp36
g3
F0.5
sg4
I1000
sg5
g9
sg10
F0
sg11
I2
sg12
I4
sS'N'
I100
sg13
F0.98999999999999999
sg14
g17
sg18
g19
sS'T'
I100
sg20
g6
(g8
S'\x00\x00\x00\x00\x00\x00\xe0?'
tRp37
sg22
g23
sg24
I13
sg25
I01
sg26
g27
sa(dp38
g3
F0.5
sg4
I1000
sg5
g9
sg10
F0
sg11
I2
sg12
I4
sS'N'
I100
sg13
F0.98999999999999999
sg14
g17
sg18
g19
sS'T'
I100
sg20
g6
(g8
S'433333\xe3?'
tRp39
sg22
g23
sg24
I13
sg25
I01
sg26
g27
sa(dp40
g3
F0.5
sg4
I1000
sg5
g9
sg10
F0
sg11
I2
sg12
I4
sS'N'
I100
sg13
F0.98999999999999999
sg14
g17
sg18
g19
sS'T'
I100
sg20
g6
(g8
S'gfffff\xe6?'
tRp41
sg22
g23
sg24
I13
sg25
I01
sg26
g27
sa(dp42
g3
F0.5
sg4
I1000
sg5
g9
sg10
F0
sg11
I2
sg12
I4
sS'N'
I100
sg13
F0.98999999999999999
sg14
g17
sg18
g19
sS'T'
I100
sg20
g6
(g8
S'\x9a\x99\x99\x99\x99\x99\xe9?'
tRp43
sg22
g23
sg24
I13
sg25
I01
sg26
g27
sa(dp44
g3
F0.5
sg4
I1000
sg5
g9
sg10
F0
sg11
I2
sg12
I4
sS'N'
I100
sg13
F0.98999999999999999
sg14
g17
sg18
g19
sS'T'
I100
sg20
g6
(g8
S'\xcd\xcc\xcc\xcc\xcc\xcc\xec?'
tRp45
sg22
g23
sg24
I13
sg25
I01
sg26
g27
sa(dp46
g3
F0.5
sg4
I1000
sg5
g9
sg10
F0
sg11
I2
sg12
I4
sS'N'
I100
sg13
F0.98999999999999999
sg14
g17
sg18
g19
sS'T'
I100
sg20
g6
(g8
S'\x1f\x85\xebQ\xb8\x1e\xed?'
tRp47
sg22
g23
sg24
I13
sg25
I01
sg26
g27
sa(dp48
g3
F0.5
sg4
I1000
sg5
g9
sg10
F0
sg11
I2
sg12
I4
sS'N'
I100
sg13
F0.98999999999999999
sg14
g17
sg18
g19
sS'T'
I100
sg20
g6
(g8
S'q=\n\xd7\xa3p\xed?'
tRp49
sg22
g23
sg24
I13
sg25
I01
sg26
g27
sa(dp50
g3
F0.5
sg4
I1000
sg5
g9
sg10
F0
sg11
I2
sg12
I4
sS'N'
I100
sg13
F0.98999999999999999
sg14
g17
sg18
g19
sS'T'
I100
sg20
g6
(g8
S'\xc3\xf5(\\\x8f\xc2\xed?'
tRp51
sg22
g23
sg24
I13
sg25
I01
sg26
g27
sa(dp52
g3
F0.5
sg4
I1000
sg5
g9
sg10
F0
sg11
I2
sg12
I4
sS'N'
I100
sg13
F0.98999999999999999
sg14
g17
sg18
g19
sS'T'
I100
sg20
g6
(g8
S'\x15\xaeG\xe1z\x14\xee?'
tRp53
sg22
g23
sg24
I13
sg25
I01
sg26
g27
sa(dp54
g3
F0.5
sg4
I1000
sg5
g9
sg10
F0
sg11
I2
sg12
I4
sS'N'
I100
sg13
F0.98999999999999999
sg14
g17
sg18
g19
sS'T'
I100
sg20
g6
(g8
S'gfffff\xee?'
tRp55
sg22
g23
sg24
I13
sg25
I01
sg26
g27
sa(dp56
g3
F0.5
sg4
I1000
sg5
g9
sg10
F0
sg11
I2
sg12
I4
sS'N'
I100
sg13
F0.98999999999999999
sg14
g17
sg18
g19
sS'T'
I100
sg20
g6
(g8
S'\xb9\x1e\x85\xebQ\xb8\xee?'
tRp57
sg22
g23
sg24
I13
sg25
I01
sg26
g27
sa(dp58
g3
F0.5
sg4
I1000
sg5
g9
sg10
F0
sg11
I2
sg12
I4
sS'N'
I100
sg13
F0.98999999999999999
sg14
g17
sg18
g19
sS'T'
I100
sg20
g6
(g8
S'\x0b\xd7\xa3p=\n\xef?'
tRp59
sg22
g23
sg24
I13
sg25
I01
sg26
g27
sa(dp60
g3
F0.5
sg4
I1000
sg5
g9
sg10
F0
sg11
I2
sg12
I4
sS'N'
I100
sg13
F0.98999999999999999
sg14
g17
sg18
g19
sS'T'
I100
sg20
g6
(g8
S']\x8f\xc2\xf5(\\\xef?'
tRp61
sg22
g23
sg24
I13
sg25
I01
sg26
g27
sa(dp62
g3
F0.5
sg4
I1000
sg5
g9
sg10
F0
sg11
I2
sg12
I4
sS'N'
I100
sg13
F0.98999999999999999
sg14
g17
sg18
g19
sS'T'
I100
sg20
g6
(g8
S'\xafG\xe1z\x14\xae\xef?'
tRp63
sg22
g23
sg24
I13
sg25
I01
sg26
g27
sa(dp64
g3
F0.5
sg4
I1000
sg5
g9
sg10
F0
sg11
I2
sg12
I4
sS'N'
I100
sg13
F0.98999999999999999
sg14
g17
sg18
g19
sS'T'
I100
sg20
g6
(g8
S'\x00\x00\x00\x00\x00\x00\xf0?'
tRp65
sg22
g23
sg24
I13
sg25
I01
sg26
g27
sa(dp66
g3
F0.5
sg4
I1000
sg5
g6
(g8
S'\xa37y\x1b\x86\xf7Y?'
tRp67
sg10
F0
sg11
I2
sg12
I4
sS'N'
I100
sg13
F0.98999999999999999
sg14
g17
sg18
g19
sS'T'
I100
sg20
g6
(g8
S'\x00\x00\x00\x00\x00\x00\x00\x00'
tRp68
sg22
g23
sg24
I13
sg25
I01
sg26
g27
sa(dp69
g3
F0.5
sg4
I1000
sg5
g67
sg10
F0
sg11
I2
sg12
I4
sS'N'
I100
sg13
F0.98999999999999999
sg14
g17
sg18
g19
sS'T'
I100
sg20
g6
(g8
S'\x9a\x99\x99\x99\x99\x99\xb9?'
tRp70
sg22
g23
sg24
I13
sg25
I01
sg26
g27
sa(dp71
g3
F0.5
sg4
I1000
sg5
g67
sg10
F0
sg11
I2
sg12
I4
sS'N'
I100
sg13
F0.98999999999999999
sg14
g17
sg18
g19
sS'T'
I100
sg20
g6
(g8
S'\x9a\x99\x99\x99\x99\x99\xc9?'
tRp72
sg22
g23
sg24
I13
sg25
I01
sg26
g27
sa(dp73
g3
F0.5
sg4
I1000
sg5
g67
sg10
F0
sg11
I2
sg12
I4
sS'N'
I100
sg13
F0.98999999999999999
sg14
g17
sg18
g19
sS'T'
I100
sg20
g6
(g8
S'433333\xd3?'
tRp74
sg22
g23
sg24
I13
sg25
I01
sg26
g27
sa(dp75
g3
F0.5
sg4
I1000
sg5
g67
sg10
F0
sg11
I2
sg12
I4
sS'N'
I100
sg13
F0.98999999999999999
sg14
g17
sg18
g19
sS'T'
I100
sg20
g6
(g8
S'\x9a\x99\x99\x99\x99\x99\xd9?'
tRp76
sg22
g23
sg24
I13
sg25
I01
sg26
g27
sa(dp77
g3
F0.5
sg4
I1000
sg5
g67
sg10
F0
sg11
I2
sg12
I4
sS'N'
I100
sg13
F0.98999999999999999
sg14
g17
sg18
g19
sS'T'
I100
sg20
g6
(g8
S'\x00\x00\x00\x00\x00\x00\xe0?'
tRp78
sg22
g23
sg24
I13
sg25
I01
sg26
g27
sa(dp79
g3
F0.5
sg4
I1000
sg5
g67
sg10
F0
sg11
I2
sg12
I4
sS'N'
I100
sg13
F0.98999999999999999
sg14
g17
sg18
g19
sS'T'
I100
sg20
g6
(g8
S'433333\xe3?'
tRp80
sg22
g23
sg24
I13
sg25
I01
sg26
g27
sa(dp81
g3
F0.5
sg4
I1000
sg5
g67
sg10
F0
sg11
I2
sg12
I4
sS'N'
I100
sg13
F0.98999999999999999
sg14
g17
sg18
g19
sS'T'
I100
sg20
g6
(g8
S'gfffff\xe6?'
tRp82
sg22
g23
sg24
I13
sg25
I01
sg26
g27
sa(dp83
g3
F0.5
sg4
I1000
sg5
g67
sg10
F0
sg11
I2
sg12
I4
sS'N'
I100
sg13
F0.98999999999999999
sg14
g17
sg18
g19
sS'T'
I100
sg20
g6
(g8
S'\x9a\x99\x99\x99\x99\x99\xe9?'
tRp84
sg22
g23
sg24
I13
sg25
I01
sg26
g27
sa(dp85
g3
F0.5
sg4
I1000
sg5
g67
sg10
F0
sg11
I2
sg12
I4
sS'N'
I100
sg13
F0.98999999999999999
sg14
g17
sg18
g19
sS'T'
I100
sg20
g6
(g8
S'\xcd\xcc\xcc\xcc\xcc\xcc\xec?'
tRp86
sg22
g23
sg24
I13
sg25
I01
sg26
g27
sa(dp87
g3
F0.5
sg4
I1000
sg5
g67
sg10
F0
sg11
I2
sg12
I4
sS'N'
I100
sg13
F0.98999999999999999
sg14
g17
sg18
g19
sS'T'
I100
sg20
g6
(g8
S'\x1f\x85\xebQ\xb8\x1e\xed?'
tRp88
sg22
g23
sg24
I13
sg25
I01
sg26
g27
sa(dp89
g3
F0.5
sg4
I1000
sg5
g67
sg10
F0
sg11
I2
sg12
I4
sS'N'
I100
sg13
F0.98999999999999999
sg14
g17
sg18
g19
sS'T'
I100
sg20
g6
(g8
S'q=\n\xd7\xa3p\xed?'
tRp90
sg22
g23
sg24
I13
sg25
I01
sg26
g27
sa(dp91
g3
F0.5
sg4
I1000
sg5
g67
sg10
F0
sg11
I2
sg12
I4
sS'N'
I100
sg13
F0.98999999999999999
sg14
g17
sg18
g19
sS'T'
I100
sg20
g6
(g8
S'\xc3\xf5(\\\x8f\xc2\xed?'
tRp92
sg22
g23
sg24
I13
sg25
I01
sg26
g27
sa(dp93
g3
F0.5
sg4
I1000
sg5
g67
sg10
F0
sg11
I2
sg12
I4
sS'N'
I100
sg13
F0.98999999999999999
sg14
g17
sg18
g19
sS'T'
I100
sg20
g6
(g8
S'\x15\xaeG\xe1z\x14\xee?'
tRp94
sg22
g23
sg24
I13
sg25
I01
sg26
g27
sa(dp95
g3
F0.5
sg4
I1000
sg5
g67
sg10
F0
sg11
I2
sg12
I4
sS'N'
I100
sg13
F0.98999999999999999
sg14
g17
sg18
g19
sS'T'
I100
sg20
g6
(g8
S'gfffff\xee?'
tRp96
sg22
g23
sg24
I13
sg25
I01
sg26
g27
sa(dp97
g3
F0.5
sg4
I1000
sg5
g67
sg10
F0
sg11
I2
sg12
I4
sS'N'
I100
sg13
F0.98999999999999999
sg14
g17
sg18
g19
sS'T'
I100
sg20
g6
(g8
S'\xb9\x1e\x85\xebQ\xb8\xee?'
tRp98
sg22
g23
sg24
I13
sg25
I01
sg26
g27
sa(dp99
g3
F0.5
sg4
I1000
sg5
g67
sg10
F0
sg11
I2
sg12
I4
sS'N'
I100
sg13
F0.98999999999999999
sg14
g17
sg18
g19
sS'T'
I100
sg20
g6
(g8
S'\x0b\xd7\xa3p=\n\xef?'
tRp100
sg22
g23
sg24
I13
sg25
I01
sg26
g27
sa(dp101
g3
F0.5
sg4
I1000
sg5
g67
sg10
F0
sg11
I2
sg12
I4
sS'N'
I100
sg13
F0.98999999999999999
sg14
g17
sg18
g19
sS'T'
I100
sg20
g6
(g8
S']\x8f\xc2\xf5(\\\xef?'
tRp102
sg22
g23
sg24
I13
sg25
I01
sg26
g27
sa(dp103
g3
F0.5
sg4
I1000
sg5
g67
sg10
F0
sg11
I2
sg12
I4
sS'N'
I100
sg13
F0.98999999999999999
sg14
g17
sg18
g19
sS'T'
I100
sg20
g6
(g8
S'\xafG\xe1z\x14\xae\xef?'
tRp104
sg22
g23
sg24
I13
sg25
I01
sg26
g27
sa(dp105
g3
F0.5
sg4
I1000
sg5
g67
sg10
F0
sg11
I2
sg12
I4
sS'N'
I100
sg13
F0.98999999999999999
sg14
g17
sg18
g19
sS'T'
I100
sg20
g6
(g8
S'\x00\x00\x00\x00\x00\x00\xf0?'
tRp106
sg22
g23
sg24
I13
sg25
I01
sg26
g27
sa(dp107
g3
F0.5
sg4
I1000
sg5
g6
(g8
S'\x1e\x1fc\xc2\xce\x93d?'
tRp108
sg10
F0
sg11
I2
sg12
I4
sS'N'
I100
sg13
F0.98999999999999999
sg14
g17
sg18
g19
sS'T'
I100
sg20
g6
(g8
S'\x00\x00\x00\x00\x00\x00\x00\x00'
tRp109
sg22
g23
sg24
I13
sg25
I01
sg26
g27
sa(dp110
g3
F0.5
sg4
I1000
sg5
g108
sg10
F0
sg11
I2
sg12
I4
sS'N'
I100
sg13
F0.98999999999999999
sg14
g17
sg18
g19
sS'T'
I100
sg20
g6
(g8
S'\x9a\x99\x99\x99\x99\x99\xb9?'
tRp111
sg22
g23
sg24
I13
sg25
I01
sg26
g27
sa(dp112
g3
F0.5
sg4
I1000
sg5
g108
sg10
F0
sg11
I2
sg12
I4
sS'N'
I100
sg13
F0.98999999999999999
sg14
g17
sg18
g19
sS'T'
I100
sg20
g6
(g8
S'\x9a\x99\x99\x99\x99\x99\xc9?'
tRp113
sg22
g23
sg24
I13
sg25
I01
sg26
g27
sa(dp114
g3
F0.5
sg4
I1000
sg5
g108
sg10
F0
sg11
I2
sg12
I4
sS'N'
I100
sg13
F0.98999999999999999
sg14
g17
sg18
g19
sS'T'
I100
sg20
g6
(g8
S'433333\xd3?'
tRp115
sg22
g23
sg24
I13
sg25
I01
sg26
g27
sa(dp116
g3
F0.5
sg4
I1000
sg5
g108
sg10
F0
sg11
I2
sg12
I4
sS'N'
I100
sg13
F0.98999999999999999
sg14
g17
sg18
g19
sS'T'
I100
sg20
g6
(g8
S'\x9a\x99\x99\x99\x99\x99\xd9?'
tRp117
sg22
g23
sg24
I13
sg25
I01
sg26
g27
sa(dp118
g3
F0.5
sg4
I1000
sg5
g108
sg10
F0
sg11
I2
sg12
I4
sS'N'
I100
sg13
F0.98999999999999999
sg14
g17
sg18
g19
sS'T'
I100
sg20
g6
(g8
S'\x00\x00\x00\x00\x00\x00\xe0?'
tRp119
sg22
g23
sg24
I13
sg25
I01
sg26
g27
sa(dp120
g3
F0.5
sg4
I1000
sg5
g108
sg10
F0
sg11
I2
sg12
I4
sS'N'
I100
sg13
F0.98999999999999999
sg14
g17
sg18
g19
sS'T'
I100
sg20
g6
(g8
S'433333\xe3?'
tRp121
sg22
g23
sg24
I13
sg25
I01
sg26
g27
sa(dp122
g3
F0.5
sg4
I1000
sg5
g108
sg10
F0
sg11
I2
sg12
I4
sS'N'
I100
sg13
F0.98999999999999999
sg14
g17
sg18
g19
sS'T'
I100
sg20
g6
(g8
S'gfffff\xe6?'
tRp123
sg22
g23
sg24
I13
sg25
I01
sg26
g27
sa(dp124
g3
F0.5
sg4
I1000
sg5
g108
sg10
F0
sg11
I2
sg12
I4
sS'N'
I100
sg13
F0.98999999999999999
sg14
g17
sg18
g19
sS'T'
I100
sg20
g6
(g8
S'\x9a\x99\x99\x99\x99\x99\xe9?'
tRp125
sg22
g23
sg24
I13
sg25
I01
sg26
g27
sa(dp126
g3
F0.5
sg4
I1000
sg5
g108
sg10
F0
sg11
I2
sg12
I4
sS'N'
I100
sg13
F0.98999999999999999
sg14
g17
sg18
g19
sS'T'
I100
sg20
g6
(g8
S'\xcd\xcc\xcc\xcc\xcc\xcc\xec?'
tRp127
sg22
g23
sg24
I13
sg25
I01
sg26
g27
sa(dp128
g3
F0.5
sg4
I1000
sg5
g108
sg10
F0
sg11
I2
sg12
I4
sS'N'
I100
sg13
F0.98999999999999999
sg14
g17
sg18
g19
sS'T'
I100
sg20
g6
(g8
S'\x1f\x85\xebQ\xb8\x1e\xed?'
tRp129
sg22
g23
sg24
I13
sg25
I01
sg26
g27
sa(dp130
g3
F0.5
sg4
I1000
sg5
g108
sg10
F0
sg11
I2
sg12
I4
sS'N'
I100
sg13
F0.98999999999999999
sg14
g17
sg18
g19
sS'T'
I100
sg20
g6
(g8
S'q=\n\xd7\xa3p\xed?'
tRp131
sg22
g23
sg24
I13
sg25
I01
sg26
g27
sa(dp132
g3
F0.5
sg4
I1000
sg5
g108
sg10
F0
sg11
I2
sg12
I4
sS'N'
I100
sg13
F0.98999999999999999
sg14
g17
sg18
g19
sS'T'
I100
sg20
g6
(g8
S'\xc3\xf5(\\\x8f\xc2\xed?'
tRp133
sg22
g23
sg24
I13
sg25
I01
sg26
g27
sa(dp134
g3
F0.5
sg4
I1000
sg5
g108
sg10
F0
sg11
I2
sg12
I4
sS'N'
I100
sg13
F0.98999999999999999
sg14
g17
sg18
g19
sS'T'
I100
sg20
g6
(g8
S'\x15\xaeG\xe1z\x14\xee?'
tRp135
sg22
g23
sg24
I13
sg25
I01
sg26
g27
sa(dp136
g3
F0.5
sg4
I1000
sg5
g108
sg10
F0
sg11
I2
sg12
I4
sS'N'
I100
sg13
F0.98999999999999999
sg14
g17
sg18
g19
sS'T'
I100
sg20
g6
(g8
S'gfffff\xee?'
tRp137
sg22
g23
sg24
I13
sg25
I01
sg26
g27
sa(dp138
g3
F0.5
sg4
I1000
sg5
g108
sg10
F0
sg11
I2
sg12
I4
sS'N'
I100
sg13
F0.98999999999999999
sg14
g17
sg18
g19
sS'T'
I100
sg20
g6
(g8
S'\xb9\x1e\x85\xebQ\xb8\xee?'
tRp139
sg22
g23
sg24
I13
sg25
I01
sg26
g27
sa(dp140
g3
F0.5
sg4
I1000
sg5
g108
sg10
F0
sg11
I2
sg12
I4
sS'N'
I100
sg13
F0.98999999999999999
sg14
g17
sg18
g19
sS'T'
I100
sg20
g6
(g8
S'\x0b\xd7\xa3p=\n\xef?'
tRp141
sg22
g23
sg24
I13
sg25
I01
sg26
g27
sa(dp142
g3
F0.5
sg4
I1000
sg5
g108
sg10
F0
sg11
I2
sg12
I4
sS'N'
I100
sg13
F0.98999999999999999
sg14
g17
sg18
g19
sS'T'
I100
sg20
g6
(g8
S']\x8f\xc2\xf5(\\\xef?'
tRp143
sg22
g23
sg24
I13
sg25
I01
sg26
g27
sa(dp144
g3
F0.5
sg4
I1000
sg5
g108
sg10
F0
sg11
I2
sg12
I4
sS'N'
I100
sg13
F0.98999999999999999
sg14
g17
sg18
g19
sS'T'
I100
sg20
g6
(g8
S'\xafG\xe1z\x14\xae\xef?'
tRp145
sg22
g23
sg24
I13
sg25
I01
sg26
g27
sa(dp146
g3
F0.5
sg4
I1000
sg5
g108
sg10
F0
sg11
I2
sg12
I4
sS'N'
I100
sg13
F0.98999999999999999
sg14
g17
sg18
g19
sS'T'
I100
sg20
g6
(g8
S'\x00\x00\x00\x00\x00\x00\xf0?'
tRp147
sg22
g23
sg24
I13
sg25
I01
sg26
g27
sa(dp148
g3
F0.5
sg4
I1000
sg5
g6
(g8
S'\x8d\xees\xcctNp?'
tRp149
sg10
F0
sg11
I2
sg12
I4
sS'N'
I100
sg13
F0.98999999999999999
sg14
g17
sg18
g19
sS'T'
I100
sg20
g6
(g8
S'\x00\x00\x00\x00\x00\x00\x00\x00'
tRp150
sg22
g23
sg24
I13
sg25
I01
sg26
g27
sa(dp151
g3
F0.5
sg4
I1000
sg5
g149
sg10
F0
sg11
I2
sg12
I4
sS'N'
I100
sg13
F0.98999999999999999
sg14
g17
sg18
g19
sS'T'
I100
sg20
g6
(g8
S'\x9a\x99\x99\x99\x99\x99\xb9?'
tRp152
sg22
g23
sg24
I13
sg25
I01
sg26
g27
sa(dp153
g3
F0.5
sg4
I1000
sg5
g149
sg10
F0
sg11
I2
sg12
I4
sS'N'
I100
sg13
F0.98999999999999999
sg14
g17
sg18
g19
sS'T'
I100
sg20
g6
(g8
S'\x9a\x99\x99\x99\x99\x99\xc9?'
tRp154
sg22
g23
sg24
I13
sg25
I01
sg26
g27
sa(dp155
g3
F0.5
sg4
I1000
sg5
g149
sg10
F0
sg11
I2
sg12
I4
sS'N'
I100
sg13
F0.98999999999999999
sg14
g17
sg18
g19
sS'T'
I100
sg20
g6
(g8
S'433333\xd3?'
tRp156
sg22
g23
sg24
I13
sg25
I01
sg26
g27
sa(dp157
g3
F0.5
sg4
I1000
sg5
g149
sg10
F0
sg11
I2
sg12
I4
sS'N'
I100
sg13
F0.98999999999999999
sg14
g17
sg18
g19
sS'T'
I100
sg20
g6
(g8
S'\x9a\x99\x99\x99\x99\x99\xd9?'
tRp158
sg22
g23
sg24
I13
sg25
I01
sg26
g27
sa(dp159
g3
F0.5
sg4
I1000
sg5
g149
sg10
F0
sg11
I2
sg12
I4
sS'N'
I100
sg13
F0.98999999999999999
sg14
g17
sg18
g19
sS'T'
I100
sg20
g6
(g8
S'\x00\x00\x00\x00\x00\x00\xe0?'
tRp160
sg22
g23
sg24
I13
sg25
I01
sg26
g27
sa(dp161
g3
F0.5
sg4
I1000
sg5
g149
sg10
F0
sg11
I2
sg12
I4
sS'N'
I100
sg13
F0.98999999999999999
sg14
g17
sg18
g19
sS'T'
I100
sg20
g6
(g8
S'433333\xe3?'
tRp162
sg22
g23
sg24
I13
sg25
I01
sg26
g27
sa(dp163
g3
F0.5
sg4
I1000
sg5
g149
sg10
F0
sg11
I2
sg12
I4
sS'N'
I100
sg13
F0.98999999999999999
sg14
g17
sg18
g19
sS'T'
I100
sg20
g6
(g8
S'gfffff\xe6?'
tRp164
sg22
g23
sg24
I13
sg25
I01
sg26
g27
sa(dp165
g3
F0.5
sg4
I1000
sg5
g149
sg10
F0
sg11
I2
sg12
I4
sS'N'
I100
sg13
F0.98999999999999999
sg14
g17
sg18
g19
sS'T'
I100
sg20
g6
(g8
S'\x9a\x99\x99\x99\x99\x99\xe9?'
tRp166
sg22
g23
sg24
I13
sg25
I01
sg26
g27
sa(dp167
g3
F0.5
sg4
I1000
sg5
g149
sg10
F0
sg11
I2
sg12
I4
sS'N'
I100
sg13
F0.98999999999999999
sg14
g17
sg18
g19
sS'T'
I100
sg20
g6
(g8
S'\xcd\xcc\xcc\xcc\xcc\xcc\xec?'
tRp168
sg22
g23
sg24
I13
sg25
I01
sg26
g27
sa(dp169
g3
F0.5
sg4
I1000
sg5
g149
sg10
F0
sg11
I2
sg12
I4
sS'N'
I100
sg13
F0.98999999999999999
sg14
g17
sg18
g19
sS'T'
I100
sg20
g6
(g8
S'\x1f\x85\xebQ\xb8\x1e\xed?'
tRp170
sg22
g23
sg24
I13
sg25
I01
sg26
g27
sa(dp171
g3
F0.5
sg4
I1000
sg5
g149
sg10
F0
sg11
I2
sg12
I4
sS'N'
I100
sg13
F0.98999999999999999
sg14
g17
sg18
g19
sS'T'
I100
sg20
g6
(g8
S'q=\n\xd7\xa3p\xed?'
tRp172
sg22
g23
sg24
I13
sg25
I01
sg26
g27
sa(dp173
g3
F0.5
sg4
I1000
sg5
g149
sg10
F0
sg11
I2
sg12
I4
sS'N'
I100
sg13
F0.98999999999999999
sg14
g17
sg18
g19
sS'T'
I100
sg20
g6
(g8
S'\xc3\xf5(\\\x8f\xc2\xed?'
tRp174
sg22
g23
sg24
I13
sg25
I01
sg26
g27
sa(dp175
g3
F0.5
sg4
I1000
sg5
g149
sg10
F0
sg11
I2
sg12
I4
sS'N'
I100
sg13
F0.98999999999999999
sg14
g17
sg18
g19
sS'T'
I100
sg20
g6
(g8
S'\x15\xaeG\xe1z\x14\xee?'
tRp176
sg22
g23
sg24
I13
sg25
I01
sg26
g27
sa(dp177
g3
F0.5
sg4
I1000
sg5
g149
sg10
F0
sg11
I2
sg12
I4
sS'N'
I100
sg13
F0.98999999999999999
sg14
g17
sg18
g19
sS'T'
I100
sg20
g6
(g8
S'gfffff\xee?'
tRp178
sg22
g23
sg24
I13
sg25
I01
sg26
g27
sa(dp179
g3
F0.5
sg4
I1000
sg5
g149
sg10
F0
sg11
I2
sg12
I4
sS'N'
I100
sg13
F0.98999999999999999
sg14
g17
sg18
g19
sS'T'
I100
sg20
g6
(g8
S'\xb9\x1e\x85\xebQ\xb8\xee?'
tRp180
sg22
g23
sg24
I13
sg25
I01
sg26
g27
sa(dp181
g3
F0.5
sg4
I1000
sg5
g149
sg10
F0
sg11
I2
sg12
I4
sS'N'
I100
sg13
F0.98999999999999999
sg14
g17
sg18
g19
sS'T'
I100
sg20
g6
(g8
S'\x0b\xd7\xa3p=\n\xef?'
tRp182
sg22
g23
sg24
I13
sg25
I01
sg26
g27
sa(dp183
g3
F0.5
sg4
I1000
sg5
g149
sg10
F0
sg11
I2
sg12
I4
sS'N'
I100
sg13
F0.98999999999999999
sg14
g17
sg18
g19
sS'T'
I100
sg20
g6
(g8
S']\x8f\xc2\xf5(\\\xef?'
tRp184
sg22
g23
sg24
I13
sg25
I01
sg26
g27
sa(dp185
g3
F0.5
sg4
I1000
sg5
g149
sg10
F0
sg11
I2
sg12
I4
sS'N'
I100
sg13
F0.98999999999999999
sg14
g17
sg18
g19
sS'T'
I100
sg20
g6
(g8
S'\xafG\xe1z\x14\xae\xef?'
tRp186
sg22
g23
sg24
I13
sg25
I01
sg26
g27
sa(dp187
g3
F0.5
sg4
I1000
sg5
g149
sg10
F0
sg11
I2
sg12
I4
sS'N'
I100
sg13
F0.98999999999999999
sg14
g17
sg18
g19
sS'T'
I100
sg20
g6
(g8
S'\x00\x00\x00\x00\x00\x00\xf0?'
tRp188
sg22
g23
sg24
I13
sg25
I01
sg26
g27
sa(dp189
g3
F0.5
sg4
I1000
sg5
g6
(g8
S'\xce\xdc\x8d9\x11\xd8y?'
tRp190
sg10
F0
sg11
I2
sg12
I4
sS'N'
I100
sg13
F0.98999999999999999
sg14
g17
sg18
g19
sS'T'
I100
sg20
g6
(g8
S'\x00\x00\x00\x00\x00\x00\x00\x00'
tRp191
sg22
g23
sg24
I13
sg25
I01
sg26
g27
sa(dp192
g3
F0.5
sg4
I1000
sg5
g190
sg10
F0
sg11
I2
sg12
I4
sS'N'
I100
sg13
F0.98999999999999999
sg14
g17
sg18
g19
sS'T'
I100
sg20
g6
(g8
S'\x9a\x99\x99\x99\x99\x99\xb9?'
tRp193
sg22
g23
sg24
I13
sg25
I01
sg26
g27
sa(dp194
g3
F0.5
sg4
I1000
sg5
g190
sg10
F0
sg11
I2
sg12
I4
sS'N'
I100
sg13
F0.98999999999999999
sg14
g17
sg18
g19
sS'T'
I100
sg20
g6
(g8
S'\x9a\x99\x99\x99\x99\x99\xc9?'
tRp195
sg22
g23
sg24
I13
sg25
I01
sg26
g27
sa(dp196
g3
F0.5
sg4
I1000
sg5
g190
sg10
F0
sg11
I2
sg12
I4
sS'N'
I100
sg13
F0.98999999999999999
sg14
g17
sg18
g19
sS'T'
I100
sg20
g6
(g8
S'433333\xd3?'
tRp197
sg22
g23
sg24
I13
sg25
I01
sg26
g27
sa(dp198
g3
F0.5
sg4
I1000
sg5
g190
sg10
F0
sg11
I2
sg12
I4
sS'N'
I100
sg13
F0.98999999999999999
sg14
g17
sg18
g19
sS'T'
I100
sg20
g6
(g8
S'\x9a\x99\x99\x99\x99\x99\xd9?'
tRp199
sg22
g23
sg24
I13
sg25
I01
sg26
g27
sa(dp200
g3
F0.5
sg4
I1000
sg5
g190
sg10
F0
sg11
I2
sg12
I4
sS'N'
I100
sg13
F0.98999999999999999
sg14
g17
sg18
g19
sS'T'
I100
sg20
g6
(g8
S'\x00\x00\x00\x00\x00\x00\xe0?'
tRp201
sg22
g23
sg24
I13
sg25
I01
sg26
g27
sa(dp202
g3
F0.5
sg4
I1000
sg5
g190
sg10
F0
sg11
I2
sg12
I4
sS'N'
I100
sg13
F0.98999999999999999
sg14
g17
sg18
g19
sS'T'
I100
sg20
g6
(g8
S'433333\xe3?'
tRp203
sg22
g23
sg24
I13
sg25
I01
sg26
g27
sa(dp204
g3
F0.5
sg4
I1000
sg5
g190
sg10
F0
sg11
I2
sg12
I4
sS'N'
I100
sg13
F0.98999999999999999
sg14
g17
sg18
g19
sS'T'
I100
sg20
g6
(g8
S'gfffff\xe6?'
tRp205
sg22
g23
sg24
I13
sg25
I01
sg26
g27
sa(dp206
g3
F0.5
sg4
I1000
sg5
g190
sg10
F0
sg11
I2
sg12
I4
sS'N'
I100
sg13
F0.98999999999999999
sg14
g17
sg18
g19
sS'T'
I100
sg20
g6
(g8
S'\x9a\x99\x99\x99\x99\x99\xe9?'
tRp207
sg22
g23
sg24
I13
sg25
I01
sg26
g27
sa(dp208
g3
F0.5
sg4
I1000
sg5
g190
sg10
F0
sg11
I2
sg12
I4
sS'N'
I100
sg13
F0.98999999999999999
sg14
g17
sg18
g19
sS'T'
I100
sg20
g6
(g8
S'\xcd\xcc\xcc\xcc\xcc\xcc\xec?'
tRp209
sg22
g23
sg24
I13
sg25
I01
sg26
g27
sa(dp210
g3
F0.5
sg4
I1000
sg5
g190
sg10
F0
sg11
I2
sg12
I4
sS'N'
I100
sg13
F0.98999999999999999
sg14
g17
sg18
g19
sS'T'
I100
sg20
g6
(g8
S'\x1f\x85\xebQ\xb8\x1e\xed?'
tRp211
sg22
g23
sg24
I13
sg25
I01
sg26
g27
sa(dp212
g3
F0.5
sg4
I1000
sg5
g190
sg10
F0
sg11
I2
sg12
I4
sS'N'
I100
sg13
F0.98999999999999999
sg14
g17
sg18
g19
sS'T'
I100
sg20
g6
(g8
S'q=\n\xd7\xa3p\xed?'
tRp213
sg22
g23
sg24
I13
sg25
I01
sg26
g27
sa(dp214
g3
F0.5
sg4
I1000
sg5
g190
sg10
F0
sg11
I2
sg12
I4
sS'N'
I100
sg13
F0.98999999999999999
sg14
g17
sg18
g19
sS'T'
I100
sg20
g6
(g8
S'\xc3\xf5(\\\x8f\xc2\xed?'
tRp215
sg22
g23
sg24
I13
sg25
I01
sg26
g27
sa(dp216
g3
F0.5
sg4
I1000
sg5
g190
sg10
F0
sg11
I2
sg12
I4
sS'N'
I100
sg13
F0.98999999999999999
sg14
g17
sg18
g19
sS'T'
I100
sg20
g6
(g8
S'\x15\xaeG\xe1z\x14\xee?'
tRp217
sg22
g23
sg24
I13
sg25
I01
sg26
g27
sa(dp218
g3
F0.5
sg4
I1000
sg5
g190
sg10
F0
sg11
I2
sg12
I4
sS'N'
I100
sg13
F0.98999999999999999
sg14
g17
sg18
g19
sS'T'
I100
sg20
g6
(g8
S'gfffff\xee?'
tRp219
sg22
g23
sg24
I13
sg25
I01
sg26
g27
sa(dp220
g3
F0.5
sg4
I1000
sg5
g190
sg10
F0
sg11
I2
sg12
I4
sS'N'
I100
sg13
F0.98999999999999999
sg14
g17
sg18
g19
sS'T'
I100
sg20
g6
(g8
S'\xb9\x1e\x85\xebQ\xb8\xee?'
tRp221
sg22
g23
sg24
I13
sg25
I01
sg26
g27
sa(dp222
g3
F0.5
sg4
I1000
sg5
g190
sg10
F0
sg11
I2
sg12
I4
sS'N'
I100
sg13
F0.98999999999999999
sg14
g17
sg18
g19
sS'T'
I100
sg20
g6
(g8
S'\x0b\xd7\xa3p=\n\xef?'
tRp223
sg22
g23
sg24
I13
sg25
I01
sg26
g27
sa(dp224
g3
F0.5
sg4
I1000
sg5
g190
sg10
F0
sg11
I2
sg12
I4
sS'N'
I100
sg13
F0.98999999999999999
sg14
g17
sg18
g19
sS'T'
I100
sg20
g6
(g8
S']\x8f\xc2\xf5(\\\xef?'
tRp225
sg22
g23
sg24
I13
sg25
I01
sg26
g27
sa(dp226
g3
F0.5
sg4
I1000
sg5
g190
sg10
F0
sg11
I2
sg12
I4
sS'N'
I100
sg13
F0.98999999999999999
sg14
g17
sg18
g19
sS'T'
I100
sg20
g6
(g8
S'\xafG\xe1z\x14\xae\xef?'
tRp227
sg22
g23
sg24
I13
sg25
I01
sg26
g27
sa(dp228
g3
F0.5
sg4
I1000
sg5
g190
sg10
F0
sg11
I2
sg12
I4
sS'N'
I100
sg13
F0.98999999999999999
sg14
g17
sg18
g19
sS'T'
I100
sg20
g6
(g8
S'\x00\x00\x00\x00\x00\x00\xf0?'
tRp229
sg22
g23
sg24
I13
sg25
I01
sg26
g27
sa(dp230
g3
F0.5
sg4
I1000
sg5
g6
(g8
S'\x87\x14\xaeG\xe1z\x84?'
tRp231
sg10
F0
sg11
I2
sg12
I4
sS'N'
I100
sg13
F0.98999999999999999
sg14
g17
sg18
g19
sS'T'
I100
sg20
g6
(g8
S'\x00\x00\x00\x00\x00\x00\x00\x00'
tRp232
sg22
g23
sg24
I13
sg25
I01
sg26
g27
sa(dp233
g3
F0.5
sg4
I1000
sg5
g231
sg10
F0
sg11
I2
sg12
I4
sS'N'
I100
sg13
F0.98999999999999999
sg14
g17
sg18
g19
sS'T'
I100
sg20
g6
(g8
S'\x9a\x99\x99\x99\x99\x99\xb9?'
tRp234
sg22
g23
sg24
I13
sg25
I01
sg26
g27
sa(dp235
g3
F0.5
sg4
I1000
sg5
g231
sg10
F0
sg11
I2
sg12
I4
sS'N'
I100
sg13
F0.98999999999999999
sg14
g17
sg18
g19
sS'T'
I100
sg20
g6
(g8
S'\x9a\x99\x99\x99\x99\x99\xc9?'
tRp236
sg22
g23
sg24
I13
sg25
I01
sg26
g27
sa(dp237
g3
F0.5
sg4
I1000
sg5
g231
sg10
F0
sg11
I2
sg12
I4
sS'N'
I100
sg13
F0.98999999999999999
sg14
g17
sg18
g19
sS'T'
I100
sg20
g6
(g8
S'433333\xd3?'
tRp238
sg22
g23
sg24
I13
sg25
I01
sg26
g27
sa(dp239
g3
F0.5
sg4
I1000
sg5
g231
sg10
F0
sg11
I2
sg12
I4
sS'N'
I100
sg13
F0.98999999999999999
sg14
g17
sg18
g19
sS'T'
I100
sg20
g6
(g8
S'\x9a\x99\x99\x99\x99\x99\xd9?'
tRp240
sg22
g23
sg24
I13
sg25
I01
sg26
g27
sa(dp241
g3
F0.5
sg4
I1000
sg5
g231
sg10
F0
sg11
I2
sg12
I4
sS'N'
I100
sg13
F0.98999999999999999
sg14
g17
sg18
g19
sS'T'
I100
sg20
g6
(g8
S'\x00\x00\x00\x00\x00\x00\xe0?'
tRp242
sg22
g23
sg24
I13
sg25
I01
sg26
g27
sa(dp243
g3
F0.5
sg4
I1000
sg5
g231
sg10
F0
sg11
I2
sg12
I4
sS'N'
I100
sg13
F0.98999999999999999
sg14
g17
sg18
g19
sS'T'
I100
sg20
g6
(g8
S'433333\xe3?'
tRp244
sg22
g23
sg24
I13
sg25
I01
sg26
g27
sa(dp245
g3
F0.5
sg4
I1000
sg5
g231
sg10
F0
sg11
I2
sg12
I4
sS'N'
I100
sg13
F0.98999999999999999
sg14
g17
sg18
g19
sS'T'
I100
sg20
g6
(g8
S'gfffff\xe6?'
tRp246
sg22
g23
sg24
I13
sg25
I01
sg26
g27
sa(dp247
g3
F0.5
sg4
I1000
sg5
g231
sg10
F0
sg11
I2
sg12
I4
sS'N'
I100
sg13
F0.98999999999999999
sg14
g17
sg18
g19
sS'T'
I100
sg20
g6
(g8
S'\x9a\x99\x99\x99\x99\x99\xe9?'
tRp248
sg22
g23
sg24
I13
sg25
I01
sg26
g27
sa(dp249
g3
F0.5
sg4
I1000
sg5
g231
sg10
F0
sg11
I2
sg12
I4
sS'N'
I100
sg13
F0.98999999999999999
sg14
g17
sg18
g19
sS'T'
I100
sg20
g6
(g8
S'\xcd\xcc\xcc\xcc\xcc\xcc\xec?'
tRp250
sg22
g23
sg24
I13
sg25
I01
sg26
g27
sa(dp251
g3
F0.5
sg4
I1000
sg5
g231
sg10
F0
sg11
I2
sg12
I4
sS'N'
I100
sg13
F0.98999999999999999
sg14
g17
sg18
g19
sS'T'
I100
sg20
g6
(g8
S'\x1f\x85\xebQ\xb8\x1e\xed?'
tRp252
sg22
g23
sg24
I13
sg25
I01
sg26
g27
sa(dp253
g3
F0.5
sg4
I1000
sg5
g231
sg10
F0
sg11
I2
sg12
I4
sS'N'
I100
sg13
F0.98999999999999999
sg14
g17
sg18
g19
sS'T'
I100
sg20
g6
(g8
S'q=\n\xd7\xa3p\xed?'
tRp254
sg22
g23
sg24
I13
sg25
I01
sg26
g27
sa(dp255
g3
F0.5
sg4
I1000
sg5
g231
sg10
F0
sg11
I2
sg12
I4
sS'N'
I100
sg13
F0.98999999999999999
sg14
g17
sg18
g19
sS'T'
I100
sg20
g6
(g8
S'\xc3\xf5(\\\x8f\xc2\xed?'
tRp256
sg22
g23
sg24
I13
sg25
I01
sg26
g27
sa(dp257
g3
F0.5
sg4
I1000
sg5
g231
sg10
F0
sg11
I2
sg12
I4
sS'N'
I100
sg13
F0.98999999999999999
sg14
g17
sg18
g19
sS'T'
I100
sg20
g6
(g8
S'\x15\xaeG\xe1z\x14\xee?'
tRp258
sg22
g23
sg24
I13
sg25
I01
sg26
g27
sa(dp259
g3
F0.5
sg4
I1000
sg5
g231
sg10
F0
sg11
I2
sg12
I4
sS'N'
I100
sg13
F0.98999999999999999
sg14
g17
sg18
g19
sS'T'
I100
sg20
g6
(g8
S'gfffff\xee?'
tRp260
sg22
g23
sg24
I13
sg25
I01
sg26
g27
sa(dp261
g3
F0.5
sg4
I1000
sg5
g231
sg10
F0
sg11
I2
sg12
I4
sS'N'
I100
sg13
F0.98999999999999999
sg14
g17
sg18
g19
sS'T'
I100
sg20
g6
(g8
S'\xb9\x1e\x85\xebQ\xb8\xee?'
tRp262
sg22
g23
sg24
I13
sg25
I01
sg26
g27
sa(dp263
g3
F0.5
sg4
I1000
sg5
g231
sg10
F0
sg11
I2
sg12
I4
sS'N'
I100
sg13
F0.98999999999999999
sg14
g17
sg18
g19
sS'T'
I100
sg20
g6
(g8
S'\x0b\xd7\xa3p=\n\xef?'
tRp264
sg22
g23
sg24
I13
sg25
I01
sg26
g27
sa(dp265
g3
F0.5
sg4
I1000
sg5
g231
sg10
F0
sg11
I2
sg12
I4
sS'N'
I100
sg13
F0.98999999999999999
sg14
g17
sg18
g19
sS'T'
I100
sg20
g6
(g8
S']\x8f\xc2\xf5(\\\xef?'
tRp266
sg22
g23
sg24
I13
sg25
I01
sg26
g27
sa(dp267
g3
F0.5
sg4
I1000
sg5
g231
sg10
F0
sg11
I2
sg12
I4
sS'N'
I100
sg13
F0.98999999999999999
sg14
g17
sg18
g19
sS'T'
I100
sg20
g6
(g8
S'\xafG\xe1z\x14\xae\xef?'
tRp268
sg22
g23
sg24
I13
sg25
I01
sg26
g27
sa(dp269
g3
F0.5
sg4
I1000
sg5
g231
sg10
F0
sg11
I2
sg12
I4
sS'N'
I100
sg13
F0.98999999999999999
sg14
g17
sg18
g19
sS'T'
I100
sg20
g6
(g8
S'\x00\x00\x00\x00\x00\x00\xf0?'
tRp270
sg22
g23
sg24
I13
sg25
I01
sg26
g27
sa(dp271
g3
F0.5
sg4
I1000
sg5
g6
(g8
S'\xcf\xc2+\xd1\xb3:\x90?'
tRp272
sg10
F0
sg11
I2
sg12
I4
sS'N'
I100
sg13
F0.98999999999999999
sg14
g17
sg18
g19
sS'T'
I100
sg20
g6
(g8
S'\x00\x00\x00\x00\x00\x00\x00\x00'
tRp273
sg22
g23
sg24
I13
sg25
I01
sg26
g27
sa(dp274
g3
F0.5
sg4
I1000
sg5
g272
sg10
F0
sg11
I2
sg12
I4
sS'N'
I100
sg13
F0.98999999999999999
sg14
g17
sg18
g19
sS'T'
I100
sg20
g6
(g8
S'\x9a\x99\x99\x99\x99\x99\xb9?'
tRp275
sg22
g23
sg24
I13
sg25
I01
sg26
g27
sa(dp276
g3
F0.5
sg4
I1000
sg5
g272
sg10
F0
sg11
I2
sg12
I4
sS'N'
I100
sg13
F0.98999999999999999
sg14
g17
sg18
g19
sS'T'
I100
sg20
g6
(g8
S'\x9a\x99\x99\x99\x99\x99\xc9?'
tRp277
sg22
g23
sg24
I13
sg25
I01
sg26
g27
sa(dp278
g3
F0.5
sg4
I1000
sg5
g272
sg10
F0
sg11
I2
sg12
I4
sS'N'
I100
sg13
F0.98999999999999999
sg14
g17
sg18
g19
sS'T'
I100
sg20
g6
(g8
S'433333\xd3?'
tRp279
sg22
g23
sg24
I13
sg25
I01
sg26
g27
sa(dp280
g3
F0.5
sg4
I1000
sg5
g272
sg10
F0
sg11
I2
sg12
I4
sS'N'
I100
sg13
F0.98999999999999999
sg14
g17
sg18
g19
sS'T'
I100
sg20
g6
(g8
S'\x9a\x99\x99\x99\x99\x99\xd9?'
tRp281
sg22
g23
sg24
I13
sg25
I01
sg26
g27
sa(dp282
g3
F0.5
sg4
I1000
sg5
g272
sg10
F0
sg11
I2
sg12
I4
sS'N'
I100
sg13
F0.98999999999999999
sg14
g17
sg18
g19
sS'T'
I100
sg20
g6
(g8
S'\x00\x00\x00\x00\x00\x00\xe0?'
tRp283
sg22
g23
sg24
I13
sg25
I01
sg26
g27
sa(dp284
g3
F0.5
sg4
I1000
sg5
g272
sg10
F0
sg11
I2
sg12
I4
sS'N'
I100
sg13
F0.98999999999999999
sg14
g17
sg18
g19
sS'T'
I100
sg20
g6
(g8
S'433333\xe3?'
tRp285
sg22
g23
sg24
I13
sg25
I01
sg26
g27
sa(dp286
g3
F0.5
sg4
I1000
sg5
g272
sg10
F0
sg11
I2
sg12
I4
sS'N'
I100
sg13
F0.98999999999999999
sg14
g17
sg18
g19
sS'T'
I100
sg20
g6
(g8
S'gfffff\xe6?'
tRp287
sg22
g23
sg24
I13
sg25
I01
sg26
g27
sa(dp288
g3
F0.5
sg4
I1000
sg5
g272
sg10
F0
sg11
I2
sg12
I4
sS'N'
I100
sg13
F0.98999999999999999
sg14
g17
sg18
g19
sS'T'
I100
sg20
g6
(g8
S'\x9a\x99\x99\x99\x99\x99\xe9?'
tRp289
sg22
g23
sg24
I13
sg25
I01
sg26
g27
sa(dp290
g3
F0.5
sg4
I1000
sg5
g272
sg10
F0
sg11
I2
sg12
I4
sS'N'
I100
sg13
F0.98999999999999999
sg14
g17
sg18
g19
sS'T'
I100
sg20
g6
(g8
S'\xcd\xcc\xcc\xcc\xcc\xcc\xec?'
tRp291
sg22
g23
sg24
I13
sg25
I01
sg26
g27
sa(dp292
g3
F0.5
sg4
I1000
sg5
g272
sg10
F0
sg11
I2
sg12
I4
sS'N'
I100
sg13
F0.98999999999999999
sg14
g17
sg18
g19
sS'T'
I100
sg20
g6
(g8
S'\x1f\x85\xebQ\xb8\x1e\xed?'
tRp293
sg22
g23
sg24
I13
sg25
I01
sg26
g27
sa(dp294
g3
F0.5
sg4
I1000
sg5
g272
sg10
F0
sg11
I2
sg12
I4
sS'N'
I100
sg13
F0.98999999999999999
sg14
g17
sg18
g19
sS'T'
I100
sg20
g6
(g8
S'q=\n\xd7\xa3p\xed?'
tRp295
sg22
g23
sg24
I13
sg25
I01
sg26
g27
sa(dp296
g3
F0.5
sg4
I1000
sg5
g272
sg10
F0
sg11
I2
sg12
I4
sS'N'
I100
sg13
F0.98999999999999999
sg14
g17
sg18
g19
sS'T'
I100
sg20
g6
(g8
S'\xc3\xf5(\\\x8f\xc2\xed?'
tRp297
sg22
g23
sg24
I13
sg25
I01
sg26
g27
sa(dp298
g3
F0.5
sg4
I1000
sg5
g272
sg10
F0
sg11
I2
sg12
I4
sS'N'
I100
sg13
F0.98999999999999999
sg14
g17
sg18
g19
sS'T'
I100
sg20
g6
(g8
S'\x15\xaeG\xe1z\x14\xee?'
tRp299
sg22
g23
sg24
I13
sg25
I01
sg26
g27
sa(dp300
g3
F0.5
sg4
I1000
sg5
g272
sg10
F0
sg11
I2
sg12
I4
sS'N'
I100
sg13
F0.98999999999999999
sg14
g17
sg18
g19
sS'T'
I100
sg20
g6
(g8
S'gfffff\xee?'
tRp301
sg22
g23
sg24
I13
sg25
I01
sg26
g27
sa(dp302
g3
F0.5
sg4
I1000
sg5
g272
sg10
F0
sg11
I2
sg12
I4
sS'N'
I100
sg13
F0.98999999999999999
sg14
g17
sg18
g19
sS'T'
I100
sg20
g6
(g8
S'\xb9\x1e\x85\xebQ\xb8\xee?'
tRp303
sg22
g23
sg24
I13
sg25
I01
sg26
g27
sa(dp304
g3
F0.5
sg4
I1000
sg5
g272
sg10
F0
sg11
I2
sg12
I4
sS'N'
I100
sg13
F0.98999999999999999
sg14
g17
sg18
g19
sS'T'
I100
sg20
g6
(g8
S'\x0b\xd7\xa3p=\n\xef?'
tRp305
sg22
g23
sg24
I13
sg25
I01
sg26
g27
sa(dp306
g3
F0.5
sg4
I1000
sg5
g272
sg10
F0
sg11
I2
sg12
I4
sS'N'
I100
sg13
F0.98999999999999999
sg14
g17
sg18
g19
sS'T'
I100
sg20
g6
(g8
S']\x8f\xc2\xf5(\\\xef?'
tRp307
sg22
g23
sg24
I13
sg25
I01
sg26
g27
sa(dp308
g3
F0.5
sg4
I1000
sg5
g272
sg10
F0
sg11
I2
sg12
I4
sS'N'
I100
sg13
F0.98999999999999999
sg14
g17
sg18
g19
sS'T'
I100
sg20
g6
(g8
S'\xafG\xe1z\x14\xae\xef?'
tRp309
sg22
g23
sg24
I13
sg25
I01
sg26
g27
sa(dp310
g3
F0.5
sg4
I1000
sg5
g272
sg10
F0
sg11
I2
sg12
I4
sS'N'
I100
sg13
F0.98999999999999999
sg14
g17
sg18
g19
sS'T'
I100
sg20
g6
(g8
S'\x00\x00\x00\x00\x00\x00\xf0?'
tRp311
sg22
g23
sg24
I13
sg25
I01
sg26
g27
sa(dp312
g3
F0.5
sg4
I1000
sg5
g6
(g8
S'\xf5\xe6\xfbr\xc2\xb8\x99?'
tRp313
sg10
F0
sg11
I2
sg12
I4
sS'N'
I100
sg13
F0.98999999999999999
sg14
g17
sg18
g19
sS'T'
I100
sg20
g6
(g8
S'\x00\x00\x00\x00\x00\x00\x00\x00'
tRp314
sg22
g23
sg24
I13
sg25
I01
sg26
g27
sa(dp315
g3
F0.5
sg4
I1000
sg5
g313
sg10
F0
sg11
I2
sg12
I4
sS'N'
I100
sg13
F0.98999999999999999
sg14
g17
sg18
g19
sS'T'
I100
sg20
g6
(g8
S'\x9a\x99\x99\x99\x99\x99\xb9?'
tRp316
sg22
g23
sg24
I13
sg25
I01
sg26
g27
sa(dp317
g3
F0.5
sg4
I1000
sg5
g313
sg10
F0
sg11
I2
sg12
I4
sS'N'
I100
sg13
F0.98999999999999999
sg14
g17
sg18
g19
sS'T'
I100
sg20
g6
(g8
S'\x9a\x99\x99\x99\x99\x99\xc9?'
tRp318
sg22
g23
sg24
I13
sg25
I01
sg26
g27
sa(dp319
g3
F0.5
sg4
I1000
sg5
g313
sg10
F0
sg11
I2
sg12
I4
sS'N'
I100
sg13
F0.98999999999999999
sg14
g17
sg18
g19
sS'T'
I100
sg20
g6
(g8
S'433333\xd3?'
tRp320
sg22
g23
sg24
I13
sg25
I01
sg26
g27
sa(dp321
g3
F0.5
sg4
I1000
sg5
g313
sg10
F0
sg11
I2
sg12
I4
sS'N'
I100
sg13
F0.98999999999999999
sg14
g17
sg18
g19
sS'T'
I100
sg20
g6
(g8
S'\x9a\x99\x99\x99\x99\x99\xd9?'
tRp322
sg22
g23
sg24
I13
sg25
I01
sg26
g27
sa(dp323
g3
F0.5
sg4
I1000
sg5
g313
sg10
F0
sg11
I2
sg12
I4
sS'N'
I100
sg13
F0.98999999999999999
sg14
g17
sg18
g19
sS'T'
I100
sg20
g6
(g8
S'\x00\x00\x00\x00\x00\x00\xe0?'
tRp324
sg22
g23
sg24
I13
sg25
I01
sg26
g27
sa(dp325
g3
F0.5
sg4
I1000
sg5
g313
sg10
F0
sg11
I2
sg12
I4
sS'N'
I100
sg13
F0.98999999999999999
sg14
g17
sg18
g19
sS'T'
I100
sg20
g6
(g8
S'433333\xe3?'
tRp326
sg22
g23
sg24
I13
sg25
I01
sg26
g27
sa(dp327
g3
F0.5
sg4
I1000
sg5
g313
sg10
F0
sg11
I2
sg12
I4
sS'N'
I100
sg13
F0.98999999999999999
sg14
g17
sg18
g19
sS'T'
I100
sg20
g6
(g8
S'gfffff\xe6?'
tRp328
sg22
g23
sg24
I13
sg25
I01
sg26
g27
sa(dp329
g3
F0.5
sg4
I1000
sg5
g313
sg10
F0
sg11
I2
sg12
I4
sS'N'
I100
sg13
F0.98999999999999999
sg14
g17
sg18
g19
sS'T'
I100
sg20
g6
(g8
S'\x9a\x99\x99\x99\x99\x99\xe9?'
tRp330
sg22
g23
sg24
I13
sg25
I01
sg26
g27
sa(dp331
g3
F0.5
sg4
I1000
sg5
g313
sg10
F0
sg11
I2
sg12
I4
sS'N'
I100
sg13
F0.98999999999999999
sg14
g17
sg18
g19
sS'T'
I100
sg20
g6
(g8
S'\xcd\xcc\xcc\xcc\xcc\xcc\xec?'
tRp332
sg22
g23
sg24
I13
sg25
I01
sg26
g27
sa(dp333
g3
F0.5
sg4
I1000
sg5
g313
sg10
F0
sg11
I2
sg12
I4
sS'N'
I100
sg13
F0.98999999999999999
sg14
g17
sg18
g19
sS'T'
I100
sg20
g6
(g8
S'\x1f\x85\xebQ\xb8\x1e\xed?'
tRp334
sg22
g23
sg24
I13
sg25
I01
sg26
g27
sa(dp335
g3
F0.5
sg4
I1000
sg5
g313
sg10
F0
sg11
I2
sg12
I4
sS'N'
I100
sg13
F0.98999999999999999
sg14
g17
sg18
g19
sS'T'
I100
sg20
g6
(g8
S'q=\n\xd7\xa3p\xed?'
tRp336
sg22
g23
sg24
I13
sg25
I01
sg26
g27
sa(dp337
g3
F0.5
sg4
I1000
sg5
g313
sg10
F0
sg11
I2
sg12
I4
sS'N'
I100
sg13
F0.98999999999999999
sg14
g17
sg18
g19
sS'T'
I100
sg20
g6
(g8
S'\xc3\xf5(\\\x8f\xc2\xed?'
tRp338
sg22
g23
sg24
I13
sg25
I01
sg26
g27
sa(dp339
g3
F0.5
sg4
I1000
sg5
g313
sg10
F0
sg11
I2
sg12
I4
sS'N'
I100
sg13
F0.98999999999999999
sg14
g17
sg18
g19
sS'T'
I100
sg20
g6
(g8
S'\x15\xaeG\xe1z\x14\xee?'
tRp340
sg22
g23
sg24
I13
sg25
I01
sg26
g27
sa(dp341
g3
F0.5
sg4
I1000
sg5
g313
sg10
F0
sg11
I2
sg12
I4
sS'N'
I100
sg13
F0.98999999999999999
sg14
g17
sg18
g19
sS'T'
I100
sg20
g6
(g8
S'gfffff\xee?'
tRp342
sg22
g23
sg24
I13
sg25
I01
sg26
g27
sa(dp343
g3
F0.5
sg4
I1000
sg5
g313
sg10
F0
sg11
I2
sg12
I4
sS'N'
I100
sg13
F0.98999999999999999
sg14
g17
sg18
g19
sS'T'
I100
sg20
g6
(g8
S'\xb9\x1e\x85\xebQ\xb8\xee?'
tRp344
sg22
g23
sg24
I13
sg25
I01
sg26
g27
sa(dp345
g3
F0.5
sg4
I1000
sg5
g313
sg10
F0
sg11
I2
sg12
I4
sS'N'
I100
sg13
F0.98999999999999999
sg14
g17
sg18
g19
sS'T'
I100
sg20
g6
(g8
S'\x0b\xd7\xa3p=\n\xef?'
tRp346
sg22
g23
sg24
I13
sg25
I01
sg26
g27
sa(dp347
g3
F0.5
sg4
I1000
sg5
g313
sg10
F0
sg11
I2
sg12
I4
sS'N'
I100
sg13
F0.98999999999999999
sg14
g17
sg18
g19
sS'T'
I100
sg20
g6
(g8
S']\x8f\xc2\xf5(\\\xef?'
tRp348
sg22
g23
sg24
I13
sg25
I01
sg26
g27
sa(dp349
g3
F0.5
sg4
I1000
sg5
g313
sg10
F0
sg11
I2
sg12
I4
sS'N'
I100
sg13
F0.98999999999999999
sg14
g17
sg18
g19
sS'T'
I100
sg20
g6
(g8
S'\xafG\xe1z\x14\xae\xef?'
tRp350
sg22
g23
sg24
I13
sg25
I01
sg26
g27
sa(dp351
g3
F0.5
sg4
I1000
sg5
g313
sg10
F0
sg11
I2
sg12
I4
sS'N'
I100
sg13
F0.98999999999999999
sg14
g17
sg18
g19
sS'T'
I100
sg20
g6
(g8
S'\x00\x00\x00\x00\x00\x00\xf0?'
tRp352
sg22
g23
sg24
I13
sg25
I01
sg26
g27
sa(dp353
g3
F0.5
sg4
I1000
sg5
g6
(g8
S';\xea\x90\xff\x11b\xa4?'
tRp354
sg10
F0
sg11
I2
sg12
I4
sS'N'
I100
sg13
F0.98999999999999999
sg14
g17
sg18
g19
sS'T'
I100
sg20
g6
(g8
S'\x00\x00\x00\x00\x00\x00\x00\x00'
tRp355
sg22
g23
sg24
I13
sg25
I01
sg26
g27
sa(dp356
g3
F0.5
sg4
I1000
sg5
g354
sg10
F0
sg11
I2
sg12
I4
sS'N'
I100
sg13
F0.98999999999999999
sg14
g17
sg18
g19
sS'T'
I100
sg20
g6
(g8
S'\x9a\x99\x99\x99\x99\x99\xb9?'
tRp357
sg22
g23
sg24
I13
sg25
I01
sg26
g27
sa(dp358
g3
F0.5
sg4
I1000
sg5
g354
sg10
F0
sg11
I2
sg12
I4
sS'N'
I100
sg13
F0.98999999999999999
sg14
g17
sg18
g19
sS'T'
I100
sg20
g6
(g8
S'\x9a\x99\x99\x99\x99\x99\xc9?'
tRp359
sg22
g23
sg24
I13
sg25
I01
sg26
g27
sa(dp360
g3
F0.5
sg4
I1000
sg5
g354
sg10
F0
sg11
I2
sg12
I4
sS'N'
I100
sg13
F0.98999999999999999
sg14
g17
sg18
g19
sS'T'
I100
sg20
g6
(g8
S'433333\xd3?'
tRp361
sg22
g23
sg24
I13
sg25
I01
sg26
g27
sa(dp362
g3
F0.5
sg4
I1000
sg5
g354
sg10
F0
sg11
I2
sg12
I4
sS'N'
I100
sg13
F0.98999999999999999
sg14
g17
sg18
g19
sS'T'
I100
sg20
g6
(g8
S'\x9a\x99\x99\x99\x99\x99\xd9?'
tRp363
sg22
g23
sg24
I13
sg25
I01
sg26
g27
sa(dp364
g3
F0.5
sg4
I1000
sg5
g354
sg10
F0
sg11
I2
sg12
I4
sS'N'
I100
sg13
F0.98999999999999999
sg14
g17
sg18
g19
sS'T'
I100
sg20
g6
(g8
S'\x00\x00\x00\x00\x00\x00\xe0?'
tRp365
sg22
g23
sg24
I13
sg25
I01
sg26
g27
sa(dp366
g3
F0.5
sg4
I1000
sg5
g354
sg10
F0
sg11
I2
sg12
I4
sS'N'
I100
sg13
F0.98999999999999999
sg14
g17
sg18
g19
sS'T'
I100
sg20
g6
(g8
S'433333\xe3?'
tRp367
sg22
g23
sg24
I13
sg25
I01
sg26
g27
sa(dp368
g3
F0.5
sg4
I1000
sg5
g354
sg10
F0
sg11
I2
sg12
I4
sS'N'
I100
sg13
F0.98999999999999999
sg14
g17
sg18
g19
sS'T'
I100
sg20
g6
(g8
S'gfffff\xe6?'
tRp369
sg22
g23
sg24
I13
sg25
I01
sg26
g27
sa(dp370
g3
F0.5
sg4
I1000
sg5
g354
sg10
F0
sg11
I2
sg12
I4
sS'N'
I100
sg13
F0.98999999999999999
sg14
g17
sg18
g19
sS'T'
I100
sg20
g6
(g8
S'\x9a\x99\x99\x99\x99\x99\xe9?'
tRp371
sg22
g23
sg24
I13
sg25
I01
sg26
g27
sa(dp372
g3
F0.5
sg4
I1000
sg5
g354
sg10
F0
sg11
I2
sg12
I4
sS'N'
I100
sg13
F0.98999999999999999
sg14
g17
sg18
g19
sS'T'
I100
sg20
g6
(g8
S'\xcd\xcc\xcc\xcc\xcc\xcc\xec?'
tRp373
sg22
g23
sg24
I13
sg25
I01
sg26
g27
sa(dp374
g3
F0.5
sg4
I1000
sg5
g354
sg10
F0
sg11
I2
sg12
I4
sS'N'
I100
sg13
F0.98999999999999999
sg14
g17
sg18
g19
sS'T'
I100
sg20
g6
(g8
S'\x1f\x85\xebQ\xb8\x1e\xed?'
tRp375
sg22
g23
sg24
I13
sg25
I01
sg26
g27
sa(dp376
g3
F0.5
sg4
I1000
sg5
g354
sg10
F0
sg11
I2
sg12
I4
sS'N'
I100
sg13
F0.98999999999999999
sg14
g17
sg18
g19
sS'T'
I100
sg20
g6
(g8
S'q=\n\xd7\xa3p\xed?'
tRp377
sg22
g23
sg24
I13
sg25
I01
sg26
g27
sa(dp378
g3
F0.5
sg4
I1000
sg5
g354
sg10
F0
sg11
I2
sg12
I4
sS'N'
I100
sg13
F0.98999999999999999
sg14
g17
sg18
g19
sS'T'
I100
sg20
g6
(g8
S'\xc3\xf5(\\\x8f\xc2\xed?'
tRp379
sg22
g23
sg24
I13
sg25
I01
sg26
g27
sa(dp380
g3
F0.5
sg4
I1000
sg5
g354
sg10
F0
sg11
I2
sg12
I4
sS'N'
I100
sg13
F0.98999999999999999
sg14
g17
sg18
g19
sS'T'
I100
sg20
g6
(g8
S'\x15\xaeG\xe1z\x14\xee?'
tRp381
sg22
g23
sg24
I13
sg25
I01
sg26
g27
sa(dp382
g3
F0.5
sg4
I1000
sg5
g354
sg10
F0
sg11
I2
sg12
I4
sS'N'
I100
sg13
F0.98999999999999999
sg14
g17
sg18
g19
sS'T'
I100
sg20
g6
(g8
S'gfffff\xee?'
tRp383
sg22
g23
sg24
I13
sg25
I01
sg26
g27
sa(dp384
g3
F0.5
sg4
I1000
sg5
g354
sg10
F0
sg11
I2
sg12
I4
sS'N'
I100
sg13
F0.98999999999999999
sg14
g17
sg18
g19
sS'T'
I100
sg20
g6
(g8
S'\xb9\x1e\x85\xebQ\xb8\xee?'
tRp385
sg22
g23
sg24
I13
sg25
I01
sg26
g27
sa(dp386
g3
F0.5
sg4
I1000
sg5
g354
sg10
F0
sg11
I2
sg12
I4
sS'N'
I100
sg13
F0.98999999999999999
sg14
g17
sg18
g19
sS'T'
I100
sg20
g6
(g8
S'\x0b\xd7\xa3p=\n\xef?'
tRp387
sg22
g23
sg24
I13
sg25
I01
sg26
g27
sa(dp388
g3
F0.5
sg4
I1000
sg5
g354
sg10
F0
sg11
I2
sg12
I4
sS'N'
I100
sg13
F0.98999999999999999
sg14
g17
sg18
g19
sS'T'
I100
sg20
g6
(g8
S']\x8f\xc2\xf5(\\\xef?'
tRp389
sg22
g23
sg24
I13
sg25
I01
sg26
g27
sa(dp390
g3
F0.5
sg4
I1000
sg5
g354
sg10
F0
sg11
I2
sg12
I4
sS'N'
I100
sg13
F0.98999999999999999
sg14
g17
sg18
g19
sS'T'
I100
sg20
g6
(g8
S'\xafG\xe1z\x14\xae\xef?'
tRp391
sg22
g23
sg24
I13
sg25
I01
sg26
g27
sa(dp392
g3
F0.5
sg4
I1000
sg5
g354
sg10
F0
sg11
I2
sg12
I4
sS'N'
I100
sg13
F0.98999999999999999
sg14
g17
sg18
g19
sS'T'
I100
sg20
g6
(g8
S'\x00\x00\x00\x00\x00\x00\xf0?'
tRp393
sg22
g23
sg24
I13
sg25
I01
sg26
g27
sa(dp394
g3
F0.5
sg4
I1000
sg5
g6
(g8
S"\n\xaa\xf8\xc3\n'\xb0?"
tRp395
sg10
F0
sg11
I2
sg12
I4
sS'N'
I100
sg13
F0.98999999999999999
sg14
g17
sg18
g19
sS'T'
I100
sg20
g6
(g8
S'\x00\x00\x00\x00\x00\x00\x00\x00'
tRp396
sg22
g23
sg24
I13
sg25
I01
sg26
g27
sa(dp397
g3
F0.5
sg4
I1000
sg5
g395
sg10
F0
sg11
I2
sg12
I4
sS'N'
I100
sg13
F0.98999999999999999
sg14
g17
sg18
g19
sS'T'
I100
sg20
g6
(g8
S'\x9a\x99\x99\x99\x99\x99\xb9?'
tRp398
sg22
g23
sg24
I13
sg25
I01
sg26
g27
sa(dp399
g3
F0.5
sg4
I1000
sg5
g395
sg10
F0
sg11
I2
sg12
I4
sS'N'
I100
sg13
F0.98999999999999999
sg14
g17
sg18
g19
sS'T'
I100
sg20
g6
(g8
S'\x9a\x99\x99\x99\x99\x99\xc9?'
tRp400
sg22
g23
sg24
I13
sg25
I01
sg26
g27
sa(dp401
g3
F0.5
sg4
I1000
sg5
g395
sg10
F0
sg11
I2
sg12
I4
sS'N'
I100
sg13
F0.98999999999999999
sg14
g17
sg18
g19
sS'T'
I100
sg20
g6
(g8
S'433333\xd3?'
tRp402
sg22
g23
sg24
I13
sg25
I01
sg26
g27
sa(dp403
g3
F0.5
sg4
I1000
sg5
g395
sg10
F0
sg11
I2
sg12
I4
sS'N'
I100
sg13
F0.98999999999999999
sg14
g17
sg18
g19
sS'T'
I100
sg20
g6
(g8
S'\x9a\x99\x99\x99\x99\x99\xd9?'
tRp404
sg22
g23
sg24
I13
sg25
I01
sg26
g27
sa(dp405
g3
F0.5
sg4
I1000
sg5
g395
sg10
F0
sg11
I2
sg12
I4
sS'N'
I100
sg13
F0.98999999999999999
sg14
g17
sg18
g19
sS'T'
I100
sg20
g6
(g8
S'\x00\x00\x00\x00\x00\x00\xe0?'
tRp406
sg22
g23
sg24
I13
sg25
I01
sg26
g27
sa(dp407
g3
F0.5
sg4
I1000
sg5
g395
sg10
F0
sg11
I2
sg12
I4
sS'N'
I100
sg13
F0.98999999999999999
sg14
g17
sg18
g19
sS'T'
I100
sg20
g6
(g8
S'433333\xe3?'
tRp408
sg22
g23
sg24
I13
sg25
I01
sg26
g27
sa(dp409
g3
F0.5
sg4
I1000
sg5
g395
sg10
F0
sg11
I2
sg12
I4
sS'N'
I100
sg13
F0.98999999999999999
sg14
g17
sg18
g19
sS'T'
I100
sg20
g6
(g8
S'gfffff\xe6?'
tRp410
sg22
g23
sg24
I13
sg25
I01
sg26
g27
sa(dp411
g3
F0.5
sg4
I1000
sg5
g395
sg10
F0
sg11
I2
sg12
I4
sS'N'
I100
sg13
F0.98999999999999999
sg14
g17
sg18
g19
sS'T'
I100
sg20
g6
(g8
S'\x9a\x99\x99\x99\x99\x99\xe9?'
tRp412
sg22
g23
sg24
I13
sg25
I01
sg26
g27
sa(dp413
g3
F0.5
sg4
I1000
sg5
g395
sg10
F0
sg11
I2
sg12
I4
sS'N'
I100
sg13
F0.98999999999999999
sg14
g17
sg18
g19
sS'T'
I100
sg20
g6
(g8
S'\xcd\xcc\xcc\xcc\xcc\xcc\xec?'
tRp414
sg22
g23
sg24
I13
sg25
I01
sg26
g27
sa(dp415
g3
F0.5
sg4
I1000
sg5
g395
sg10
F0
sg11
I2
sg12
I4
sS'N'
I100
sg13
F0.98999999999999999
sg14
g17
sg18
g19
sS'T'
I100
sg20
g6
(g8
S'\x1f\x85\xebQ\xb8\x1e\xed?'
tRp416
sg22
g23
sg24
I13
sg25
I01
sg26
g27
sa(dp417
g3
F0.5
sg4
I1000
sg5
g395
sg10
F0
sg11
I2
sg12
I4
sS'N'
I100
sg13
F0.98999999999999999
sg14
g17
sg18
g19
sS'T'
I100
sg20
g6
(g8
S'q=\n\xd7\xa3p\xed?'
tRp418
sg22
g23
sg24
I13
sg25
I01
sg26
g27
sa(dp419
g3
F0.5
sg4
I1000
sg5
g395
sg10
F0
sg11
I2
sg12
I4
sS'N'
I100
sg13
F0.98999999999999999
sg14
g17
sg18
g19
sS'T'
I100
sg20
g6
(g8
S'\xc3\xf5(\\\x8f\xc2\xed?'
tRp420
sg22
g23
sg24
I13
sg25
I01
sg26
g27
sa(dp421
g3
F0.5
sg4
I1000
sg5
g395
sg10
F0
sg11
I2
sg12
I4
sS'N'
I100
sg13
F0.98999999999999999
sg14
g17
sg18
g19
sS'T'
I100
sg20
g6
(g8
S'\x15\xaeG\xe1z\x14\xee?'
tRp422
sg22
g23
sg24
I13
sg25
I01
sg26
g27
sa(dp423
g3
F0.5
sg4
I1000
sg5
g395
sg10
F0
sg11
I2
sg12
I4
sS'N'
I100
sg13
F0.98999999999999999
sg14
g17
sg18
g19
sS'T'
I100
sg20
g6
(g8
S'gfffff\xee?'
tRp424
sg22
g23
sg24
I13
sg25
I01
sg26
g27
sa(dp425
g3
F0.5
sg4
I1000
sg5
g395
sg10
F0
sg11
I2
sg12
I4
sS'N'
I100
sg13
F0.98999999999999999
sg14
g17
sg18
g19
sS'T'
I100
sg20
g6
(g8
S'\xb9\x1e\x85\xebQ\xb8\xee?'
tRp426
sg22
g23
sg24
I13
sg25
I01
sg26
g27
sa(dp427
g3
F0.5
sg4
I1000
sg5
g395
sg10
F0
sg11
I2
sg12
I4
sS'N'
I100
sg13
F0.98999999999999999
sg14
g17
sg18
g19
sS'T'
I100
sg20
g6
(g8
S'\x0b\xd7\xa3p=\n\xef?'
tRp428
sg22
g23
sg24
I13
sg25
I01
sg26
g27
sa(dp429
g3
F0.5
sg4
I1000
sg5
g395
sg10
F0
sg11
I2
sg12
I4
sS'N'
I100
sg13
F0.98999999999999999
sg14
g17
sg18
g19
sS'T'
I100
sg20
g6
(g8
S']\x8f\xc2\xf5(\\\xef?'
tRp430
sg22
g23
sg24
I13
sg25
I01
sg26
g27
sa(dp431
g3
F0.5
sg4
I1000
sg5
g395
sg10
F0
sg11
I2
sg12
I4
sS'N'
I100
sg13
F0.98999999999999999
sg14
g17
sg18
g19
sS'T'
I100
sg20
g6
(g8
S'\xafG\xe1z\x14\xae\xef?'
tRp432
sg22
g23
sg24
I13
sg25
I01
sg26
g27
sa(dp433
g3
F0.5
sg4
I1000
sg5
g395
sg10
F0
sg11
I2
sg12
I4
sS'N'
I100
sg13
F0.98999999999999999
sg14
g17
sg18
g19
sS'T'
I100
sg20
g6
(g8
S'\x00\x00\x00\x00\x00\x00\xf0?'
tRp434
sg22
g23
sg24
I13
sg25
I01
sg26
g27
sa(dp435
g3
F0.5
sg4
I1000
sg5
g6
(g8
S'\xb7\x99\x99\x99\x99\x99\xb9?'
tRp436
sg10
F0
sg11
I2
sg12
I4
sS'N'
I100
sg13
F0.98999999999999999
sg14
g17
sg18
g19
sS'T'
I100
sg20
g6
(g8
S'\x00\x00\x00\x00\x00\x00\x00\x00'
tRp437
sg22
g23
sg24
I13
sg25
I01
sg26
g27
sa(dp438
g3
F0.5
sg4
I1000
sg5
g436
sg10
F0
sg11
I2
sg12
I4
sS'N'
I100
sg13
F0.98999999999999999
sg14
g17
sg18
g19
sS'T'
I100
sg20
g6
(g8
S'\x9a\x99\x99\x99\x99\x99\xb9?'
tRp439
sg22
g23
sg24
I13
sg25
I01
sg26
g27
sa(dp440
g3
F0.5
sg4
I1000
sg5
g436
sg10
F0
sg11
I2
sg12
I4
sS'N'
I100
sg13
F0.98999999999999999
sg14
g17
sg18
g19
sS'T'
I100
sg20
g6
(g8
S'\x9a\x99\x99\x99\x99\x99\xc9?'
tRp441
sg22
g23
sg24
I13
sg25
I01
sg26
g27
sa(dp442
g3
F0.5
sg4
I1000
sg5
g436
sg10
F0
sg11
I2
sg12
I4
sS'N'
I100
sg13
F0.98999999999999999
sg14
g17
sg18
g19
sS'T'
I100
sg20
g6
(g8
S'433333\xd3?'
tRp443
sg22
g23
sg24
I13
sg25
I01
sg26
g27
sa(dp444
g3
F0.5
sg4
I1000
sg5
g436
sg10
F0
sg11
I2
sg12
I4
sS'N'
I100
sg13
F0.98999999999999999
sg14
g17
sg18
g19
sS'T'
I100
sg20
g6
(g8
S'\x9a\x99\x99\x99\x99\x99\xd9?'
tRp445
sg22
g23
sg24
I13
sg25
I01
sg26
g27
sa(dp446
g3
F0.5
sg4
I1000
sg5
g436
sg10
F0
sg11
I2
sg12
I4
sS'N'
I100
sg13
F0.98999999999999999
sg14
g17
sg18
g19
sS'T'
I100
sg20
g6
(g8
S'\x00\x00\x00\x00\x00\x00\xe0?'
tRp447
sg22
g23
sg24
I13
sg25
I01
sg26
g27
sa(dp448
g3
F0.5
sg4
I1000
sg5
g436
sg10
F0
sg11
I2
sg12
I4
sS'N'
I100
sg13
F0.98999999999999999
sg14
g17
sg18
g19
sS'T'
I100
sg20
g6
(g8
S'433333\xe3?'
tRp449
sg22
g23
sg24
I13
sg25
I01
sg26
g27
sa(dp450
g3
F0.5
sg4
I1000
sg5
g436
sg10
F0
sg11
I2
sg12
I4
sS'N'
I100
sg13
F0.98999999999999999
sg14
g17
sg18
g19
sS'T'
I100
sg20
g6
(g8
S'gfffff\xe6?'
tRp451
sg22
g23
sg24
I13
sg25
I01
sg26
g27
sa(dp452
g3
F0.5
sg4
I1000
sg5
g436
sg10
F0
sg11
I2
sg12
I4
sS'N'
I100
sg13
F0.98999999999999999
sg14
g17
sg18
g19
sS'T'
I100
sg20
g6
(g8
S'\x9a\x99\x99\x99\x99\x99\xe9?'
tRp453
sg22
g23
sg24
I13
sg25
I01
sg26
g27
sa(dp454
g3
F0.5
sg4
I1000
sg5
g436
sg10
F0
sg11
I2
sg12
I4
sS'N'
I100
sg13
F0.98999999999999999
sg14
g17
sg18
g19
sS'T'
I100
sg20
g6
(g8
S'\xcd\xcc\xcc\xcc\xcc\xcc\xec?'
tRp455
sg22
g23
sg24
I13
sg25
I01
sg26
g27
sa(dp456
g3
F0.5
sg4
I1000
sg5
g436
sg10
F0
sg11
I2
sg12
I4
sS'N'
I100
sg13
F0.98999999999999999
sg14
g17
sg18
g19
sS'T'
I100
sg20
g6
(g8
S'\x1f\x85\xebQ\xb8\x1e\xed?'
tRp457
sg22
g23
sg24
I13
sg25
I01
sg26
g27
sa(dp458
g3
F0.5
sg4
I1000
sg5
g436
sg10
F0
sg11
I2
sg12
I4
sS'N'
I100
sg13
F0.98999999999999999
sg14
g17
sg18
g19
sS'T'
I100
sg20
g6
(g8
S'q=\n\xd7\xa3p\xed?'
tRp459
sg22
g23
sg24
I13
sg25
I01
sg26
g27
sa(dp460
g3
F0.5
sg4
I1000
sg5
g436
sg10
F0
sg11
I2
sg12
I4
sS'N'
I100
sg13
F0.98999999999999999
sg14
g17
sg18
g19
sS'T'
I100
sg20
g6
(g8
S'\xc3\xf5(\\\x8f\xc2\xed?'
tRp461
sg22
g23
sg24
I13
sg25
I01
sg26
g27
sa(dp462
g3
F0.5
sg4
I1000
sg5
g436
sg10
F0
sg11
I2
sg12
I4
sS'N'
I100
sg13
F0.98999999999999999
sg14
g17
sg18
g19
sS'T'
I100
sg20
g6
(g8
S'\x15\xaeG\xe1z\x14\xee?'
tRp463
sg22
g23
sg24
I13
sg25
I01
sg26
g27
sa(dp464
g3
F0.5
sg4
I1000
sg5
g436
sg10
F0
sg11
I2
sg12
I4
sS'N'
I100
sg13
F0.98999999999999999
sg14
g17
sg18
g19
sS'T'
I100
sg20
g6
(g8
S'gfffff\xee?'
tRp465
sg22
g23
sg24
I13
sg25
I01
sg26
g27
sa(dp466
g3
F0.5
sg4
I1000
sg5
g436
sg10
F0
sg11
I2
sg12
I4
sS'N'
I100
sg13
F0.98999999999999999
sg14
g17
sg18
g19
sS'T'
I100
sg20
g6
(g8
S'\xb9\x1e\x85\xebQ\xb8\xee?'
tRp467
sg22
g23
sg24
I13
sg25
I01
sg26
g27
sa(dp468
g3
F0.5
sg4
I1000
sg5
g436
sg10
F0
sg11
I2
sg12
I4
sS'N'
I100
sg13
F0.98999999999999999
sg14
g17
sg18
g19
sS'T'
I100
sg20
g6
(g8
S'\x0b\xd7\xa3p=\n\xef?'
tRp469
sg22
g23
sg24
I13
sg25
I01
sg26
g27
sa(dp470
g3
F0.5
sg4
I1000
sg5
g436
sg10
F0
sg11
I2
sg12
I4
sS'N'
I100
sg13
F0.98999999999999999
sg14
g17
sg18
g19
sS'T'
I100
sg20
g6
(g8
S']\x8f\xc2\xf5(\\\xef?'
tRp471
sg22
g23
sg24
I13
sg25
I01
sg26
g27
sa(dp472
g3
F0.5
sg4
I1000
sg5
g436
sg10
F0
sg11
I2
sg12
I4
sS'N'
I100
sg13
F0.98999999999999999
sg14
g17
sg18
g19
sS'T'
I100
sg20
g6
(g8
S'\xafG\xe1z\x14\xae\xef?'
tRp473
sg22
g23
sg24
I13
sg25
I01
sg26
g27
sa(dp474
g3
F0.5
sg4
I1000
sg5
g436
sg10
F0
sg11
I2
sg12
I4
sS'N'
I100
sg13
F0.98999999999999999
sg14
g17
sg18
g19
sS'T'
I100
sg20
g6
(g8
S'\x00\x00\x00\x00\x00\x00\xf0?'
tRp475
sg22
g23
sg24
I13
sg25
I01
sg26
g27
sa(dp476
g3
F0.5
sg4
I1000
sg5
g6
(g8
S'\x8f\xb3v\xc5`I\xc4?'
tRp477
sg10
F0
sg11
I2
sg12
I4
sS'N'
I100
sg13
F0.98999999999999999
sg14
g17
sg18
g19
sS'T'
I100
sg20
g6
(g8
S'\x00\x00\x00\x00\x00\x00\x00\x00'
tRp478
sg22
g23
sg24
I13
sg25
I01
sg26
g27
sa(dp479
g3
F0.5
sg4
I1000
sg5
g477
sg10
F0
sg11
I2
sg12
I4
sS'N'
I100
sg13
F0.98999999999999999
sg14
g17
sg18
g19
sS'T'
I100
sg20
g6
(g8
S'\x9a\x99\x99\x99\x99\x99\xb9?'
tRp480
sg22
g23
sg24
I13
sg25
I01
sg26
g27
sa(dp481
g3
F0.5
sg4
I1000
sg5
g477
sg10
F0
sg11
I2
sg12
I4
sS'N'
I100
sg13
F0.98999999999999999
sg14
g17
sg18
g19
sS'T'
I100
sg20
g6
(g8
S'\x9a\x99\x99\x99\x99\x99\xc9?'
tRp482
sg22
g23
sg24
I13
sg25
I01
sg26
g27
sa(dp483
g3
F0.5
sg4
I1000
sg5
g477
sg10
F0
sg11
I2
sg12
I4
sS'N'
I100
sg13
F0.98999999999999999
sg14
g17
sg18
g19
sS'T'
I100
sg20
g6
(g8
S'433333\xd3?'
tRp484
sg22
g23
sg24
I13
sg25
I01
sg26
g27
sa(dp485
g3
F0.5
sg4
I1000
sg5
g477
sg10
F0
sg11
I2
sg12
I4
sS'N'
I100
sg13
F0.98999999999999999
sg14
g17
sg18
g19
sS'T'
I100
sg20
g6
(g8
S'\x9a\x99\x99\x99\x99\x99\xd9?'
tRp486
sg22
g23
sg24
I13
sg25
I01
sg26
g27
sa(dp487
g3
F0.5
sg4
I1000
sg5
g477
sg10
F0
sg11
I2
sg12
I4
sS'N'
I100
sg13
F0.98999999999999999
sg14
g17
sg18
g19
sS'T'
I100
sg20
g6
(g8
S'\x00\x00\x00\x00\x00\x00\xe0?'
tRp488
sg22
g23
sg24
I13
sg25
I01
sg26
g27
sa(dp489
g3
F0.5
sg4
I1000
sg5
g477
sg10
F0
sg11
I2
sg12
I4
sS'N'
I100
sg13
F0.98999999999999999
sg14
g17
sg18
g19
sS'T'
I100
sg20
g6
(g8
S'433333\xe3?'
tRp490
sg22
g23
sg24
I13
sg25
I01
sg26
g27
sa(dp491
g3
F0.5
sg4
I1000
sg5
g477
sg10
F0
sg11
I2
sg12
I4
sS'N'
I100
sg13
F0.98999999999999999
sg14
g17
sg18
g19
sS'T'
I100
sg20
g6
(g8
S'gfffff\xe6?'
tRp492
sg22
g23
sg24
I13
sg25
I01
sg26
g27
sa(dp493
g3
F0.5
sg4
I1000
sg5
g477
sg10
F0
sg11
I2
sg12
I4
sS'N'
I100
sg13
F0.98999999999999999
sg14
g17
sg18
g19
sS'T'
I100
sg20
g6
(g8
S'\x9a\x99\x99\x99\x99\x99\xe9?'
tRp494
sg22
g23
sg24
I13
sg25
I01
sg26
g27
sa(dp495
g3
F0.5
sg4
I1000
sg5
g477
sg10
F0
sg11
I2
sg12
I4
sS'N'
I100
sg13
F0.98999999999999999
sg14
g17
sg18
g19
sS'T'
I100
sg20
g6
(g8
S'\xcd\xcc\xcc\xcc\xcc\xcc\xec?'
tRp496
sg22
g23
sg24
I13
sg25
I01
sg26
g27
sa(dp497
g3
F0.5
sg4
I1000
sg5
g477
sg10
F0
sg11
I2
sg12
I4
sS'N'
I100
sg13
F0.98999999999999999
sg14
g17
sg18
g19
sS'T'
I100
sg20
g6
(g8
S'\x1f\x85\xebQ\xb8\x1e\xed?'
tRp498
sg22
g23
sg24
I13
sg25
I01
sg26
g27
sa(dp499
g3
F0.5
sg4
I1000
sg5
g477
sg10
F0
sg11
I2
sg12
I4
sS'N'
I100
sg13
F0.98999999999999999
sg14
g17
sg18
g19
sS'T'
I100
sg20
g6
(g8
S'q=\n\xd7\xa3p\xed?'
tRp500
sg22
g23
sg24
I13
sg25
I01
sg26
g27
sa(dp501
g3
F0.5
sg4
I1000
sg5
g477
sg10
F0
sg11
I2
sg12
I4
sS'N'
I100
sg13
F0.98999999999999999
sg14
g17
sg18
g19
sS'T'
I100
sg20
g6
(g8
S'\xc3\xf5(\\\x8f\xc2\xed?'
tRp502
sg22
g23
sg24
I13
sg25
I01
sg26
g27
sa(dp503
g3
F0.5
sg4
I1000
sg5
g477
sg10
F0
sg11
I2
sg12
I4
sS'N'
I100
sg13
F0.98999999999999999
sg14
g17
sg18
g19
sS'T'
I100
sg20
g6
(g8
S'\x15\xaeG\xe1z\x14\xee?'
tRp504
sg22
g23
sg24
I13
sg25
I01
sg26
g27
sa(dp505
g3
F0.5
sg4
I1000
sg5
g477
sg10
F0
sg11
I2
sg12
I4
sS'N'
I100
sg13
F0.98999999999999999
sg14
g17
sg18
g19
sS'T'
I100
sg20
g6
(g8
S'gfffff\xee?'
tRp506
sg22
g23
sg24
I13
sg25
I01
sg26
g27
sa(dp507
g3
F0.5
sg4
I1000
sg5
g477
sg10
F0
sg11
I2
sg12
I4
sS'N'
I100
sg13
F0.98999999999999999
sg14
g17
sg18
g19
sS'T'
I100
sg20
g6
(g8
S'\xb9\x1e\x85\xebQ\xb8\xee?'
tRp508
sg22
g23
sg24
I13
sg25
I01
sg26
g27
sa(dp509
g3
F0.5
sg4
I1000
sg5
g477
sg10
F0
sg11
I2
sg12
I4
sS'N'
I100
sg13
F0.98999999999999999
sg14
g17
sg18
g19
sS'T'
I100
sg20
g6
(g8
S'\x0b\xd7\xa3p=\n\xef?'
tRp510
sg22
g23
sg24
I13
sg25
I01
sg26
g27
sa(dp511
g3
F0.5
sg4
I1000
sg5
g477
sg10
F0
sg11
I2
sg12
I4
sS'N'
I100
sg13
F0.98999999999999999
sg14
g17
sg18
g19
sS'T'
I100
sg20
g6
(g8
S']\x8f\xc2\xf5(\\\xef?'
tRp512
sg22
g23
sg24
I13
sg25
I01
sg26
g27
sa(dp513
g3
F0.5
sg4
I1000
sg5
g477
sg10
F0
sg11
I2
sg12
I4
sS'N'
I100
sg13
F0.98999999999999999
sg14
g17
sg18
g19
sS'T'
I100
sg20
g6
(g8
S'\xafG\xe1z\x14\xae\xef?'
tRp514
sg22
g23
sg24
I13
sg25
I01
sg26
g27
sa(dp515
g3
F0.5
sg4
I1000
sg5
g477
sg10
F0
sg11
I2
sg12
I4
sS'N'
I100
sg13
F0.98999999999999999
sg14
g17
sg18
g19
sS'T'
I100
sg20
g6
(g8
S'\x00\x00\x00\x00\x00\x00\xf0?'
tRp516
sg22
g23
sg24
I13
sg25
I01
sg26
g27
sa(dp517
g3
F0.5
sg4
I1000
sg5
g6
(g8
S'bp\xdd\x87y\x13\xd0?'
tRp518
sg10
F0
sg11
I2
sg12
I4
sS'N'
I100
sg13
F0.98999999999999999
sg14
g17
sg18
g19
sS'T'
I100
sg20
g6
(g8
S'\x00\x00\x00\x00\x00\x00\x00\x00'
tRp519
sg22
g23
sg24
I13
sg25
I01
sg26
g27
sa(dp520
g3
F0.5
sg4
I1000
sg5
g518
sg10
F0
sg11
I2
sg12
I4
sS'N'
I100
sg13
F0.98999999999999999
sg14
g17
sg18
g19
sS'T'
I100
sg20
g6
(g8
S'\x9a\x99\x99\x99\x99\x99\xb9?'
tRp521
sg22
g23
sg24
I13
sg25
I01
sg26
g27
sa(dp522
g3
F0.5
sg4
I1000
sg5
g518
sg10
F0
sg11
I2
sg12
I4
sS'N'
I100
sg13
F0.98999999999999999
sg14
g17
sg18
g19
sS'T'
I100
sg20
g6
(g8
S'\x9a\x99\x99\x99\x99\x99\xc9?'
tRp523
sg22
g23
sg24
I13
sg25
I01
sg26
g27
sa(dp524
g3
F0.5
sg4
I1000
sg5
g518
sg10
F0
sg11
I2
sg12
I4
sS'N'
I100
sg13
F0.98999999999999999
sg14
g17
sg18
g19
sS'T'
I100
sg20
g6
(g8
S'433333\xd3?'
tRp525
sg22
g23
sg24
I13
sg25
I01
sg26
g27
sa(dp526
g3
F0.5
sg4
I1000
sg5
g518
sg10
F0
sg11
I2
sg12
I4
sS'N'
I100
sg13
F0.98999999999999999
sg14
g17
sg18
g19
sS'T'
I100
sg20
g6
(g8
S'\x9a\x99\x99\x99\x99\x99\xd9?'
tRp527
sg22
g23
sg24
I13
sg25
I01
sg26
g27
sa(dp528
g3
F0.5
sg4
I1000
sg5
g518
sg10
F0
sg11
I2
sg12
I4
sS'N'
I100
sg13
F0.98999999999999999
sg14
g17
sg18
g19
sS'T'
I100
sg20
g6
(g8
S'\x00\x00\x00\x00\x00\x00\xe0?'
tRp529
sg22
g23
sg24
I13
sg25
I01
sg26
g27
sa(dp530
g3
F0.5
sg4
I1000
sg5
g518
sg10
F0
sg11
I2
sg12
I4
sS'N'
I100
sg13
F0.98999999999999999
sg14
g17
sg18
g19
sS'T'
I100
sg20
g6
(g8
S'433333\xe3?'
tRp531
sg22
g23
sg24
I13
sg25
I01
sg26
g27
sa(dp532
g3
F0.5
sg4
I1000
sg5
g518
sg10
F0
sg11
I2
sg12
I4
sS'N'
I100
sg13
F0.98999999999999999
sg14
g17
sg18
g19
sS'T'
I100
sg20
g6
(g8
S'gfffff\xe6?'
tRp533
sg22
g23
sg24
I13
sg25
I01
sg26
g27
sa(dp534
g3
F0.5
sg4
I1000
sg5
g518
sg10
F0
sg11
I2
sg12
I4
sS'N'
I100
sg13
F0.98999999999999999
sg14
g17
sg18
g19
sS'T'
I100
sg20
g6
(g8
S'\x9a\x99\x99\x99\x99\x99\xe9?'
tRp535
sg22
g23
sg24
I13
sg25
I01
sg26
g27
sa(dp536
g3
F0.5
sg4
I1000
sg5
g518
sg10
F0
sg11
I2
sg12
I4
sS'N'
I100
sg13
F0.98999999999999999
sg14
g17
sg18
g19
sS'T'
I100
sg20
g6
(g8
S'\xcd\xcc\xcc\xcc\xcc\xcc\xec?'
tRp537
sg22
g23
sg24
I13
sg25
I01
sg26
g27
sa(dp538
g3
F0.5
sg4
I1000
sg5
g518
sg10
F0
sg11
I2
sg12
I4
sS'N'
I100
sg13
F0.98999999999999999
sg14
g17
sg18
g19
sS'T'
I100
sg20
g6
(g8
S'\x1f\x85\xebQ\xb8\x1e\xed?'
tRp539
sg22
g23
sg24
I13
sg25
I01
sg26
g27
sa(dp540
g3
F0.5
sg4
I1000
sg5
g518
sg10
F0
sg11
I2
sg12
I4
sS'N'
I100
sg13
F0.98999999999999999
sg14
g17
sg18
g19
sS'T'
I100
sg20
g6
(g8
S'q=\n\xd7\xa3p\xed?'
tRp541
sg22
g23
sg24
I13
sg25
I01
sg26
g27
sa(dp542
g3
F0.5
sg4
I1000
sg5
g518
sg10
F0
sg11
I2
sg12
I4
sS'N'
I100
sg13
F0.98999999999999999
sg14
g17
sg18
g19
sS'T'
I100
sg20
g6
(g8
S'\xc3\xf5(\\\x8f\xc2\xed?'
tRp543
sg22
g23
sg24
I13
sg25
I01
sg26
g27
sa(dp544
g3
F0.5
sg4
I1000
sg5
g518
sg10
F0
sg11
I2
sg12
I4
sS'N'
I100
sg13
F0.98999999999999999
sg14
g17
sg18
g19
sS'T'
I100
sg20
g6
(g8
S'\x15\xaeG\xe1z\x14\xee?'
tRp545
sg22
g23
sg24
I13
sg25
I01
sg26
g27
sa(dp546
g3
F0.5
sg4
I1000
sg5
g518
sg10
F0
sg11
I2
sg12
I4
sS'N'
I100
sg13
F0.98999999999999999
sg14
g17
sg18
g19
sS'T'
I100
sg20
g6
(g8
S'gfffff\xee?'
tRp547
sg22
g23
sg24
I13
sg25
I01
sg26
g27
sa(dp548
g3
F0.5
sg4
I1000
sg5
g518
sg10
F0
sg11
I2
sg12
I4
sS'N'
I100
sg13
F0.98999999999999999
sg14
g17
sg18
g19
sS'T'
I100
sg20
g6
(g8
S'\xb9\x1e\x85\xebQ\xb8\xee?'
tRp549
sg22
g23
sg24
I13
sg25
I01
sg26
g27
sa(dp550
g3
F0.5
sg4
I1000
sg5
g518
sg10
F0
sg11
I2
sg12
I4
sS'N'
I100
sg13
F0.98999999999999999
sg14
g17
sg18
g19
sS'T'
I100
sg20
g6
(g8
S'\x0b\xd7\xa3p=\n\xef?'
tRp551
sg22
g23
sg24
I13
sg25
I01
sg26
g27
sa(dp552
g3
F0.5
sg4
I1000
sg5
g518
sg10
F0
sg11
I2
sg12
I4
sS'N'
I100
sg13
F0.98999999999999999
sg14
g17
sg18
g19
sS'T'
I100
sg20
g6
(g8
S']\x8f\xc2\xf5(\\\xef?'
tRp553
sg22
g23
sg24
I13
sg25
I01
sg26
g27
sa(dp554
g3
F0.5
sg4
I1000
sg5
g518
sg10
F0
sg11
I2
sg12
I4
sS'N'
I100
sg13
F0.98999999999999999
sg14
g17
sg18
g19
sS'T'
I100
sg20
g6
(g8
S'\xafG\xe1z\x14\xae\xef?'
tRp555
sg22
g23
sg24
I13
sg25
I01
sg26
g27
sa(dp556
g3
F0.5
sg4
I1000
sg5
g518
sg10
F0
sg11
I2
sg12
I4
sS'N'
I100
sg13
F0.98999999999999999
sg14
g17
sg18
g19
sS'T'
I100
sg20
g6
(g8
S'\x00\x00\x00\x00\x00\x00\xf0?'
tRp557
sg22
g23
sg24
I13
sg25
I01
sg26
g27
sa(dp558
g3
F0.5
sg4
I1000
sg5
g6
(g8
S'\xd9$u\x7f\x96z\xd9?'
tRp559
sg10
F0
sg11
I2
sg12
I4
sS'N'
I100
sg13
F0.98999999999999999
sg14
g17
sg18
g19
sS'T'
I100
sg20
g6
(g8
S'\x00\x00\x00\x00\x00\x00\x00\x00'
tRp560
sg22
g23
sg24
I13
sg25
I01
sg26
g27
sa(dp561
g3
F0.5
sg4
I1000
sg5
g559
sg10
F0
sg11
I2
sg12
I4
sS'N'
I100
sg13
F0.98999999999999999
sg14
g17
sg18
g19
sS'T'
I100
sg20
g6
(g8
S'\x9a\x99\x99\x99\x99\x99\xb9?'
tRp562
sg22
g23
sg24
I13
sg25
I01
sg26
g27
sa(dp563
g3
F0.5
sg4
I1000
sg5
g559
sg10
F0
sg11
I2
sg12
I4
sS'N'
I100
sg13
F0.98999999999999999
sg14
g17
sg18
g19
sS'T'
I100
sg20
g6
(g8
S'\x9a\x99\x99\x99\x99\x99\xc9?'
tRp564
sg22
g23
sg24
I13
sg25
I01
sg26
g27
sa(dp565
g3
F0.5
sg4
I1000
sg5
g559
sg10
F0
sg11
I2
sg12
I4
sS'N'
I100
sg13
F0.98999999999999999
sg14
g17
sg18
g19
sS'T'
I100
sg20
g6
(g8
S'433333\xd3?'
tRp566
sg22
g23
sg24
I13
sg25
I01
sg26
g27
sa(dp567
g3
F0.5
sg4
I1000
sg5
g559
sg10
F0
sg11
I2
sg12
I4
sS'N'
I100
sg13
F0.98999999999999999
sg14
g17
sg18
g19
sS'T'
I100
sg20
g6
(g8
S'\x9a\x99\x99\x99\x99\x99\xd9?'
tRp568
sg22
g23
sg24
I13
sg25
I01
sg26
g27
sa(dp569
g3
F0.5
sg4
I1000
sg5
g559
sg10
F0
sg11
I2
sg12
I4
sS'N'
I100
sg13
F0.98999999999999999
sg14
g17
sg18
g19
sS'T'
I100
sg20
g6
(g8
S'\x00\x00\x00\x00\x00\x00\xe0?'
tRp570
sg22
g23
sg24
I13
sg25
I01
sg26
g27
sa(dp571
g3
F0.5
sg4
I1000
sg5
g559
sg10
F0
sg11
I2
sg12
I4
sS'N'
I100
sg13
F0.98999999999999999
sg14
g17
sg18
g19
sS'T'
I100
sg20
g6
(g8
S'433333\xe3?'
tRp572
sg22
g23
sg24
I13
sg25
I01
sg26
g27
sa(dp573
g3
F0.5
sg4
I1000
sg5
g559
sg10
F0
sg11
I2
sg12
I4
sS'N'
I100
sg13
F0.98999999999999999
sg14
g17
sg18
g19
sS'T'
I100
sg20
g6
(g8
S'gfffff\xe6?'
tRp574
sg22
g23
sg24
I13
sg25
I01
sg26
g27
sa(dp575
g3
F0.5
sg4
I1000
sg5
g559
sg10
F0
sg11
I2
sg12
I4
sS'N'
I100
sg13
F0.98999999999999999
sg14
g17
sg18
g19
sS'T'
I100
sg20
g6
(g8
S'\x9a\x99\x99\x99\x99\x99\xe9?'
tRp576
sg22
g23
sg24
I13
sg25
I01
sg26
g27
sa(dp577
g3
F0.5
sg4
I1000
sg5
g559
sg10
F0
sg11
I2
sg12
I4
sS'N'
I100
sg13
F0.98999999999999999
sg14
g17
sg18
g19
sS'T'
I100
sg20
g6
(g8
S'\xcd\xcc\xcc\xcc\xcc\xcc\xec?'
tRp578
sg22
g23
sg24
I13
sg25
I01
sg26
g27
sa(dp579
g3
F0.5
sg4
I1000
sg5
g559
sg10
F0
sg11
I2
sg12
I4
sS'N'
I100
sg13
F0.98999999999999999
sg14
g17
sg18
g19
sS'T'
I100
sg20
g6
(g8
S'\x1f\x85\xebQ\xb8\x1e\xed?'
tRp580
sg22
g23
sg24
I13
sg25
I01
sg26
g27
sa(dp581
g3
F0.5
sg4
I1000
sg5
g559
sg10
F0
sg11
I2
sg12
I4
sS'N'
I100
sg13
F0.98999999999999999
sg14
g17
sg18
g19
sS'T'
I100
sg20
g6
(g8
S'q=\n\xd7\xa3p\xed?'
tRp582
sg22
g23
sg24
I13
sg25
I01
sg26
g27
sa(dp583
g3
F0.5
sg4
I1000
sg5
g559
sg10
F0
sg11
I2
sg12
I4
sS'N'
I100
sg13
F0.98999999999999999
sg14
g17
sg18
g19
sS'T'
I100
sg20
g6
(g8
S'\xc3\xf5(\\\x8f\xc2\xed?'
tRp584
sg22
g23
sg24
I13
sg25
I01
sg26
g27
sa(dp585
g3
F0.5
sg4
I1000
sg5
g559
sg10
F0
sg11
I2
sg12
I4
sS'N'
I100
sg13
F0.98999999999999999
sg14
g17
sg18
g19
sS'T'
I100
sg20
g6
(g8
S'\x15\xaeG\xe1z\x14\xee?'
tRp586
sg22
g23
sg24
I13
sg25
I01
sg26
g27
sa(dp587
g3
F0.5
sg4
I1000
sg5
g559
sg10
F0
sg11
I2
sg12
I4
sS'N'
I100
sg13
F0.98999999999999999
sg14
g17
sg18
g19
sS'T'
I100
sg20
g6
(g8
S'gfffff\xee?'
tRp588
sg22
g23
sg24
I13
sg25
I01
sg26
g27
sa(dp589
g3
F0.5
sg4
I1000
sg5
g559
sg10
F0
sg11
I2
sg12
I4
sS'N'
I100
sg13
F0.98999999999999999
sg14
g17
sg18
g19
sS'T'
I100
sg20
g6
(g8
S'\xb9\x1e\x85\xebQ\xb8\xee?'
tRp590
sg22
g23
sg24
I13
sg25
I01
sg26
g27
sa(dp591
g3
F0.5
sg4
I1000
sg5
g559
sg10
F0
sg11
I2
sg12
I4
sS'N'
I100
sg13
F0.98999999999999999
sg14
g17
sg18
g19
sS'T'
I100
sg20
g6
(g8
S'\x0b\xd7\xa3p=\n\xef?'
tRp592
sg22
g23
sg24
I13
sg25
I01
sg26
g27
sa(dp593
g3
F0.5
sg4
I1000
sg5
g559
sg10
F0
sg11
I2
sg12
I4
sS'N'
I100
sg13
F0.98999999999999999
sg14
g17
sg18
g19
sS'T'
I100
sg20
g6
(g8
S']\x8f\xc2\xf5(\\\xef?'
tRp594
sg22
g23
sg24
I13
sg25
I01
sg26
g27
sa(dp595
g3
F0.5
sg4
I1000
sg5
g559
sg10
F0
sg11
I2
sg12
I4
sS'N'
I100
sg13
F0.98999999999999999
sg14
g17
sg18
g19
sS'T'
I100
sg20
g6
(g8
S'\xafG\xe1z\x14\xae\xef?'
tRp596
sg22
g23
sg24
I13
sg25
I01
sg26
g27
sa(dp597
g3
F0.5
sg4
I1000
sg5
g559
sg10
F0
sg11
I2
sg12
I4
sS'N'
I100
sg13
F0.98999999999999999
sg14
g17
sg18
g19
sS'T'
I100
sg20
g6
(g8
S'\x00\x00\x00\x00\x00\x00\xf0?'
tRp598
sg22
g23
sg24
I13
sg25
I01
sg26
g27
sa(dp599
g3
F0.5
sg4
I1000
sg5
g6
(g8
S'\x99\xd4\xf6t\xcd0\xe4?'
tRp600
sg10
F0
sg11
I2
sg12
I4
sS'N'
I100
sg13
F0.98999999999999999
sg14
g17
sg18
g19
sS'T'
I100
sg20
g6
(g8
S'\x00\x00\x00\x00\x00\x00\x00\x00'
tRp601
sg22
g23
sg24
I13
sg25
I01
sg26
g27
sa(dp602
g3
F0.5
sg4
I1000
sg5
g600
sg10
F0
sg11
I2
sg12
I4
sS'N'
I100
sg13
F0.98999999999999999
sg14
g17
sg18
g19
sS'T'
I100
sg20
g6
(g8
S'\x9a\x99\x99\x99\x99\x99\xb9?'
tRp603
sg22
g23
sg24
I13
sg25
I01
sg26
g27
sa(dp604
g3
F0.5
sg4
I1000
sg5
g600
sg10
F0
sg11
I2
sg12
I4
sS'N'
I100
sg13
F0.98999999999999999
sg14
g17
sg18
g19
sS'T'
I100
sg20
g6
(g8
S'\x9a\x99\x99\x99\x99\x99\xc9?'
tRp605
sg22
g23
sg24
I13
sg25
I01
sg26
g27
sa(dp606
g3
F0.5
sg4
I1000
sg5
g600
sg10
F0
sg11
I2
sg12
I4
sS'N'
I100
sg13
F0.98999999999999999
sg14
g17
sg18
g19
sS'T'
I100
sg20
g6
(g8
S'433333\xd3?'
tRp607
sg22
g23
sg24
I13
sg25
I01
sg26
g27
sa(dp608
g3
F0.5
sg4
I1000
sg5
g600
sg10
F0
sg11
I2
sg12
I4
sS'N'
I100
sg13
F0.98999999999999999
sg14
g17
sg18
g19
sS'T'
I100
sg20
g6
(g8
S'\x9a\x99\x99\x99\x99\x99\xd9?'
tRp609
sg22
g23
sg24
I13
sg25
I01
sg26
g27
sa(dp610
g3
F0.5
sg4
I1000
sg5
g600
sg10
F0
sg11
I2
sg12
I4
sS'N'
I100
sg13
F0.98999999999999999
sg14
g17
sg18
g19
sS'T'
I100
sg20
g6
(g8
S'\x00\x00\x00\x00\x00\x00\xe0?'
tRp611
sg22
g23
sg24
I13
sg25
I01
sg26
g27
sa(dp612
g3
F0.5
sg4
I1000
sg5
g600
sg10
F0
sg11
I2
sg12
I4
sS'N'
I100
sg13
F0.98999999999999999
sg14
g17
sg18
g19
sS'T'
I100
sg20
g6
(g8
S'433333\xe3?'
tRp613
sg22
g23
sg24
I13
sg25
I01
sg26
g27
sa(dp614
g3
F0.5
sg4
I1000
sg5
g600
sg10
F0
sg11
I2
sg12
I4
sS'N'
I100
sg13
F0.98999999999999999
sg14
g17
sg18
g19
sS'T'
I100
sg20
g6
(g8
S'gfffff\xe6?'
tRp615
sg22
g23
sg24
I13
sg25
I01
sg26
g27
sa(dp616
g3
F0.5
sg4
I1000
sg5
g600
sg10
F0
sg11
I2
sg12
I4
sS'N'
I100
sg13
F0.98999999999999999
sg14
g17
sg18
g19
sS'T'
I100
sg20
g6
(g8
S'\x9a\x99\x99\x99\x99\x99\xe9?'
tRp617
sg22
g23
sg24
I13
sg25
I01
sg26
g27
sa(dp618
g3
F0.5
sg4
I1000
sg5
g600
sg10
F0
sg11
I2
sg12
I4
sS'N'
I100
sg13
F0.98999999999999999
sg14
g17
sg18
g19
sS'T'
I100
sg20
g6
(g8
S'\xcd\xcc\xcc\xcc\xcc\xcc\xec?'
tRp619
sg22
g23
sg24
I13
sg25
I01
sg26
g27
sa(dp620
g3
F0.5
sg4
I1000
sg5
g600
sg10
F0
sg11
I2
sg12
I4
sS'N'
I100
sg13
F0.98999999999999999
sg14
g17
sg18
g19
sS'T'
I100
sg20
g6
(g8
S'\x1f\x85\xebQ\xb8\x1e\xed?'
tRp621
sg22
g23
sg24
I13
sg25
I01
sg26
g27
sa(dp622
g3
F0.5
sg4
I1000
sg5
g600
sg10
F0
sg11
I2
sg12
I4
sS'N'
I100
sg13
F0.98999999999999999
sg14
g17
sg18
g19
sS'T'
I100
sg20
g6
(g8
S'q=\n\xd7\xa3p\xed?'
tRp623
sg22
g23
sg24
I13
sg25
I01
sg26
g27
sa(dp624
g3
F0.5
sg4
I1000
sg5
g600
sg10
F0
sg11
I2
sg12
I4
sS'N'
I100
sg13
F0.98999999999999999
sg14
g17
sg18
g19
sS'T'
I100
sg20
g6
(g8
S'\xc3\xf5(\\\x8f\xc2\xed?'
tRp625
sg22
g23
sg24
I13
sg25
I01
sg26
g27
sa(dp626
g3
F0.5
sg4
I1000
sg5
g600
sg10
F0
sg11
I2
sg12
I4
sS'N'
I100
sg13
F0.98999999999999999
sg14
g17
sg18
g19
sS'T'
I100
sg20
g6
(g8
S'\x15\xaeG\xe1z\x14\xee?'
tRp627
sg22
g23
sg24
I13
sg25
I01
sg26
g27
sa(dp628
g3
F0.5
sg4
I1000
sg5
g600
sg10
F0
sg11
I2
sg12
I4
sS'N'
I100
sg13
F0.98999999999999999
sg14
g17
sg18
g19
sS'T'
I100
sg20
g6
(g8
S'gfffff\xee?'
tRp629
sg22
g23
sg24
I13
sg25
I01
sg26
g27
sa(dp630
g3
F0.5
sg4
I1000
sg5
g600
sg10
F0
sg11
I2
sg12
I4
sS'N'
I100
sg13
F0.98999999999999999
sg14
g17
sg18
g19
sS'T'
I100
sg20
g6
(g8
S'\xb9\x1e\x85\xebQ\xb8\xee?'
tRp631
sg22
g23
sg24
I13
sg25
I01
sg26
g27
sa(dp632
g3
F0.5
sg4
I1000
sg5
g600
sg10
F0
sg11
I2
sg12
I4
sS'N'
I100
sg13
F0.98999999999999999
sg14
g17
sg18
g19
sS'T'
I100
sg20
g6
(g8
S'\x0b\xd7\xa3p=\n\xef?'
tRp633
sg22
g23
sg24
I13
sg25
I01
sg26
g27
sa(dp634
g3
F0.5
sg4
I1000
sg5
g600
sg10
F0
sg11
I2
sg12
I4
sS'N'
I100
sg13
F0.98999999999999999
sg14
g17
sg18
g19
sS'T'
I100
sg20
g6
(g8
S']\x8f\xc2\xf5(\\\xef?'
tRp635
sg22
g23
sg24
I13
sg25
I01
sg26
g27
sa(dp636
g3
F0.5
sg4
I1000
sg5
g600
sg10
F0
sg11
I2
sg12
I4
sS'N'
I100
sg13
F0.98999999999999999
sg14
g17
sg18
g19
sS'T'
I100
sg20
g6
(g8
S'\xafG\xe1z\x14\xae\xef?'
tRp637
sg22
g23
sg24
I13
sg25
I01
sg26
g27
sa(dp638
g3
F0.5
sg4
I1000
sg5
g600
sg10
F0
sg11
I2
sg12
I4
sS'N'
I100
sg13
F0.98999999999999999
sg14
g17
sg18
g19
sS'T'
I100
sg20
g6
(g8
S'\x00\x00\x00\x00\x00\x00\xf0?'
tRp639
sg22
g23
sg24
I13
sg25
I01
sg26
g27
sa(dp640
g3
F0.5
sg4
I1000
sg5
g6
(g8
S'\x1c\x00\x00\x00\x00\x00\xf0?'
tRp641
sg10
F0
sg11
I2
sg12
I4
sS'N'
I100
sg13
F0.98999999999999999
sg14
g17
sg18
g19
sS'T'
I100
sg20
g6
(g8
S'\x00\x00\x00\x00\x00\x00\x00\x00'
tRp642
sg22
g23
sg24
I13
sg25
I01
sg26
g27
sa(dp643
g3
F0.5
sg4
I1000
sg5
g641
sg10
F0
sg11
I2
sg12
I4
sS'N'
I100
sg13
F0.98999999999999999
sg14
g17
sg18
g19
sS'T'
I100
sg20
g6
(g8
S'\x9a\x99\x99\x99\x99\x99\xb9?'
tRp644
sg22
g23
sg24
I13
sg25
I01
sg26
g27
sa(dp645
g3
F0.5
sg4
I1000
sg5
g641
sg10
F0
sg11
I2
sg12
I4
sS'N'
I100
sg13
F0.98999999999999999
sg14
g17
sg18
g19
sS'T'
I100
sg20
g6
(g8
S'\x9a\x99\x99\x99\x99\x99\xc9?'
tRp646
sg22
g23
sg24
I13
sg25
I01
sg26
g27
sa(dp647
g3
F0.5
sg4
I1000
sg5
g641
sg10
F0
sg11
I2
sg12
I4
sS'N'
I100
sg13
F0.98999999999999999
sg14
g17
sg18
g19
sS'T'
I100
sg20
g6
(g8
S'433333\xd3?'
tRp648
sg22
g23
sg24
I13
sg25
I01
sg26
g27
sa(dp649
g3
F0.5
sg4
I1000
sg5
g641
sg10
F0
sg11
I2
sg12
I4
sS'N'
I100
sg13
F0.98999999999999999
sg14
g17
sg18
g19
sS'T'
I100
sg20
g6
(g8
S'\x9a\x99\x99\x99\x99\x99\xd9?'
tRp650
sg22
g23
sg24
I13
sg25
I01
sg26
g27
sa(dp651
g3
F0.5
sg4
I1000
sg5
g641
sg10
F0
sg11
I2
sg12
I4
sS'N'
I100
sg13
F0.98999999999999999
sg14
g17
sg18
g19
sS'T'
I100
sg20
g6
(g8
S'\x00\x00\x00\x00\x00\x00\xe0?'
tRp652
sg22
g23
sg24
I13
sg25
I01
sg26
g27
sa(dp653
g3
F0.5
sg4
I1000
sg5
g641
sg10
F0
sg11
I2
sg12
I4
sS'N'
I100
sg13
F0.98999999999999999
sg14
g17
sg18
g19
sS'T'
I100
sg20
g6
(g8
S'433333\xe3?'
tRp654
sg22
g23
sg24
I13
sg25
I01
sg26
g27
sa(dp655
g3
F0.5
sg4
I1000
sg5
g641
sg10
F0
sg11
I2
sg12
I4
sS'N'
I100
sg13
F0.98999999999999999
sg14
g17
sg18
g19
sS'T'
I100
sg20
g6
(g8
S'gfffff\xe6?'
tRp656
sg22
g23
sg24
I13
sg25
I01
sg26
g27
sa(dp657
g3
F0.5
sg4
I1000
sg5
g641
sg10
F0
sg11
I2
sg12
I4
sS'N'
I100
sg13
F0.98999999999999999
sg14
g17
sg18
g19
sS'T'
I100
sg20
g6
(g8
S'\x9a\x99\x99\x99\x99\x99\xe9?'
tRp658
sg22
g23
sg24
I13
sg25
I01
sg26
g27
sa(dp659
g3
F0.5
sg4
I1000
sg5
g641
sg10
F0
sg11
I2
sg12
I4
sS'N'
I100
sg13
F0.98999999999999999
sg14
g17
sg18
g19
sS'T'
I100
sg20
g6
(g8
S'\xcd\xcc\xcc\xcc\xcc\xcc\xec?'
tRp660
sg22
g23
sg24
I13
sg25
I01
sg26
g27
sa(dp661
g3
F0.5
sg4
I1000
sg5
g641
sg10
F0
sg11
I2
sg12
I4
sS'N'
I100
sg13
F0.98999999999999999
sg14
g17
sg18
g19
sS'T'
I100
sg20
g6
(g8
S'\x1f\x85\xebQ\xb8\x1e\xed?'
tRp662
sg22
g23
sg24
I13
sg25
I01
sg26
g27
sa(dp663
g3
F0.5
sg4
I1000
sg5
g641
sg10
F0
sg11
I2
sg12
I4
sS'N'
I100
sg13
F0.98999999999999999
sg14
g17
sg18
g19
sS'T'
I100
sg20
g6
(g8
S'q=\n\xd7\xa3p\xed?'
tRp664
sg22
g23
sg24
I13
sg25
I01
sg26
g27
sa(dp665
g3
F0.5
sg4
I1000
sg5
g641
sg10
F0
sg11
I2
sg12
I4
sS'N'
I100
sg13
F0.98999999999999999
sg14
g17
sg18
g19
sS'T'
I100
sg20
g6
(g8
S'\xc3\xf5(\\\x8f\xc2\xed?'
tRp666
sg22
g23
sg24
I13
sg25
I01
sg26
g27
sa(dp667
g3
F0.5
sg4
I1000
sg5
g641
sg10
F0
sg11
I2
sg12
I4
sS'N'
I100
sg13
F0.98999999999999999
sg14
g17
sg18
g19
sS'T'
I100
sg20
g6
(g8
S'\x15\xaeG\xe1z\x14\xee?'
tRp668
sg22
g23
sg24
I13
sg25
I01
sg26
g27
sa(dp669
g3
F0.5
sg4
I1000
sg5
g641
sg10
F0
sg11
I2
sg12
I4
sS'N'
I100
sg13
F0.98999999999999999
sg14
g17
sg18
g19
sS'T'
I100
sg20
g6
(g8
S'gfffff\xee?'
tRp670
sg22
g23
sg24
I13
sg25
I01
sg26
g27
sa(dp671
g3
F0.5
sg4
I1000
sg5
g641
sg10
F0
sg11
I2
sg12
I4
sS'N'
I100
sg13
F0.98999999999999999
sg14
g17
sg18
g19
sS'T'
I100
sg20
g6
(g8
S'\xb9\x1e\x85\xebQ\xb8\xee?'
tRp672
sg22
g23
sg24
I13
sg25
I01
sg26
g27
sa(dp673
g3
F0.5
sg4
I1000
sg5
g641
sg10
F0
sg11
I2
sg12
I4
sS'N'
I100
sg13
F0.98999999999999999
sg14
g17
sg18
g19
sS'T'
I100
sg20
g6
(g8
S'\x0b\xd7\xa3p=\n\xef?'
tRp674
sg22
g23
sg24
I13
sg25
I01
sg26
g27
sa(dp675
g3
F0.5
sg4
I1000
sg5
g641
sg10
F0
sg11
I2
sg12
I4
sS'N'
I100
sg13
F0.98999999999999999
sg14
g17
sg18
g19
sS'T'
I100
sg20
g6
(g8
S']\x8f\xc2\xf5(\\\xef?'
tRp676
sg22
g23
sg24
I13
sg25
I01
sg26
g27
sa(dp677
g3
F0.5
sg4
I1000
sg5
g641
sg10
F0
sg11
I2
sg12
I4
sS'N'
I100
sg13
F0.98999999999999999
sg14
g17
sg18
g19
sS'T'
I100
sg20
g6
(g8
S'\xafG\xe1z\x14\xae\xef?'
tRp678
sg22
g23
sg24
I13
sg25
I01
sg26
g27
sa(dp679
g3
F0.5
sg4
I1000
sg5
g641
sg10
F0
sg11
I2
sg12
I4
sS'N'
I100
sg13
F0.98999999999999999
sg14
g17
sg18
g19
sS'T'
I100
sg20
g6
(g8
S'\x00\x00\x00\x00\x00\x00\xf0?'
tRp680
sg22
g23
sg24
I13
sg25
I01
sg26
g27
sa(dp681
g3
F0.5
sg4
I1000
sg5
g6
(g8
S'\x81`\xd4\xf6\xb8[\xf9?'
tRp682
sg10
F0
sg11
I2
sg12
I4
sS'N'
I100
sg13
F0.98999999999999999
sg14
g17
sg18
g19
sS'T'
I100
sg20
g6
(g8
S'\x00\x00\x00\x00\x00\x00\x00\x00'
tRp683
sg22
g23
sg24
I13
sg25
I01
sg26
g27
sa(dp684
g3
F0.5
sg4
I1000
sg5
g682
sg10
F0
sg11
I2
sg12
I4
sS'N'
I100
sg13
F0.98999999999999999
sg14
g17
sg18
g19
sS'T'
I100
sg20
g6
(g8
S'\x9a\x99\x99\x99\x99\x99\xb9?'
tRp685
sg22
g23
sg24
I13
sg25
I01
sg26
g27
sa(dp686
g3
F0.5
sg4
I1000
sg5
g682
sg10
F0
sg11
I2
sg12
I4
sS'N'
I100
sg13
F0.98999999999999999
sg14
g17
sg18
g19
sS'T'
I100
sg20
g6
(g8
S'\x9a\x99\x99\x99\x99\x99\xc9?'
tRp687
sg22
g23
sg24
I13
sg25
I01
sg26
g27
sa(dp688
g3
F0.5
sg4
I1000
sg5
g682
sg10
F0
sg11
I2
sg12
I4
sS'N'
I100
sg13
F0.98999999999999999
sg14
g17
sg18
g19
sS'T'
I100
sg20
g6
(g8
S'433333\xd3?'
tRp689
sg22
g23
sg24
I13
sg25
I01
sg26
g27
sa(dp690
g3
F0.5
sg4
I1000
sg5
g682
sg10
F0
sg11
I2
sg12
I4
sS'N'
I100
sg13
F0.98999999999999999
sg14
g17
sg18
g19
sS'T'
I100
sg20
g6
(g8
S'\x9a\x99\x99\x99\x99\x99\xd9?'
tRp691
sg22
g23
sg24
I13
sg25
I01
sg26
g27
sa(dp692
g3
F0.5
sg4
I1000
sg5
g682
sg10
F0
sg11
I2
sg12
I4
sS'N'
I100
sg13
F0.98999999999999999
sg14
g17
sg18
g19
sS'T'
I100
sg20
g6
(g8
S'\x00\x00\x00\x00\x00\x00\xe0?'
tRp693
sg22
g23
sg24
I13
sg25
I01
sg26
g27
sa(dp694
g3
F0.5
sg4
I1000
sg5
g682
sg10
F0
sg11
I2
sg12
I4
sS'N'
I100
sg13
F0.98999999999999999
sg14
g17
sg18
g19
sS'T'
I100
sg20
g6
(g8
S'433333\xe3?'
tRp695
sg22
g23
sg24
I13
sg25
I01
sg26
g27
sa(dp696
g3
F0.5
sg4
I1000
sg5
g682
sg10
F0
sg11
I2
sg12
I4
sS'N'
I100
sg13
F0.98999999999999999
sg14
g17
sg18
g19
sS'T'
I100
sg20
g6
(g8
S'gfffff\xe6?'
tRp697
sg22
g23
sg24
I13
sg25
I01
sg26
g27
sa(dp698
g3
F0.5
sg4
I1000
sg5
g682
sg10
F0
sg11
I2
sg12
I4
sS'N'
I100
sg13
F0.98999999999999999
sg14
g17
sg18
g19
sS'T'
I100
sg20
g6
(g8
S'\x9a\x99\x99\x99\x99\x99\xe9?'
tRp699
sg22
g23
sg24
I13
sg25
I01
sg26
g27
sa(dp700
g3
F0.5
sg4
I1000
sg5
g682
sg10
F0
sg11
I2
sg12
I4
sS'N'
I100
sg13
F0.98999999999999999
sg14
g17
sg18
g19
sS'T'
I100
sg20
g6
(g8
S'\xcd\xcc\xcc\xcc\xcc\xcc\xec?'
tRp701
sg22
g23
sg24
I13
sg25
I01
sg26
g27
sa(dp702
g3
F0.5
sg4
I1000
sg5
g682
sg10
F0
sg11
I2
sg12
I4
sS'N'
I100
sg13
F0.98999999999999999
sg14
g17
sg18
g19
sS'T'
I100
sg20
g6
(g8
S'\x1f\x85\xebQ\xb8\x1e\xed?'
tRp703
sg22
g23
sg24
I13
sg25
I01
sg26
g27
sa(dp704
g3
F0.5
sg4
I1000
sg5
g682
sg10
F0
sg11
I2
sg12
I4
sS'N'
I100
sg13
F0.98999999999999999
sg14
g17
sg18
g19
sS'T'
I100
sg20
g6
(g8
S'q=\n\xd7\xa3p\xed?'
tRp705
sg22
g23
sg24
I13
sg25
I01
sg26
g27
sa(dp706
g3
F0.5
sg4
I1000
sg5
g682
sg10
F0
sg11
I2
sg12
I4
sS'N'
I100
sg13
F0.98999999999999999
sg14
g17
sg18
g19
sS'T'
I100
sg20
g6
(g8
S'\xc3\xf5(\\\x8f\xc2\xed?'
tRp707
sg22
g23
sg24
I13
sg25
I01
sg26
g27
sa(dp708
g3
F0.5
sg4
I1000
sg5
g682
sg10
F0
sg11
I2
sg12
I4
sS'N'
I100
sg13
F0.98999999999999999
sg14
g17
sg18
g19
sS'T'
I100
sg20
g6
(g8
S'\x15\xaeG\xe1z\x14\xee?'
tRp709
sg22
g23
sg24
I13
sg25
I01
sg26
g27
sa(dp710
g3
F0.5
sg4
I1000
sg5
g682
sg10
F0
sg11
I2
sg12
I4
sS'N'
I100
sg13
F0.98999999999999999
sg14
g17
sg18
g19
sS'T'
I100
sg20
g6
(g8
S'gfffff\xee?'
tRp711
sg22
g23
sg24
I13
sg25
I01
sg26
g27
sa(dp712
g3
F0.5
sg4
I1000
sg5
g682
sg10
F0
sg11
I2
sg12
I4
sS'N'
I100
sg13
F0.98999999999999999
sg14
g17
sg18
g19
sS'T'
I100
sg20
g6
(g8
S'\xb9\x1e\x85\xebQ\xb8\xee?'
tRp713
sg22
g23
sg24
I13
sg25
I01
sg26
g27
sa(dp714
g3
F0.5
sg4
I1000
sg5
g682
sg10
F0
sg11
I2
sg12
I4
sS'N'
I100
sg13
F0.98999999999999999
sg14
g17
sg18
g19
sS'T'
I100
sg20
g6
(g8
S'\x0b\xd7\xa3p=\n\xef?'
tRp715
sg22
g23
sg24
I13
sg25
I01
sg26
g27
sa(dp716
g3
F0.5
sg4
I1000
sg5
g682
sg10
F0
sg11
I2
sg12
I4
sS'N'
I100
sg13
F0.98999999999999999
sg14
g17
sg18
g19
sS'T'
I100
sg20
g6
(g8
S']\x8f\xc2\xf5(\\\xef?'
tRp717
sg22
g23
sg24
I13
sg25
I01
sg26
g27
sa(dp718
g3
F0.5
sg4
I1000
sg5
g682
sg10
F0
sg11
I2
sg12
I4
sS'N'
I100
sg13
F0.98999999999999999
sg14
g17
sg18
g19
sS'T'
I100
sg20
g6
(g8
S'\xafG\xe1z\x14\xae\xef?'
tRp719
sg22
g23
sg24
I13
sg25
I01
sg26
g27
sa(dp720
g3
F0.5
sg4
I1000
sg5
g682
sg10
F0
sg11
I2
sg12
I4
sS'N'
I100
sg13
F0.98999999999999999
sg14
g17
sg18
g19
sS'T'
I100
sg20
g6
(g8
S'\x00\x00\x00\x00\x00\x00\xf0?'
tRp721
sg22
g23
sg24
I13
sg25
I01
sg26
g27
sa(dp722
g3
F0.5
sg4
I1000
sg5
g6
(g8
S'\x86\xcc\xd4\xe9W\x18\x04@'
tRp723
sg10
F0
sg11
I2
sg12
I4
sS'N'
I100
sg13
F0.98999999999999999
sg14
g17
sg18
g19
sS'T'
I100
sg20
g6
(g8
S'\x00\x00\x00\x00\x00\x00\x00\x00'
tRp724
sg22
g23
sg24
I13
sg25
I01
sg26
g27
sa(dp725
g3
F0.5
sg4
I1000
sg5
g723
sg10
F0
sg11
I2
sg12
I4
sS'N'
I100
sg13
F0.98999999999999999
sg14
g17
sg18
g19
sS'T'
I100
sg20
g6
(g8
S'\x9a\x99\x99\x99\x99\x99\xb9?'
tRp726
sg22
g23
sg24
I13
sg25
I01
sg26
g27
sa(dp727
g3
F0.5
sg4
I1000
sg5
g723
sg10
F0
sg11
I2
sg12
I4
sS'N'
I100
sg13
F0.98999999999999999
sg14
g17
sg18
g19
sS'T'
I100
sg20
g6
(g8
S'\x9a\x99\x99\x99\x99\x99\xc9?'
tRp728
sg22
g23
sg24
I13
sg25
I01
sg26
g27
sa(dp729
g3
F0.5
sg4
I1000
sg5
g723
sg10
F0
sg11
I2
sg12
I4
sS'N'
I100
sg13
F0.98999999999999999
sg14
g17
sg18
g19
sS'T'
I100
sg20
g6
(g8
S'433333\xd3?'
tRp730
sg22
g23
sg24
I13
sg25
I01
sg26
g27
sa(dp731
g3
F0.5
sg4
I1000
sg5
g723
sg10
F0
sg11
I2
sg12
I4
sS'N'
I100
sg13
F0.98999999999999999
sg14
g17
sg18
g19
sS'T'
I100
sg20
g6
(g8
S'\x9a\x99\x99\x99\x99\x99\xd9?'
tRp732
sg22
g23
sg24
I13
sg25
I01
sg26
g27
sa(dp733
g3
F0.5
sg4
I1000
sg5
g723
sg10
F0
sg11
I2
sg12
I4
sS'N'
I100
sg13
F0.98999999999999999
sg14
g17
sg18
g19
sS'T'
I100
sg20
g6
(g8
S'\x00\x00\x00\x00\x00\x00\xe0?'
tRp734
sg22
g23
sg24
I13
sg25
I01
sg26
g27
sa(dp735
g3
F0.5
sg4
I1000
sg5
g723
sg10
F0
sg11
I2
sg12
I4
sS'N'
I100
sg13
F0.98999999999999999
sg14
g17
sg18
g19
sS'T'
I100
sg20
g6
(g8
S'433333\xe3?'
tRp736
sg22
g23
sg24
I13
sg25
I01
sg26
g27
sa(dp737
g3
F0.5
sg4
I1000
sg5
g723
sg10
F0
sg11
I2
sg12
I4
sS'N'
I100
sg13
F0.98999999999999999
sg14
g17
sg18
g19
sS'T'
I100
sg20
g6
(g8
S'gfffff\xe6?'
tRp738
sg22
g23
sg24
I13
sg25
I01
sg26
g27
sa(dp739
g3
F0.5
sg4
I1000
sg5
g723
sg10
F0
sg11
I2
sg12
I4
sS'N'
I100
sg13
F0.98999999999999999
sg14
g17
sg18
g19
sS'T'
I100
sg20
g6
(g8
S'\x9a\x99\x99\x99\x99\x99\xe9?'
tRp740
sg22
g23
sg24
I13
sg25
I01
sg26
g27
sa(dp741
g3
F0.5
sg4
I1000
sg5
g723
sg10
F0
sg11
I2
sg12
I4
sS'N'
I100
sg13
F0.98999999999999999
sg14
g17
sg18
g19
sS'T'
I100
sg20
g6
(g8
S'\xcd\xcc\xcc\xcc\xcc\xcc\xec?'
tRp742
sg22
g23
sg24
I13
sg25
I01
sg26
g27
sa(dp743
g3
F0.5
sg4
I1000
sg5
g723
sg10
F0
sg11
I2
sg12
I4
sS'N'
I100
sg13
F0.98999999999999999
sg14
g17
sg18
g19
sS'T'
I100
sg20
g6
(g8
S'\x1f\x85\xebQ\xb8\x1e\xed?'
tRp744
sg22
g23
sg24
I13
sg25
I01
sg26
g27
sa(dp745
g3
F0.5
sg4
I1000
sg5
g723
sg10
F0
sg11
I2
sg12
I4
sS'N'
I100
sg13
F0.98999999999999999
sg14
g17
sg18
g19
sS'T'
I100
sg20
g6
(g8
S'q=\n\xd7\xa3p\xed?'
tRp746
sg22
g23
sg24
I13
sg25
I01
sg26
g27
sa(dp747
g3
F0.5
sg4
I1000
sg5
g723
sg10
F0
sg11
I2
sg12
I4
sS'N'
I100
sg13
F0.98999999999999999
sg14
g17
sg18
g19
sS'T'
I100
sg20
g6
(g8
S'\xc3\xf5(\\\x8f\xc2\xed?'
tRp748
sg22
g23
sg24
I13
sg25
I01
sg26
g27
sa(dp749
g3
F0.5
sg4
I1000
sg5
g723
sg10
F0
sg11
I2
sg12
I4
sS'N'
I100
sg13
F0.98999999999999999
sg14
g17
sg18
g19
sS'T'
I100
sg20
g6
(g8
S'\x15\xaeG\xe1z\x14\xee?'
tRp750
sg22
g23
sg24
I13
sg25
I01
sg26
g27
sa(dp751
g3
F0.5
sg4
I1000
sg5
g723
sg10
F0
sg11
I2
sg12
I4
sS'N'
I100
sg13
F0.98999999999999999
sg14
g17
sg18
g19
sS'T'
I100
sg20
g6
(g8
S'gfffff\xee?'
tRp752
sg22
g23
sg24
I13
sg25
I01
sg26
g27
sa(dp753
g3
F0.5
sg4
I1000
sg5
g723
sg10
F0
sg11
I2
sg12
I4
sS'N'
I100
sg13
F0.98999999999999999
sg14
g17
sg18
g19
sS'T'
I100
sg20
g6
(g8
S'\xb9\x1e\x85\xebQ\xb8\xee?'
tRp754
sg22
g23
sg24
I13
sg25
I01
sg26
g27
sa(dp755
g3
F0.5
sg4
I1000
sg5
g723
sg10
F0
sg11
I2
sg12
I4
sS'N'
I100
sg13
F0.98999999999999999
sg14
g17
sg18
g19
sS'T'
I100
sg20
g6
(g8
S'\x0b\xd7\xa3p=\n\xef?'
tRp756
sg22
g23
sg24
I13
sg25
I01
sg26
g27
sa(dp757
g3
F0.5
sg4
I1000
sg5
g723
sg10
F0
sg11
I2
sg12
I4
sS'N'
I100
sg13
F0.98999999999999999
sg14
g17
sg18
g19
sS'T'
I100
sg20
g6
(g8
S']\x8f\xc2\xf5(\\\xef?'
tRp758
sg22
g23
sg24
I13
sg25
I01
sg26
g27
sa(dp759
g3
F0.5
sg4
I1000
sg5
g723
sg10
F0
sg11
I2
sg12
I4
sS'N'
I100
sg13
F0.98999999999999999
sg14
g17
sg18
g19
sS'T'
I100
sg20
g6
(g8
S'\xafG\xe1z\x14\xae\xef?'
tRp760
sg22
g23
sg24
I13
sg25
I01
sg26
g27
sa(dp761
g3
F0.5
sg4
I1000
sg5
g723
sg10
F0
sg11
I2
sg12
I4
sS'N'
I100
sg13
F0.98999999999999999
sg14
g17
sg18
g19
sS'T'
I100
sg20
g6
(g8
S'\x00\x00\x00\x00\x00\x00\xf0?'
tRp762
sg22
g23
sg24
I13
sg25
I01
sg26
g27
sa(dp763
g3
F0.5
sg4
I1000
sg5
g6
(g8
S'"nR\x1f<\xd9\x0f@'
tRp764
sg10
F0
sg11
I2
sg12
I4
sS'N'
I100
sg13
F0.98999999999999999
sg14
g17
sg18
g19
sS'T'
I100
sg20
g6
(g8
S'\x00\x00\x00\x00\x00\x00\x00\x00'
tRp765
sg22
g23
sg24
I13
sg25
I01
sg26
g27
sa(dp766
g3
F0.5
sg4
I1000
sg5
g764
sg10
F0
sg11
I2
sg12
I4
sS'N'
I100
sg13
F0.98999999999999999
sg14
g17
sg18
g19
sS'T'
I100
sg20
g6
(g8
S'\x9a\x99\x99\x99\x99\x99\xb9?'
tRp767
sg22
g23
sg24
I13
sg25
I01
sg26
g27
sa(dp768
g3
F0.5
sg4
I1000
sg5
g764
sg10
F0
sg11
I2
sg12
I4
sS'N'
I100
sg13
F0.98999999999999999
sg14
g17
sg18
g19
sS'T'
I100
sg20
g6
(g8
S'\x9a\x99\x99\x99\x99\x99\xc9?'
tRp769
sg22
g23
sg24
I13
sg25
I01
sg26
g27
sa(dp770
g3
F0.5
sg4
I1000
sg5
g764
sg10
F0
sg11
I2
sg12
I4
sS'N'
I100
sg13
F0.98999999999999999
sg14
g17
sg18
g19
sS'T'
I100
sg20
g6
(g8
S'433333\xd3?'
tRp771
sg22
g23
sg24
I13
sg25
I01
sg26
g27
sa(dp772
g3
F0.5
sg4
I1000
sg5
g764
sg10
F0
sg11
I2
sg12
I4
sS'N'
I100
sg13
F0.98999999999999999
sg14
g17
sg18
g19
sS'T'
I100
sg20
g6
(g8
S'\x9a\x99\x99\x99\x99\x99\xd9?'
tRp773
sg22
g23
sg24
I13
sg25
I01
sg26
g27
sa(dp774
g3
F0.5
sg4
I1000
sg5
g764
sg10
F0
sg11
I2
sg12
I4
sS'N'
I100
sg13
F0.98999999999999999
sg14
g17
sg18
g19
sS'T'
I100
sg20
g6
(g8
S'\x00\x00\x00\x00\x00\x00\xe0?'
tRp775
sg22
g23
sg24
I13
sg25
I01
sg26
g27
sa(dp776
g3
F0.5
sg4
I1000
sg5
g764
sg10
F0
sg11
I2
sg12
I4
sS'N'
I100
sg13
F0.98999999999999999
sg14
g17
sg18
g19
sS'T'
I100
sg20
g6
(g8
S'433333\xe3?'
tRp777
sg22
g23
sg24
I13
sg25
I01
sg26
g27
sa(dp778
g3
F0.5
sg4
I1000
sg5
g764
sg10
F0
sg11
I2
sg12
I4
sS'N'
I100
sg13
F0.98999999999999999
sg14
g17
sg18
g19
sS'T'
I100
sg20
g6
(g8
S'gfffff\xe6?'
tRp779
sg22
g23
sg24
I13
sg25
I01
sg26
g27
sa(dp780
g3
F0.5
sg4
I1000
sg5
g764
sg10
F0
sg11
I2
sg12
I4
sS'N'
I100
sg13
F0.98999999999999999
sg14
g17
sg18
g19
sS'T'
I100
sg20
g6
(g8
S'\x9a\x99\x99\x99\x99\x99\xe9?'
tRp781
sg22
g23
sg24
I13
sg25
I01
sg26
g27
sa(dp782
g3
F0.5
sg4
I1000
sg5
g764
sg10
F0
sg11
I2
sg12
I4
sS'N'
I100
sg13
F0.98999999999999999
sg14
g17
sg18
g19
sS'T'
I100
sg20
g6
(g8
S'\xcd\xcc\xcc\xcc\xcc\xcc\xec?'
tRp783
sg22
g23
sg24
I13
sg25
I01
sg26
g27
sa(dp784
g3
F0.5
sg4
I1000
sg5
g764
sg10
F0
sg11
I2
sg12
I4
sS'N'
I100
sg13
F0.98999999999999999
sg14
g17
sg18
g19
sS'T'
I100
sg20
g6
(g8
S'\x1f\x85\xebQ\xb8\x1e\xed?'
tRp785
sg22
g23
sg24
I13
sg25
I01
sg26
g27
sa(dp786
g3
F0.5
sg4
I1000
sg5
g764
sg10
F0
sg11
I2
sg12
I4
sS'N'
I100
sg13
F0.98999999999999999
sg14
g17
sg18
g19
sS'T'
I100
sg20
g6
(g8
S'q=\n\xd7\xa3p\xed?'
tRp787
sg22
g23
sg24
I13
sg25
I01
sg26
g27
sa(dp788
g3
F0.5
sg4
I1000
sg5
g764
sg10
F0
sg11
I2
sg12
I4
sS'N'
I100
sg13
F0.98999999999999999
sg14
g17
sg18
g19
sS'T'
I100
sg20
g6
(g8
S'\xc3\xf5(\\\x8f\xc2\xed?'
tRp789
sg22
g23
sg24
I13
sg25
I01
sg26
g27
sa(dp790
g3
F0.5
sg4
I1000
sg5
g764
sg10
F0
sg11
I2
sg12
I4
sS'N'
I100
sg13
F0.98999999999999999
sg14
g17
sg18
g19
sS'T'
I100
sg20
g6
(g8
S'\x15\xaeG\xe1z\x14\xee?'
tRp791
sg22
g23
sg24
I13
sg25
I01
sg26
g27
sa(dp792
g3
F0.5
sg4
I1000
sg5
g764
sg10
F0
sg11
I2
sg12
I4
sS'N'
I100
sg13
F0.98999999999999999
sg14
g17
sg18
g19
sS'T'
I100
sg20
g6
(g8
S'gfffff\xee?'
tRp793
sg22
g23
sg24
I13
sg25
I01
sg26
g27
sa(dp794
g3
F0.5
sg4
I1000
sg5
g764
sg10
F0
sg11
I2
sg12
I4
sS'N'
I100
sg13
F0.98999999999999999
sg14
g17
sg18
g19
sS'T'
I100
sg20
g6
(g8
S'\xb9\x1e\x85\xebQ\xb8\xee?'
tRp795
sg22
g23
sg24
I13
sg25
I01
sg26
g27
sa(dp796
g3
F0.5
sg4
I1000
sg5
g764
sg10
F0
sg11
I2
sg12
I4
sS'N'
I100
sg13
F0.98999999999999999
sg14
g17
sg18
g19
sS'T'
I100
sg20
g6
(g8
S'\x0b\xd7\xa3p=\n\xef?'
tRp797
sg22
g23
sg24
I13
sg25
I01
sg26
g27
sa(dp798
g3
F0.5
sg4
I1000
sg5
g764
sg10
F0
sg11
I2
sg12
I4
sS'N'
I100
sg13
F0.98999999999999999
sg14
g17
sg18
g19
sS'T'
I100
sg20
g6
(g8
S']\x8f\xc2\xf5(\\\xef?'
tRp799
sg22
g23
sg24
I13
sg25
I01
sg26
g27
sa(dp800
g3
F0.5
sg4
I1000
sg5
g764
sg10
F0
sg11
I2
sg12
I4
sS'N'
I100
sg13
F0.98999999999999999
sg14
g17
sg18
g19
sS'T'
I100
sg20
g6
(g8
S'\xafG\xe1z\x14\xae\xef?'
tRp801
sg22
g23
sg24
I13
sg25
I01
sg26
g27
sa(dp802
g3
F0.5
sg4
I1000
sg5
g764
sg10
F0
sg11
I2
sg12
I4
sS'N'
I100
sg13
F0.98999999999999999
sg14
g17
sg18
g19
sS'T'
I100
sg20
g6
(g8
S'\x00\x00\x00\x00\x00\x00\xf0?'
tRp803
sg22
g23
sg24
I13
sg25
I01
sg26
g27
sa(dp804
g3
F0.5
sg4
I1000
sg5
g6
(g8
S'\xcd\x894\xd2\x00=\x19@'
tRp805
sg10
F0
sg11
I2
sg12
I4
sS'N'
I100
sg13
F0.98999999999999999
sg14
g17
sg18
g19
sS'T'
I100
sg20
g6
(g8
S'\x00\x00\x00\x00\x00\x00\x00\x00'
tRp806
sg22
g23
sg24
I13
sg25
I01
sg26
g27
sa(dp807
g3
F0.5
sg4
I1000
sg5
g805
sg10
F0
sg11
I2
sg12
I4
sS'N'
I100
sg13
F0.98999999999999999
sg14
g17
sg18
g19
sS'T'
I100
sg20
g6
(g8
S'\x9a\x99\x99\x99\x99\x99\xb9?'
tRp808
sg22
g23
sg24
I13
sg25
I01
sg26
g27
sa(dp809
g3
F0.5
sg4
I1000
sg5
g805
sg10
F0
sg11
I2
sg12
I4
sS'N'
I100
sg13
F0.98999999999999999
sg14
g17
sg18
g19
sS'T'
I100
sg20
g6
(g8
S'\x9a\x99\x99\x99\x99\x99\xc9?'
tRp810
sg22
g23
sg24
I13
sg25
I01
sg26
g27
sa(dp811
g3
F0.5
sg4
I1000
sg5
g805
sg10
F0
sg11
I2
sg12
I4
sS'N'
I100
sg13
F0.98999999999999999
sg14
g17
sg18
g19
sS'T'
I100
sg20
g6
(g8
S'433333\xd3?'
tRp812
sg22
g23
sg24
I13
sg25
I01
sg26
g27
sa(dp813
g3
F0.5
sg4
I1000
sg5
g805
sg10
F0
sg11
I2
sg12
I4
sS'N'
I100
sg13
F0.98999999999999999
sg14
g17
sg18
g19
sS'T'
I100
sg20
g6
(g8
S'\x9a\x99\x99\x99\x99\x99\xd9?'
tRp814
sg22
g23
sg24
I13
sg25
I01
sg26
g27
sa(dp815
g3
F0.5
sg4
I1000
sg5
g805
sg10
F0
sg11
I2
sg12
I4
sS'N'
I100
sg13
F0.98999999999999999
sg14
g17
sg18
g19
sS'T'
I100
sg20
g6
(g8
S'\x00\x00\x00\x00\x00\x00\xe0?'
tRp816
sg22
g23
sg24
I13
sg25
I01
sg26
g27
sa(dp817
g3
F0.5
sg4
I1000
sg5
g805
sg10
F0
sg11
I2
sg12
I4
sS'N'
I100
sg13
F0.98999999999999999
sg14
g17
sg18
g19
sS'T'
I100
sg20
g6
(g8
S'433333\xe3?'
tRp818
sg22
g23
sg24
I13
sg25
I01
sg26
g27
sa(dp819
g3
F0.5
sg4
I1000
sg5
g805
sg10
F0
sg11
I2
sg12
I4
sS'N'
I100
sg13
F0.98999999999999999
sg14
g17
sg18
g19
sS'T'
I100
sg20
g6
(g8
S'gfffff\xe6?'
tRp820
sg22
g23
sg24
I13
sg25
I01
sg26
g27
sa(dp821
g3
F0.5
sg4
I1000
sg5
g805
sg10
F0
sg11
I2
sg12
I4
sS'N'
I100
sg13
F0.98999999999999999
sg14
g17
sg18
g19
sS'T'
I100
sg20
g6
(g8
S'\x9a\x99\x99\x99\x99\x99\xe9?'
tRp822
sg22
g23
sg24
I13
sg25
I01
sg26
g27
sa(dp823
g3
F0.5
sg4
I1000
sg5
g805
sg10
F0
sg11
I2
sg12
I4
sS'N'
I100
sg13
F0.98999999999999999
sg14
g17
sg18
g19
sS'T'
I100
sg20
g6
(g8
S'\xcd\xcc\xcc\xcc\xcc\xcc\xec?'
tRp824
sg22
g23
sg24
I13
sg25
I01
sg26
g27
sa(dp825
g3
F0.5
sg4
I1000
sg5
g805
sg10
F0
sg11
I2
sg12
I4
sS'N'
I100
sg13
F0.98999999999999999
sg14
g17
sg18
g19
sS'T'
I100
sg20
g6
(g8
S'\x1f\x85\xebQ\xb8\x1e\xed?'
tRp826
sg22
g23
sg24
I13
sg25
I01
sg26
g27
sa(dp827
g3
F0.5
sg4
I1000
sg5
g805
sg10
F0
sg11
I2
sg12
I4
sS'N'
I100
sg13
F0.98999999999999999
sg14
g17
sg18
g19
sS'T'
I100
sg20
g6
(g8
S'q=\n\xd7\xa3p\xed?'
tRp828
sg22
g23
sg24
I13
sg25
I01
sg26
g27
sa(dp829
g3
F0.5
sg4
I1000
sg5
g805
sg10
F0
sg11
I2
sg12
I4
sS'N'
I100
sg13
F0.98999999999999999
sg14
g17
sg18
g19
sS'T'
I100
sg20
g6
(g8
S'\xc3\xf5(\\\x8f\xc2\xed?'
tRp830
sg22
g23
sg24
I13
sg25
I01
sg26
g27
sa(dp831
g3
F0.5
sg4
I1000
sg5
g805
sg10
F0
sg11
I2
sg12
I4
sS'N'
I100
sg13
F0.98999999999999999
sg14
g17
sg18
g19
sS'T'
I100
sg20
g6
(g8
S'\x15\xaeG\xe1z\x14\xee?'
tRp832
sg22
g23
sg24
I13
sg25
I01
sg26
g27
sa(dp833
g3
F0.5
sg4
I1000
sg5
g805
sg10
F0
sg11
I2
sg12
I4
sS'N'
I100
sg13
F0.98999999999999999
sg14
g17
sg18
g19
sS'T'
I100
sg20
g6
(g8
S'gfffff\xee?'
tRp834
sg22
g23
sg24
I13
sg25
I01
sg26
g27
sa(dp835
g3
F0.5
sg4
I1000
sg5
g805
sg10
F0
sg11
I2
sg12
I4
sS'N'
I100
sg13
F0.98999999999999999
sg14
g17
sg18
g19
sS'T'
I100
sg20
g6
(g8
S'\xb9\x1e\x85\xebQ\xb8\xee?'
tRp836
sg22
g23
sg24
I13
sg25
I01
sg26
g27
sa(dp837
g3
F0.5
sg4
I1000
sg5
g805
sg10
F0
sg11
I2
sg12
I4
sS'N'
I100
sg13
F0.98999999999999999
sg14
g17
sg18
g19
sS'T'
I100
sg20
g6
(g8
S'\x0b\xd7\xa3p=\n\xef?'
tRp838
sg22
g23
sg24
I13
sg25
I01
sg26
g27
sa(dp839
g3
F0.5
sg4
I1000
sg5
g805
sg10
F0
sg11
I2
sg12
I4
sS'N'
I100
sg13
F0.98999999999999999
sg14
g17
sg18
g19
sS'T'
I100
sg20
g6
(g8
S']\x8f\xc2\xf5(\\\xef?'
tRp840
sg22
g23
sg24
I13
sg25
I01
sg26
g27
sa(dp841
g3
F0.5
sg4
I1000
sg5
g805
sg10
F0
sg11
I2
sg12
I4
sS'N'
I100
sg13
F0.98999999999999999
sg14
g17
sg18
g19
sS'T'
I100
sg20
g6
(g8
S'\xafG\xe1z\x14\xae\xef?'
tRp842
sg22
g23
sg24
I13
sg25
I01
sg26
g27
sa(dp843
g3
F0.5
sg4
I1000
sg5
g805
sg10
F0
sg11
I2
sg12
I4
sS'N'
I100
sg13
F0.98999999999999999
sg14
g17
sg18
g19
sS'T'
I100
sg20
g6
(g8
S'\x00\x00\x00\x00\x00\x00\xf0?'
tRp844
sg22
g23
sg24
I13
sg25
I01
sg26
g27
sa(dp845
g3
F0.5
sg4
I1000
sg5
g6
(g8
S'.\x00\x00\x00\x00\x00$@'
tRp846
sg10
F0
sg11
I2
sg12
I4
sS'N'
I100
sg13
F0.98999999999999999
sg14
g17
sg18
g19
sS'T'
I100
sg20
g6
(g8
S'\x00\x00\x00\x00\x00\x00\x00\x00'
tRp847
sg22
g23
sg24
I13
sg25
I01
sg26
g27
sa(dp848
g3
F0.5
sg4
I1000
sg5
g846
sg10
F0
sg11
I2
sg12
I4
sS'N'
I100
sg13
F0.98999999999999999
sg14
g17
sg18
g19
sS'T'
I100
sg20
g6
(g8
S'\x9a\x99\x99\x99\x99\x99\xb9?'
tRp849
sg22
g23
sg24
I13
sg25
I01
sg26
g27
sa(dp850
g3
F0.5
sg4
I1000
sg5
g846
sg10
F0
sg11
I2
sg12
I4
sS'N'
I100
sg13
F0.98999999999999999
sg14
g17
sg18
g19
sS'T'
I100
sg20
g6
(g8
S'\x9a\x99\x99\x99\x99\x99\xc9?'
tRp851
sg22
g23
sg24
I13
sg25
I01
sg26
g27
sa(dp852
g3
F0.5
sg4
I1000
sg5
g846
sg10
F0
sg11
I2
sg12
I4
sS'N'
I100
sg13
F0.98999999999999999
sg14
g17
sg18
g19
sS'T'
I100
sg20
g6
(g8
S'433333\xd3?'
tRp853
sg22
g23
sg24
I13
sg25
I01
sg26
g27
sa(dp854
g3
F0.5
sg4
I1000
sg5
g846
sg10
F0
sg11
I2
sg12
I4
sS'N'
I100
sg13
F0.98999999999999999
sg14
g17
sg18
g19
sS'T'
I100
sg20
g6
(g8
S'\x9a\x99\x99\x99\x99\x99\xd9?'
tRp855
sg22
g23
sg24
I13
sg25
I01
sg26
g27
sa(dp856
g3
F0.5
sg4
I1000
sg5
g846
sg10
F0
sg11
I2
sg12
I4
sS'N'
I100
sg13
F0.98999999999999999
sg14
g17
sg18
g19
sS'T'
I100
sg20
g6
(g8
S'\x00\x00\x00\x00\x00\x00\xe0?'
tRp857
sg22
g23
sg24
I13
sg25
I01
sg26
g27
sa(dp858
g3
F0.5
sg4
I1000
sg5
g846
sg10
F0
sg11
I2
sg12
I4
sS'N'
I100
sg13
F0.98999999999999999
sg14
g17
sg18
g19
sS'T'
I100
sg20
g6
(g8
S'433333\xe3?'
tRp859
sg22
g23
sg24
I13
sg25
I01
sg26
g27
sa(dp860
g3
F0.5
sg4
I1000
sg5
g846
sg10
F0
sg11
I2
sg12
I4
sS'N'
I100
sg13
F0.98999999999999999
sg14
g17
sg18
g19
sS'T'
I100
sg20
g6
(g8
S'gfffff\xe6?'
tRp861
sg22
g23
sg24
I13
sg25
I01
sg26
g27
sa(dp862
g3
F0.5
sg4
I1000
sg5
g846
sg10
F0
sg11
I2
sg12
I4
sS'N'
I100
sg13
F0.98999999999999999
sg14
g17
sg18
g19
sS'T'
I100
sg20
g6
(g8
S'\x9a\x99\x99\x99\x99\x99\xe9?'
tRp863
sg22
g23
sg24
I13
sg25
I01
sg26
g27
sa(dp864
g3
F0.5
sg4
I1000
sg5
g846
sg10
F0
sg11
I2
sg12
I4
sS'N'
I100
sg13
F0.98999999999999999
sg14
g17
sg18
g19
sS'T'
I100
sg20
g6
(g8
S'\xcd\xcc\xcc\xcc\xcc\xcc\xec?'
tRp865
sg22
g23
sg24
I13
sg25
I01
sg26
g27
sa(dp866
g3
F0.5
sg4
I1000
sg5
g846
sg10
F0
sg11
I2
sg12
I4
sS'N'
I100
sg13
F0.98999999999999999
sg14
g17
sg18
g19
sS'T'
I100
sg20
g6
(g8
S'\x1f\x85\xebQ\xb8\x1e\xed?'
tRp867
sg22
g23
sg24
I13
sg25
I01
sg26
g27
sa(dp868
g3
F0.5
sg4
I1000
sg5
g846
sg10
F0
sg11
I2
sg12
I4
sS'N'
I100
sg13
F0.98999999999999999
sg14
g17
sg18
g19
sS'T'
I100
sg20
g6
(g8
S'q=\n\xd7\xa3p\xed?'
tRp869
sg22
g23
sg24
I13
sg25
I01
sg26
g27
sa(dp870
g3
F0.5
sg4
I1000
sg5
g846
sg10
F0
sg11
I2
sg12
I4
sS'N'
I100
sg13
F0.98999999999999999
sg14
g17
sg18
g19
sS'T'
I100
sg20
g6
(g8
S'\xc3\xf5(\\\x8f\xc2\xed?'
tRp871
sg22
g23
sg24
I13
sg25
I01
sg26
g27
sa(dp872
g3
F0.5
sg4
I1000
sg5
g846
sg10
F0
sg11
I2
sg12
I4
sS'N'
I100
sg13
F0.98999999999999999
sg14
g17
sg18
g19
sS'T'
I100
sg20
g6
(g8
S'\x15\xaeG\xe1z\x14\xee?'
tRp873
sg22
g23
sg24
I13
sg25
I01
sg26
g27
sa(dp874
g3
F0.5
sg4
I1000
sg5
g846
sg10
F0
sg11
I2
sg12
I4
sS'N'
I100
sg13
F0.98999999999999999
sg14
g17
sg18
g19
sS'T'
I100
sg20
g6
(g8
S'gfffff\xee?'
tRp875
sg22
g23
sg24
I13
sg25
I01
sg26
g27
sa(dp876
g3
F0.5
sg4
I1000
sg5
g846
sg10
F0
sg11
I2
sg12
I4
sS'N'
I100
sg13
F0.98999999999999999
sg14
g17
sg18
g19
sS'T'
I100
sg20
g6
(g8
S'\xb9\x1e\x85\xebQ\xb8\xee?'
tRp877
sg22
g23
sg24
I13
sg25
I01
sg26
g27
sa(dp878
g3
F0.5
sg4
I1000
sg5
g846
sg10
F0
sg11
I2
sg12
I4
sS'N'
I100
sg13
F0.98999999999999999
sg14
g17
sg18
g19
sS'T'
I100
sg20
g6
(g8
S'\x0b\xd7\xa3p=\n\xef?'
tRp879
sg22
g23
sg24
I13
sg25
I01
sg26
g27
sa(dp880
g3
F0.5
sg4
I1000
sg5
g846
sg10
F0
sg11
I2
sg12
I4
sS'N'
I100
sg13
F0.98999999999999999
sg14
g17
sg18
g19
sS'T'
I100
sg20
g6
(g8
S']\x8f\xc2\xf5(\\\xef?'
tRp881
sg22
g23
sg24
I13
sg25
I01
sg26
g27
sa(dp882
g3
F0.5
sg4
I1000
sg5
g846
sg10
F0
sg11
I2
sg12
I4
sS'N'
I100
sg13
F0.98999999999999999
sg14
g17
sg18
g19
sS'T'
I100
sg20
g6
(g8
S'\xafG\xe1z\x14\xae\xef?'
tRp883
sg22
g23
sg24
I13
sg25
I01
sg26
g27
sa(dp884
g3
F0.5
sg4
I1000
sg5
g846
sg10
F0
sg11
I2
sg12
I4
sS'N'
I100
sg13
F0.98999999999999999
sg14
g17
sg18
g19
sS'T'
I100
sg20
g6
(g8
S'\x00\x00\x00\x00\x00\x00\xf0?'
tRp885
sg22
g23
sg24
I13
sg25
I01
sg26
g27
sa(dp886
g3
F0.5
sg4
I1000
sg5
g6
(g8
S'\xb4x\x894\xa7\xb2/@'
tRp887
sg10
F0
sg11
I2
sg12
I4
sS'N'
I100
sg13
F0.98999999999999999
sg14
g17
sg18
g19
sS'T'
I100
sg20
g6
(g8
S'\x00\x00\x00\x00\x00\x00\x00\x00'
tRp888
sg22
g23
sg24
I13
sg25
I01
sg26
g27
sa(dp889
g3
F0.5
sg4
I1000
sg5
g887
sg10
F0
sg11
I2
sg12
I4
sS'N'
I100
sg13
F0.98999999999999999
sg14
g17
sg18
g19
sS'T'
I100
sg20
g6
(g8
S'\x9a\x99\x99\x99\x99\x99\xb9?'
tRp890
sg22
g23
sg24
I13
sg25
I01
sg26
g27
sa(dp891
g3
F0.5
sg4
I1000
sg5
g887
sg10
F0
sg11
I2
sg12
I4
sS'N'
I100
sg13
F0.98999999999999999
sg14
g17
sg18
g19
sS'T'
I100
sg20
g6
(g8
S'\x9a\x99\x99\x99\x99\x99\xc9?'
tRp892
sg22
g23
sg24
I13
sg25
I01
sg26
g27
sa(dp893
g3
F0.5
sg4
I1000
sg5
g887
sg10
F0
sg11
I2
sg12
I4
sS'N'
I100
sg13
F0.98999999999999999
sg14
g17
sg18
g19
sS'T'
I100
sg20
g6
(g8
S'433333\xd3?'
tRp894
sg22
g23
sg24
I13
sg25
I01
sg26
g27
sa(dp895
g3
F0.5
sg4
I1000
sg5
g887
sg10
F0
sg11
I2
sg12
I4
sS'N'
I100
sg13
F0.98999999999999999
sg14
g17
sg18
g19
sS'T'
I100
sg20
g6
(g8
S'\x9a\x99\x99\x99\x99\x99\xd9?'
tRp896
sg22
g23
sg24
I13
sg25
I01
sg26
g27
sa(dp897
g3
F0.5
sg4
I1000
sg5
g887
sg10
F0
sg11
I2
sg12
I4
sS'N'
I100
sg13
F0.98999999999999999
sg14
g17
sg18
g19
sS'T'
I100
sg20
g6
(g8
S'\x00\x00\x00\x00\x00\x00\xe0?'
tRp898
sg22
g23
sg24
I13
sg25
I01
sg26
g27
sa(dp899
g3
F0.5
sg4
I1000
sg5
g887
sg10
F0
sg11
I2
sg12
I4
sS'N'
I100
sg13
F0.98999999999999999
sg14
g17
sg18
g19
sS'T'
I100
sg20
g6
(g8
S'433333\xe3?'
tRp900
sg22
g23
sg24
I13
sg25
I01
sg26
g27
sa(dp901
g3
F0.5
sg4
I1000
sg5
g887
sg10
F0
sg11
I2
sg12
I4
sS'N'
I100
sg13
F0.98999999999999999
sg14
g17
sg18
g19
sS'T'
I100
sg20
g6
(g8
S'gfffff\xe6?'
tRp902
sg22
g23
sg24
I13
sg25
I01
sg26
g27
sa(dp903
g3
F0.5
sg4
I1000
sg5
g887
sg10
F0
sg11
I2
sg12
I4
sS'N'
I100
sg13
F0.98999999999999999
sg14
g17
sg18
g19
sS'T'
I100
sg20
g6
(g8
S'\x9a\x99\x99\x99\x99\x99\xe9?'
tRp904
sg22
g23
sg24
I13
sg25
I01
sg26
g27
sa(dp905
g3
F0.5
sg4
I1000
sg5
g887
sg10
F0
sg11
I2
sg12
I4
sS'N'
I100
sg13
F0.98999999999999999
sg14
g17
sg18
g19
sS'T'
I100
sg20
g6
(g8
S'\xcd\xcc\xcc\xcc\xcc\xcc\xec?'
tRp906
sg22
g23
sg24
I13
sg25
I01
sg26
g27
sa(dp907
g3
F0.5
sg4
I1000
sg5
g887
sg10
F0
sg11
I2
sg12
I4
sS'N'
I100
sg13
F0.98999999999999999
sg14
g17
sg18
g19
sS'T'
I100
sg20
g6
(g8
S'\x1f\x85\xebQ\xb8\x1e\xed?'
tRp908
sg22
g23
sg24
I13
sg25
I01
sg26
g27
sa(dp909
g3
F0.5
sg4
I1000
sg5
g887
sg10
F0
sg11
I2
sg12
I4
sS'N'
I100
sg13
F0.98999999999999999
sg14
g17
sg18
g19
sS'T'
I100
sg20
g6
(g8
S'q=\n\xd7\xa3p\xed?'
tRp910
sg22
g23
sg24
I13
sg25
I01
sg26
g27
sa(dp911
g3
F0.5
sg4
I1000
sg5
g887
sg10
F0
sg11
I2
sg12
I4
sS'N'
I100
sg13
F0.98999999999999999
sg14
g17
sg18
g19
sS'T'
I100
sg20
g6
(g8
S'\xc3\xf5(\\\x8f\xc2\xed?'
tRp912
sg22
g23
sg24
I13
sg25
I01
sg26
g27
sa(dp913
g3
F0.5
sg4
I1000
sg5
g887
sg10
F0
sg11
I2
sg12
I4
sS'N'
I100
sg13
F0.98999999999999999
sg14
g17
sg18
g19
sS'T'
I100
sg20
g6
(g8
S'\x15\xaeG\xe1z\x14\xee?'
tRp914
sg22
g23
sg24
I13
sg25
I01
sg26
g27
sa(dp915
g3
F0.5
sg4
I1000
sg5
g887
sg10
F0
sg11
I2
sg12
I4
sS'N'
I100
sg13
F0.98999999999999999
sg14
g17
sg18
g19
sS'T'
I100
sg20
g6
(g8
S'gfffff\xee?'
tRp916
sg22
g23
sg24
I13
sg25
I01
sg26
g27
sa(dp917
g3
F0.5
sg4
I1000
sg5
g887
sg10
F0
sg11
I2
sg12
I4
sS'N'
I100
sg13
F0.98999999999999999
sg14
g17
sg18
g19
sS'T'
I100
sg20
g6
(g8
S'\xb9\x1e\x85\xebQ\xb8\xee?'
tRp918
sg22
g23
sg24
I13
sg25
I01
sg26
g27
sa(dp919
g3
F0.5
sg4
I1000
sg5
g887
sg10
F0
sg11
I2
sg12
I4
sS'N'
I100
sg13
F0.98999999999999999
sg14
g17
sg18
g19
sS'T'
I100
sg20
g6
(g8
S'\x0b\xd7\xa3p=\n\xef?'
tRp920
sg22
g23
sg24
I13
sg25
I01
sg26
g27
sa(dp921
g3
F0.5
sg4
I1000
sg5
g887
sg10
F0
sg11
I2
sg12
I4
sS'N'
I100
sg13
F0.98999999999999999
sg14
g17
sg18
g19
sS'T'
I100
sg20
g6
(g8
S']\x8f\xc2\xf5(\\\xef?'
tRp922
sg22
g23
sg24
I13
sg25
I01
sg26
g27
sa(dp923
g3
F0.5
sg4
I1000
sg5
g887
sg10
F0
sg11
I2
sg12
I4
sS'N'
I100
sg13
F0.98999999999999999
sg14
g17
sg18
g19
sS'T'
I100
sg20
g6
(g8
S'\xafG\xe1z\x14\xae\xef?'
tRp924
sg22
g23
sg24
I13
sg25
I01
sg26
g27
sa(dp925
g3
F0.5
sg4
I1000
sg5
g887
sg10
F0
sg11
I2
sg12
I4
sS'N'
I100
sg13
F0.98999999999999999
sg14
g17
sg18
g19
sS'T'
I100
sg20
g6
(g8
S'\x00\x00\x00\x00\x00\x00\xf0?'
tRp926
sg22
g23
sg24
I13
sg25
I01
sg26
g27
sa(dp927
g3
F0.5
sg4
I1000
sg5
g6
(g8
S'\xb6\xffI\xe4m\x1e9@'
tRp928
sg10
F0
sg11
I2
sg12
I4
sS'N'
I100
sg13
F0.98999999999999999
sg14
g17
sg18
g19
sS'T'
I100
sg20
g6
(g8
S'\x00\x00\x00\x00\x00\x00\x00\x00'
tRp929
sg22
g23
sg24
I13
sg25
I01
sg26
g27
sa(dp930
g3
F0.5
sg4
I1000
sg5
g928
sg10
F0
sg11
I2
sg12
I4
sS'N'
I100
sg13
F0.98999999999999999
sg14
g17
sg18
g19
sS'T'
I100
sg20
g6
(g8
S'\x9a\x99\x99\x99\x99\x99\xb9?'
tRp931
sg22
g23
sg24
I13
sg25
I01
sg26
g27
sa(dp932
g3
F0.5
sg4
I1000
sg5
g928
sg10
F0
sg11
I2
sg12
I4
sS'N'
I100
sg13
F0.98999999999999999
sg14
g17
sg18
g19
sS'T'
I100
sg20
g6
(g8
S'\x9a\x99\x99\x99\x99\x99\xc9?'
tRp933
sg22
g23
sg24
I13
sg25
I01
sg26
g27
sa(dp934
g3
F0.5
sg4
I1000
sg5
g928
sg10
F0
sg11
I2
sg12
I4
sS'N'
I100
sg13
F0.98999999999999999
sg14
g17
sg18
g19
sS'T'
I100
sg20
g6
(g8
S'433333\xd3?'
tRp935
sg22
g23
sg24
I13
sg25
I01
sg26
g27
sa(dp936
g3
F0.5
sg4
I1000
sg5
g928
sg10
F0
sg11
I2
sg12
I4
sS'N'
I100
sg13
F0.98999999999999999
sg14
g17
sg18
g19
sS'T'
I100
sg20
g6
(g8
S'\x9a\x99\x99\x99\x99\x99\xd9?'
tRp937
sg22
g23
sg24
I13
sg25
I01
sg26
g27
sa(dp938
g3
F0.5
sg4
I1000
sg5
g928
sg10
F0
sg11
I2
sg12
I4
sS'N'
I100
sg13
F0.98999999999999999
sg14
g17
sg18
g19
sS'T'
I100
sg20
g6
(g8
S'\x00\x00\x00\x00\x00\x00\xe0?'
tRp939
sg22
g23
sg24
I13
sg25
I01
sg26
g27
sa(dp940
g3
F0.5
sg4
I1000
sg5
g928
sg10
F0
sg11
I2
sg12
I4
sS'N'
I100
sg13
F0.98999999999999999
sg14
g17
sg18
g19
sS'T'
I100
sg20
g6
(g8
S'433333\xe3?'
tRp941
sg22
g23
sg24
I13
sg25
I01
sg26
g27
sa(dp942
g3
F0.5
sg4
I1000
sg5
g928
sg10
F0
sg11
I2
sg12
I4
sS'N'
I100
sg13
F0.98999999999999999
sg14
g17
sg18
g19
sS'T'
I100
sg20
g6
(g8
S'gfffff\xe6?'
tRp943
sg22
g23
sg24
I13
sg25
I01
sg26
g27
sa(dp944
g3
F0.5
sg4
I1000
sg5
g928
sg10
F0
sg11
I2
sg12
I4
sS'N'
I100
sg13
F0.98999999999999999
sg14
g17
sg18
g19
sS'T'
I100
sg20
g6
(g8
S'\x9a\x99\x99\x99\x99\x99\xe9?'
tRp945
sg22
g23
sg24
I13
sg25
I01
sg26
g27
sa(dp946
g3
F0.5
sg4
I1000
sg5
g928
sg10
F0
sg11
I2
sg12
I4
sS'N'
I100
sg13
F0.98999999999999999
sg14
g17
sg18
g19
sS'T'
I100
sg20
g6
(g8
S'\xcd\xcc\xcc\xcc\xcc\xcc\xec?'
tRp947
sg22
g23
sg24
I13
sg25
I01
sg26
g27
sa(dp948
g3
F0.5
sg4
I1000
sg5
g928
sg10
F0
sg11
I2
sg12
I4
sS'N'
I100
sg13
F0.98999999999999999
sg14
g17
sg18
g19
sS'T'
I100
sg20
g6
(g8
S'\x1f\x85\xebQ\xb8\x1e\xed?'
tRp949
sg22
g23
sg24
I13
sg25
I01
sg26
g27
sa(dp950
g3
F0.5
sg4
I1000
sg5
g928
sg10
F0
sg11
I2
sg12
I4
sS'N'
I100
sg13
F0.98999999999999999
sg14
g17
sg18
g19
sS'T'
I100
sg20
g6
(g8
S'q=\n\xd7\xa3p\xed?'
tRp951
sg22
g23
sg24
I13
sg25
I01
sg26
g27
sa(dp952
g3
F0.5
sg4
I1000
sg5
g928
sg10
F0
sg11
I2
sg12
I4
sS'N'
I100
sg13
F0.98999999999999999
sg14
g17
sg18
g19
sS'T'
I100
sg20
g6
(g8
S'\xc3\xf5(\\\x8f\xc2\xed?'
tRp953
sg22
g23
sg24
I13
sg25
I01
sg26
g27
sa(dp954
g3
F0.5
sg4
I1000
sg5
g928
sg10
F0
sg11
I2
sg12
I4
sS'N'
I100
sg13
F0.98999999999999999
sg14
g17
sg18
g19
sS'T'
I100
sg20
g6
(g8
S'\x15\xaeG\xe1z\x14\xee?'
tRp955
sg22
g23
sg24
I13
sg25
I01
sg26
g27
sa(dp956
g3
F0.5
sg4
I1000
sg5
g928
sg10
F0
sg11
I2
sg12
I4
sS'N'
I100
sg13
F0.98999999999999999
sg14
g17
sg18
g19
sS'T'
I100
sg20
g6
(g8
S'gfffff\xee?'
tRp957
sg22
g23
sg24
I13
sg25
I01
sg26
g27
sa(dp958
g3
F0.5
sg4
I1000
sg5
g928
sg10
F0
sg11
I2
sg12
I4
sS'N'
I100
sg13
F0.98999999999999999
sg14
g17
sg18
g19
sS'T'
I100
sg20
g6
(g8
S'\xb9\x1e\x85\xebQ\xb8\xee?'
tRp959
sg22
g23
sg24
I13
sg25
I01
sg26
g27
sa(dp960
g3
F0.5
sg4
I1000
sg5
g928
sg10
F0
sg11
I2
sg12
I4
sS'N'
I100
sg13
F0.98999999999999999
sg14
g17
sg18
g19
sS'T'
I100
sg20
g6
(g8
S'\x0b\xd7\xa3p=\n\xef?'
tRp961
sg22
g23
sg24
I13
sg25
I01
sg26
g27
sa(dp962
g3
F0.5
sg4
I1000
sg5
g928
sg10
F0
sg11
I2
sg12
I4
sS'N'
I100
sg13
F0.98999999999999999
sg14
g17
sg18
g19
sS'T'
I100
sg20
g6
(g8
S']\x8f\xc2\xf5(\\\xef?'
tRp963
sg22
g23
sg24
I13
sg25
I01
sg26
g27
sa(dp964
g3
F0.5
sg4
I1000
sg5
g928
sg10
F0
sg11
I2
sg12
I4
sS'N'
I100
sg13
F0.98999999999999999
sg14
g17
sg18
g19
sS'T'
I100
sg20
g6
(g8
S'\xafG\xe1z\x14\xae\xef?'
tRp965
sg22
g23
sg24
I13
sg25
I01
sg26
g27
sa(dp966
g3
F0.5
sg4
I1000
sg5
g928
sg10
F0
sg11
I2
sg12
I4
sS'N'
I100
sg13
F0.98999999999999999
sg14
g17
sg18
g19
sS'T'
I100
sg20
g6
(g8
S'\x00\x00\x00\x00\x00\x00\xf0?'
tRp967
sg22
g23
sg24
I13
sg25
I01
sg26
g27
sa(dp968
g3
F0.5
sg4
I1000
sg5
g6
(g8
S'\xe0\x84\x93\x93\xc5\xe7C@'
tRp969
sg10
F0
sg11
I2
sg12
I4
sS'N'
I100
sg13
F0.98999999999999999
sg14
g17
sg18
g19
sS'T'
I100
sg20
g6
(g8
S'\x00\x00\x00\x00\x00\x00\x00\x00'
tRp970
sg22
g23
sg24
I13
sg25
I01
sg26
g27
sa(dp971
g3
F0.5
sg4
I1000
sg5
g969
sg10
F0
sg11
I2
sg12
I4
sS'N'
I100
sg13
F0.98999999999999999
sg14
g17
sg18
g19
sS'T'
I100
sg20
g6
(g8
S'\x9a\x99\x99\x99\x99\x99\xb9?'
tRp972
sg22
g23
sg24
I13
sg25
I01
sg26
g27
sa(dp973
g3
F0.5
sg4
I1000
sg5
g969
sg10
F0
sg11
I2
sg12
I4
sS'N'
I100
sg13
F0.98999999999999999
sg14
g17
sg18
g19
sS'T'
I100
sg20
g6
(g8
S'\x9a\x99\x99\x99\x99\x99\xc9?'
tRp974
sg22
g23
sg24
I13
sg25
I01
sg26
g27
sa(dp975
g3
F0.5
sg4
I1000
sg5
g969
sg10
F0
sg11
I2
sg12
I4
sS'N'
I100
sg13
F0.98999999999999999
sg14
g17
sg18
g19
sS'T'
I100
sg20
g6
(g8
S'433333\xd3?'
tRp976
sg22
g23
sg24
I13
sg25
I01
sg26
g27
sa(dp977
g3
F0.5
sg4
I1000
sg5
g969
sg10
F0
sg11
I2
sg12
I4
sS'N'
I100
sg13
F0.98999999999999999
sg14
g17
sg18
g19
sS'T'
I100
sg20
g6
(g8
S'\x9a\x99\x99\x99\x99\x99\xd9?'
tRp978
sg22
g23
sg24
I13
sg25
I01
sg26
g27
sa(dp979
g3
F0.5
sg4
I1000
sg5
g969
sg10
F0
sg11
I2
sg12
I4
sS'N'
I100
sg13
F0.98999999999999999
sg14
g17
sg18
g19
sS'T'
I100
sg20
g6
(g8
S'\x00\x00\x00\x00\x00\x00\xe0?'
tRp980
sg22
g23
sg24
I13
sg25
I01
sg26
g27
sa(dp981
g3
F0.5
sg4
I1000
sg5
g969
sg10
F0
sg11
I2
sg12
I4
sS'N'
I100
sg13
F0.98999999999999999
sg14
g17
sg18
g19
sS'T'
I100
sg20
g6
(g8
S'433333\xe3?'
tRp982
sg22
g23
sg24
I13
sg25
I01
sg26
g27
sa(dp983
g3
F0.5
sg4
I1000
sg5
g969
sg10
F0
sg11
I2
sg12
I4
sS'N'
I100
sg13
F0.98999999999999999
sg14
g17
sg18
g19
sS'T'
I100
sg20
g6
(g8
S'gfffff\xe6?'
tRp984
sg22
g23
sg24
I13
sg25
I01
sg26
g27
sa(dp985
g3
F0.5
sg4
I1000
sg5
g969
sg10
F0
sg11
I2
sg12
I4
sS'N'
I100
sg13
F0.98999999999999999
sg14
g17
sg18
g19
sS'T'
I100
sg20
g6
(g8
S'\x9a\x99\x99\x99\x99\x99\xe9?'
tRp986
sg22
g23
sg24
I13
sg25
I01
sg26
g27
sa(dp987
g3
F0.5
sg4
I1000
sg5
g969
sg10
F0
sg11
I2
sg12
I4
sS'N'
I100
sg13
F0.98999999999999999
sg14
g17
sg18
g19
sS'T'
I100
sg20
g6
(g8
S'\xcd\xcc\xcc\xcc\xcc\xcc\xec?'
tRp988
sg22
g23
sg24
I13
sg25
I01
sg26
g27
sa(dp989
g3
F0.5
sg4
I1000
sg5
g969
sg10
F0
sg11
I2
sg12
I4
sS'N'
I100
sg13
F0.98999999999999999
sg14
g17
sg18
g19
sS'T'
I100
sg20
g6
(g8
S'\x1f\x85\xebQ\xb8\x1e\xed?'
tRp990
sg22
g23
sg24
I13
sg25
I01
sg26
g27
sa(dp991
g3
F0.5
sg4
I1000
sg5
g969
sg10
F0
sg11
I2
sg12
I4
sS'N'
I100
sg13
F0.98999999999999999
sg14
g17
sg18
g19
sS'T'
I100
sg20
g6
(g8
S'q=\n\xd7\xa3p\xed?'
tRp992
sg22
g23
sg24
I13
sg25
I01
sg26
g27
sa(dp993
g3
F0.5
sg4
I1000
sg5
g969
sg10
F0
sg11
I2
sg12
I4
sS'N'
I100
sg13
F0.98999999999999999
sg14
g17
sg18
g19
sS'T'
I100
sg20
g6
(g8
S'\xc3\xf5(\\\x8f\xc2\xed?'
tRp994
sg22
g23
sg24
I13
sg25
I01
sg26
g27
sa(dp995
g3
F0.5
sg4
I1000
sg5
g969
sg10
F0
sg11
I2
sg12
I4
sS'N'
I100
sg13
F0.98999999999999999
sg14
g17
sg18
g19
sS'T'
I100
sg20
g6
(g8
S'\x15\xaeG\xe1z\x14\xee?'
tRp996
sg22
g23
sg24
I13
sg25
I01
sg26
g27
sa(dp997
g3
F0.5
sg4
I1000
sg5
g969
sg10
F0
sg11
I2
sg12
I4
sS'N'
I100
sg13
F0.98999999999999999
sg14
g17
sg18
g19
sS'T'
I100
sg20
g6
(g8
S'gfffff\xee?'
tRp998
sg22
g23
sg24
I13
sg25
I01
sg26
g27
sa(dp999
g3
F0.5
sg4
I1000
sg5
g969
sg10
F0
sg11
I2
sg12
I4
sS'N'
I100
sg13
F0.98999999999999999
sg14
g17
sg18
g19
sS'T'
I100
sg20
g6
(g8
S'\xb9\x1e\x85\xebQ\xb8\xee?'
tRp1000
sg22
g23
sg24
I13
sg25
I01
sg26
g27
sa(dp1001
g3
F0.5
sg4
I1000
sg5
g969
sg10
F0
sg11
I2
sg12
I4
sS'N'
I100
sg13
F0.98999999999999999
sg14
g17
sg18
g19
sS'T'
I100
sg20
g6
(g8
S'\x0b\xd7\xa3p=\n\xef?'
tRp1002
sg22
g23
sg24
I13
sg25
I01
sg26
g27
sa(dp1003
g3
F0.5
sg4
I1000
sg5
g969
sg10
F0
sg11
I2
sg12
I4
sS'N'
I100
sg13
F0.98999999999999999
sg14
g17
sg18
g19
sS'T'
I100
sg20
g6
(g8
S']\x8f\xc2\xf5(\\\xef?'
tRp1004
sg22
g23
sg24
I13
sg25
I01
sg26
g27
sa(dp1005
g3
F0.5
sg4
I1000
sg5
g969
sg10
F0
sg11
I2
sg12
I4
sS'N'
I100
sg13
F0.98999999999999999
sg14
g17
sg18
g19
sS'T'
I100
sg20
g6
(g8
S'\xafG\xe1z\x14\xae\xef?'
tRp1006
sg22
g23
sg24
I13
sg25
I01
sg26
g27
sa(dp1007
g3
F0.5
sg4
I1000
sg5
g969
sg10
F0
sg11
I2
sg12
I4
sS'N'
I100
sg13
F0.98999999999999999
sg14
g17
sg18
g19
sS'T'
I100
sg20
g6
(g8
S'\x00\x00\x00\x00\x00\x00\xf0?'
tRp1008
sg22
g23
sg24
I13
sg25
I01
sg26
g27
sa(dp1009
g3
F0.5
sg4
I1000
sg5
g6
(g8
S'S\xac\xc1\x06A\x8cO@'
tRp1010
sg10
F0
sg11
I2
sg12
I4
sS'N'
I100
sg13
F0.98999999999999999
sg14
g17
sg18
g19
sS'T'
I100
sg20
g6
(g8
S'\x00\x00\x00\x00\x00\x00\x00\x00'
tRp1011
sg22
g23
sg24
I13
sg25
I01
sg26
g27
sa(dp1012
g3
F0.5
sg4
I1000
sg5
g1010
sg10
F0
sg11
I2
sg12
I4
sS'N'
I100
sg13
F0.98999999999999999
sg14
g17
sg18
g19
sS'T'
I100
sg20
g6
(g8
S'\x9a\x99\x99\x99\x99\x99\xb9?'
tRp1013
sg22
g23
sg24
I13
sg25
I01
sg26
g27
sa(dp1014
g3
F0.5
sg4
I1000
sg5
g1010
sg10
F0
sg11
I2
sg12
I4
sS'N'
I100
sg13
F0.98999999999999999
sg14
g17
sg18
g19
sS'T'
I100
sg20
g6
(g8
S'\x9a\x99\x99\x99\x99\x99\xc9?'
tRp1015
sg22
g23
sg24
I13
sg25
I01
sg26
g27
sa(dp1016
g3
F0.5
sg4
I1000
sg5
g1010
sg10
F0
sg11
I2
sg12
I4
sS'N'
I100
sg13
F0.98999999999999999
sg14
g17
sg18
g19
sS'T'
I100
sg20
g6
(g8
S'433333\xd3?'
tRp1017
sg22
g23
sg24
I13
sg25
I01
sg26
g27
sa(dp1018
g3
F0.5
sg4
I1000
sg5
g1010
sg10
F0
sg11
I2
sg12
I4
sS'N'
I100
sg13
F0.98999999999999999
sg14
g17
sg18
g19
sS'T'
I100
sg20
g6
(g8
S'\x9a\x99\x99\x99\x99\x99\xd9?'
tRp1019
sg22
g23
sg24
I13
sg25
I01
sg26
g27
sa(dp1020
g3
F0.5
sg4
I1000
sg5
g1010
sg10
F0
sg11
I2
sg12
I4
sS'N'
I100
sg13
F0.98999999999999999
sg14
g17
sg18
g19
sS'T'
I100
sg20
g6
(g8
S'\x00\x00\x00\x00\x00\x00\xe0?'
tRp1021
sg22
g23
sg24
I13
sg25
I01
sg26
g27
sa(dp1022
g3
F0.5
sg4
I1000
sg5
g1010
sg10
F0
sg11
I2
sg12
I4
sS'N'
I100
sg13
F0.98999999999999999
sg14
g17
sg18
g19
sS'T'
I100
sg20
g6
(g8
S'433333\xe3?'
tRp1023
sg22
g23
sg24
I13
sg25
I01
sg26
g27
sa(dp1024
g3
F0.5
sg4
I1000
sg5
g1010
sg10
F0
sg11
I2
sg12
I4
sS'N'
I100
sg13
F0.98999999999999999
sg14
g17
sg18
g19
sS'T'
I100
sg20
g6
(g8
S'gfffff\xe6?'
tRp1025
sg22
g23
sg24
I13
sg25
I01
sg26
g27
sa(dp1026
g3
F0.5
sg4
I1000
sg5
g1010
sg10
F0
sg11
I2
sg12
I4
sS'N'
I100
sg13
F0.98999999999999999
sg14
g17
sg18
g19
sS'T'
I100
sg20
g6
(g8
S'\x9a\x99\x99\x99\x99\x99\xe9?'
tRp1027
sg22
g23
sg24
I13
sg25
I01
sg26
g27
sa(dp1028
g3
F0.5
sg4
I1000
sg5
g1010
sg10
F0
sg11
I2
sg12
I4
sS'N'
I100
sg13
F0.98999999999999999
sg14
g17
sg18
g19
sS'T'
I100
sg20
g6
(g8
S'\xcd\xcc\xcc\xcc\xcc\xcc\xec?'
tRp1029
sg22
g23
sg24
I13
sg25
I01
sg26
g27
sa(dp1030
g3
F0.5
sg4
I1000
sg5
g1010
sg10
F0
sg11
I2
sg12
I4
sS'N'
I100
sg13
F0.98999999999999999
sg14
g17
sg18
g19
sS'T'
I100
sg20
g6
(g8
S'\x1f\x85\xebQ\xb8\x1e\xed?'
tRp1031
sg22
g23
sg24
I13
sg25
I01
sg26
g27
sa(dp1032
g3
F0.5
sg4
I1000
sg5
g1010
sg10
F0
sg11
I2
sg12
I4
sS'N'
I100
sg13
F0.98999999999999999
sg14
g17
sg18
g19
sS'T'
I100
sg20
g6
(g8
S'q=\n\xd7\xa3p\xed?'
tRp1033
sg22
g23
sg24
I13
sg25
I01
sg26
g27
sa(dp1034
g3
F0.5
sg4
I1000
sg5
g1010
sg10
F0
sg11
I2
sg12
I4
sS'N'
I100
sg13
F0.98999999999999999
sg14
g17
sg18
g19
sS'T'
I100
sg20
g6
(g8
S'\xc3\xf5(\\\x8f\xc2\xed?'
tRp1035
sg22
g23
sg24
I13
sg25
I01
sg26
g27
sa(dp1036
g3
F0.5
sg4
I1000
sg5
g1010
sg10
F0
sg11
I2
sg12
I4
sS'N'
I100
sg13
F0.98999999999999999
sg14
g17
sg18
g19
sS'T'
I100
sg20
g6
(g8
S'\x15\xaeG\xe1z\x14\xee?'
tRp1037
sg22
g23
sg24
I13
sg25
I01
sg26
g27
sa(dp1038
g3
F0.5
sg4
I1000
sg5
g1010
sg10
F0
sg11
I2
sg12
I4
sS'N'
I100
sg13
F0.98999999999999999
sg14
g17
sg18
g19
sS'T'
I100
sg20
g6
(g8
S'gfffff\xee?'
tRp1039
sg22
g23
sg24
I13
sg25
I01
sg26
g27
sa(dp1040
g3
F0.5
sg4
I1000
sg5
g1010
sg10
F0
sg11
I2
sg12
I4
sS'N'
I100
sg13
F0.98999999999999999
sg14
g17
sg18
g19
sS'T'
I100
sg20
g6
(g8
S'\xb9\x1e\x85\xebQ\xb8\xee?'
tRp1041
sg22
g23
sg24
I13
sg25
I01
sg26
g27
sa(dp1042
g3
F0.5
sg4
I1000
sg5
g1010
sg10
F0
sg11
I2
sg12
I4
sS'N'
I100
sg13
F0.98999999999999999
sg14
g17
sg18
g19
sS'T'
I100
sg20
g6
(g8
S'\x0b\xd7\xa3p=\n\xef?'
tRp1043
sg22
g23
sg24
I13
sg25
I01
sg26
g27
sa(dp1044
g3
F0.5
sg4
I1000
sg5
g1010
sg10
F0
sg11
I2
sg12
I4
sS'N'
I100
sg13
F0.98999999999999999
sg14
g17
sg18
g19
sS'T'
I100
sg20
g6
(g8
S']\x8f\xc2\xf5(\\\xef?'
tRp1045
sg22
g23
sg24
I13
sg25
I01
sg26
g27
sa(dp1046
g3
F0.5
sg4
I1000
sg5
g1010
sg10
F0
sg11
I2
sg12
I4
sS'N'
I100
sg13
F0.98999999999999999
sg14
g17
sg18
g19
sS'T'
I100
sg20
g6
(g8
S'\xafG\xe1z\x14\xae\xef?'
tRp1047
sg22
g23
sg24
I13
sg25
I01
sg26
g27
sa(dp1048
g3
F0.5
sg4
I1000
sg5
g1010
sg10
F0
sg11
I2
sg12
I4
sS'N'
I100
sg13
F0.98999999999999999
sg14
g17
sg18
g19
sS'T'
I100
sg20
g6
(g8
S'\x00\x00\x00\x00\x00\x00\xf0?'
tRp1049
sg22
g23
sg24
I13
sg25
I01
sg26
g27
sa(dp1050
g3
F0.5
sg4
I1000
sg5
g6
(g8
S'H\x00\x00\x00\x00\x00Y@'
tRp1051
sg10
F0
sg11
I2
sg12
I4
sS'N'
I100
sg13
F0.98999999999999999
sg14
g17
sg18
g19
sS'T'
I100
sg20
g6
(g8
S'\x00\x00\x00\x00\x00\x00\x00\x00'
tRp1052
sg22
g23
sg24
I13
sg25
I01
sg26
g27
sa(dp1053
g3
F0.5
sg4
I1000
sg5
g1051
sg10
F0
sg11
I2
sg12
I4
sS'N'
I100
sg13
F0.98999999999999999
sg14
g17
sg18
g19
sS'T'
I100
sg20
g6
(g8
S'\x9a\x99\x99\x99\x99\x99\xb9?'
tRp1054
sg22
g23
sg24
I13
sg25
I01
sg26
g27
sa(dp1055
g3
F0.5
sg4
I1000
sg5
g1051
sg10
F0
sg11
I2
sg12
I4
sS'N'
I100
sg13
F0.98999999999999999
sg14
g17
sg18
g19
sS'T'
I100
sg20
g6
(g8
S'\x9a\x99\x99\x99\x99\x99\xc9?'
tRp1056
sg22
g23
sg24
I13
sg25
I01
sg26
g27
sa(dp1057
g3
F0.5
sg4
I1000
sg5
g1051
sg10
F0
sg11
I2
sg12
I4
sS'N'
I100
sg13
F0.98999999999999999
sg14
g17
sg18
g19
sS'T'
I100
sg20
g6
(g8
S'433333\xd3?'
tRp1058
sg22
g23
sg24
I13
sg25
I01
sg26
g27
sa(dp1059
g3
F0.5
sg4
I1000
sg5
g1051
sg10
F0
sg11
I2
sg12
I4
sS'N'
I100
sg13
F0.98999999999999999
sg14
g17
sg18
g19
sS'T'
I100
sg20
g6
(g8
S'\x9a\x99\x99\x99\x99\x99\xd9?'
tRp1060
sg22
g23
sg24
I13
sg25
I01
sg26
g27
sa(dp1061
g3
F0.5
sg4
I1000
sg5
g1051
sg10
F0
sg11
I2
sg12
I4
sS'N'
I100
sg13
F0.98999999999999999
sg14
g17
sg18
g19
sS'T'
I100
sg20
g6
(g8
S'\x00\x00\x00\x00\x00\x00\xe0?'
tRp1062
sg22
g23
sg24
I13
sg25
I01
sg26
g27
sa(dp1063
g3
F0.5
sg4
I1000
sg5
g1051
sg10
F0
sg11
I2
sg12
I4
sS'N'
I100
sg13
F0.98999999999999999
sg14
g17
sg18
g19
sS'T'
I100
sg20
g6
(g8
S'433333\xe3?'
tRp1064
sg22
g23
sg24
I13
sg25
I01
sg26
g27
sa(dp1065
g3
F0.5
sg4
I1000
sg5
g1051
sg10
F0
sg11
I2
sg12
I4
sS'N'
I100
sg13
F0.98999999999999999
sg14
g17
sg18
g19
sS'T'
I100
sg20
g6
(g8
S'gfffff\xe6?'
tRp1066
sg22
g23
sg24
I13
sg25
I01
sg26
g27
sa(dp1067
g3
F0.5
sg4
I1000
sg5
g1051
sg10
F0
sg11
I2
sg12
I4
sS'N'
I100
sg13
F0.98999999999999999
sg14
g17
sg18
g19
sS'T'
I100
sg20
g6
(g8
S'\x9a\x99\x99\x99\x99\x99\xe9?'
tRp1068
sg22
g23
sg24
I13
sg25
I01
sg26
g27
sa(dp1069
g3
F0.5
sg4
I1000
sg5
g1051
sg10
F0
sg11
I2
sg12
I4
sS'N'
I100
sg13
F0.98999999999999999
sg14
g17
sg18
g19
sS'T'
I100
sg20
g6
(g8
S'\xcd\xcc\xcc\xcc\xcc\xcc\xec?'
tRp1070
sg22
g23
sg24
I13
sg25
I01
sg26
g27
sa(dp1071
g3
F0.5
sg4
I1000
sg5
g1051
sg10
F0
sg11
I2
sg12
I4
sS'N'
I100
sg13
F0.98999999999999999
sg14
g17
sg18
g19
sS'T'
I100
sg20
g6
(g8
S'\x1f\x85\xebQ\xb8\x1e\xed?'
tRp1072
sg22
g23
sg24
I13
sg25
I01
sg26
g27
sa(dp1073
g3
F0.5
sg4
I1000
sg5
g1051
sg10
F0
sg11
I2
sg12
I4
sS'N'
I100
sg13
F0.98999999999999999
sg14
g17
sg18
g19
sS'T'
I100
sg20
g6
(g8
S'q=\n\xd7\xa3p\xed?'
tRp1074
sg22
g23
sg24
I13
sg25
I01
sg26
g27
sa(dp1075
g3
F0.5
sg4
I1000
sg5
g1051
sg10
F0
sg11
I2
sg12
I4
sS'N'
I100
sg13
F0.98999999999999999
sg14
g17
sg18
g19
sS'T'
I100
sg20
g6
(g8
S'\xc3\xf5(\\\x8f\xc2\xed?'
tRp1076
sg22
g23
sg24
I13
sg25
I01
sg26
g27
sa(dp1077
g3
F0.5
sg4
I1000
sg5
g1051
sg10
F0
sg11
I2
sg12
I4
sS'N'
I100
sg13
F0.98999999999999999
sg14
g17
sg18
g19
sS'T'
I100
sg20
g6
(g8
S'\x15\xaeG\xe1z\x14\xee?'
tRp1078
sg22
g23
sg24
I13
sg25
I01
sg26
g27
sa(dp1079
g3
F0.5
sg4
I1000
sg5
g1051
sg10
F0
sg11
I2
sg12
I4
sS'N'
I100
sg13
F0.98999999999999999
sg14
g17
sg18
g19
sS'T'
I100
sg20
g6
(g8
S'gfffff\xee?'
tRp1080
sg22
g23
sg24
I13
sg25
I01
sg26
g27
sa(dp1081
g3
F0.5
sg4
I1000
sg5
g1051
sg10
F0
sg11
I2
sg12
I4
sS'N'
I100
sg13
F0.98999999999999999
sg14
g17
sg18
g19
sS'T'
I100
sg20
g6
(g8
S'\xb9\x1e\x85\xebQ\xb8\xee?'
tRp1082
sg22
g23
sg24
I13
sg25
I01
sg26
g27
sa(dp1083
g3
F0.5
sg4
I1000
sg5
g1051
sg10
F0
sg11
I2
sg12
I4
sS'N'
I100
sg13
F0.98999999999999999
sg14
g17
sg18
g19
sS'T'
I100
sg20
g6
(g8
S'\x0b\xd7\xa3p=\n\xef?'
tRp1084
sg22
g23
sg24
I13
sg25
I01
sg26
g27
sa(dp1085
g3
F0.5
sg4
I1000
sg5
g1051
sg10
F0
sg11
I2
sg12
I4
sS'N'
I100
sg13
F0.98999999999999999
sg14
g17
sg18
g19
sS'T'
I100
sg20
g6
(g8
S']\x8f\xc2\xf5(\\\xef?'
tRp1086
sg22
g23
sg24
I13
sg25
I01
sg26
g27
sa(dp1087
g3
F0.5
sg4
I1000
sg5
g1051
sg10
F0
sg11
I2
sg12
I4
sS'N'
I100
sg13
F0.98999999999999999
sg14
g17
sg18
g19
sS'T'
I100
sg20
g6
(g8
S'\xafG\xe1z\x14\xae\xef?'
tRp1088
sg22
g23
sg24
I13
sg25
I01
sg26
g27
sa(dp1089
g3
F0.5
sg4
I1000
sg5
g1051
sg10
F0
sg11
I2
sg12
I4
sS'N'
I100
sg13
F0.98999999999999999
sg14
g17
sg18
g19
sS'T'
I100
sg20
g6
(g8
S'\x00\x00\x00\x00\x00\x00\xf0?'
tRp1090
sg22
g23
sg24
I13
sg25
I01
sg26
g27
sa(dp1091
g3
F0.5
sg4
I1000
sg5
g6
(g8
S'|\xeb\xd5\x80\xa8\xcfc@'
tRp1092
sg10
F0
sg11
I2
sg12
I4
sS'N'
I100
sg13
F0.98999999999999999
sg14
g17
sg18
g19
sS'T'
I100
sg20
g6
(g8
S'\x00\x00\x00\x00\x00\x00\x00\x00'
tRp1093
sg22
g23
sg24
I13
sg25
I01
sg26
g27
sa(dp1094
g3
F0.5
sg4
I1000
sg5
g1092
sg10
F0
sg11
I2
sg12
I4
sS'N'
I100
sg13
F0.98999999999999999
sg14
g17
sg18
g19
sS'T'
I100
sg20
g6
(g8
S'\x9a\x99\x99\x99\x99\x99\xb9?'
tRp1095
sg22
g23
sg24
I13
sg25
I01
sg26
g27
sa(dp1096
g3
F0.5
sg4
I1000
sg5
g1092
sg10
F0
sg11
I2
sg12
I4
sS'N'
I100
sg13
F0.98999999999999999
sg14
g17
sg18
g19
sS'T'
I100
sg20
g6
(g8
S'\x9a\x99\x99\x99\x99\x99\xc9?'
tRp1097
sg22
g23
sg24
I13
sg25
I01
sg26
g27
sa(dp1098
g3
F0.5
sg4
I1000
sg5
g1092
sg10
F0
sg11
I2
sg12
I4
sS'N'
I100
sg13
F0.98999999999999999
sg14
g17
sg18
g19
sS'T'
I100
sg20
g6
(g8
S'433333\xd3?'
tRp1099
sg22
g23
sg24
I13
sg25
I01
sg26
g27
sa(dp1100
g3
F0.5
sg4
I1000
sg5
g1092
sg10
F0
sg11
I2
sg12
I4
sS'N'
I100
sg13
F0.98999999999999999
sg14
g17
sg18
g19
sS'T'
I100
sg20
g6
(g8
S'\x9a\x99\x99\x99\x99\x99\xd9?'
tRp1101
sg22
g23
sg24
I13
sg25
I01
sg26
g27
sa(dp1102
g3
F0.5
sg4
I1000
sg5
g1092
sg10
F0
sg11
I2
sg12
I4
sS'N'
I100
sg13
F0.98999999999999999
sg14
g17
sg18
g19
sS'T'
I100
sg20
g6
(g8
S'\x00\x00\x00\x00\x00\x00\xe0?'
tRp1103
sg22
g23
sg24
I13
sg25
I01
sg26
g27
sa(dp1104
g3
F0.5
sg4
I1000
sg5
g1092
sg10
F0
sg11
I2
sg12
I4
sS'N'
I100
sg13
F0.98999999999999999
sg14
g17
sg18
g19
sS'T'
I100
sg20
g6
(g8
S'433333\xe3?'
tRp1105
sg22
g23
sg24
I13
sg25
I01
sg26
g27
sa(dp1106
g3
F0.5
sg4
I1000
sg5
g1092
sg10
F0
sg11
I2
sg12
I4
sS'N'
I100
sg13
F0.98999999999999999
sg14
g17
sg18
g19
sS'T'
I100
sg20
g6
(g8
S'gfffff\xe6?'
tRp1107
sg22
g23
sg24
I13
sg25
I01
sg26
g27
sa(dp1108
g3
F0.5
sg4
I1000
sg5
g1092
sg10
F0
sg11
I2
sg12
I4
sS'N'
I100
sg13
F0.98999999999999999
sg14
g17
sg18
g19
sS'T'
I100
sg20
g6
(g8
S'\x9a\x99\x99\x99\x99\x99\xe9?'
tRp1109
sg22
g23
sg24
I13
sg25
I01
sg26
g27
sa(dp1110
g3
F0.5
sg4
I1000
sg5
g1092
sg10
F0
sg11
I2
sg12
I4
sS'N'
I100
sg13
F0.98999999999999999
sg14
g17
sg18
g19
sS'T'
I100
sg20
g6
(g8
S'\xcd\xcc\xcc\xcc\xcc\xcc\xec?'
tRp1111
sg22
g23
sg24
I13
sg25
I01
sg26
g27
sa(dp1112
g3
F0.5
sg4
I1000
sg5
g1092
sg10
F0
sg11
I2
sg12
I4
sS'N'
I100
sg13
F0.98999999999999999
sg14
g17
sg18
g19
sS'T'
I100
sg20
g6
(g8
S'\x1f\x85\xebQ\xb8\x1e\xed?'
tRp1113
sg22
g23
sg24
I13
sg25
I01
sg26
g27
sa(dp1114
g3
F0.5
sg4
I1000
sg5
g1092
sg10
F0
sg11
I2
sg12
I4
sS'N'
I100
sg13
F0.98999999999999999
sg14
g17
sg18
g19
sS'T'
I100
sg20
g6
(g8
S'q=\n\xd7\xa3p\xed?'
tRp1115
sg22
g23
sg24
I13
sg25
I01
sg26
g27
sa(dp1116
g3
F0.5
sg4
I1000
sg5
g1092
sg10
F0
sg11
I2
sg12
I4
sS'N'
I100
sg13
F0.98999999999999999
sg14
g17
sg18
g19
sS'T'
I100
sg20
g6
(g8
S'\xc3\xf5(\\\x8f\xc2\xed?'
tRp1117
sg22
g23
sg24
I13
sg25
I01
sg26
g27
sa(dp1118
g3
F0.5
sg4
I1000
sg5
g1092
sg10
F0
sg11
I2
sg12
I4
sS'N'
I100
sg13
F0.98999999999999999
sg14
g17
sg18
g19
sS'T'
I100
sg20
g6
(g8
S'\x15\xaeG\xe1z\x14\xee?'
tRp1119
sg22
g23
sg24
I13
sg25
I01
sg26
g27
sa(dp1120
g3
F0.5
sg4
I1000
sg5
g1092
sg10
F0
sg11
I2
sg12
I4
sS'N'
I100
sg13
F0.98999999999999999
sg14
g17
sg18
g19
sS'T'
I100
sg20
g6
(g8
S'gfffff\xee?'
tRp1121
sg22
g23
sg24
I13
sg25
I01
sg26
g27
sa(dp1122
g3
F0.5
sg4
I1000
sg5
g1092
sg10
F0
sg11
I2
sg12
I4
sS'N'
I100
sg13
F0.98999999999999999
sg14
g17
sg18
g19
sS'T'
I100
sg20
g6
(g8
S'\xb9\x1e\x85\xebQ\xb8\xee?'
tRp1123
sg22
g23
sg24
I13
sg25
I01
sg26
g27
sa(dp1124
g3
F0.5
sg4
I1000
sg5
g1092
sg10
F0
sg11
I2
sg12
I4
sS'N'
I100
sg13
F0.98999999999999999
sg14
g17
sg18
g19
sS'T'
I100
sg20
g6
(g8
S'\x0b\xd7\xa3p=\n\xef?'
tRp1125
sg22
g23
sg24
I13
sg25
I01
sg26
g27
sa(dp1126
g3
F0.5
sg4
I1000
sg5
g1092
sg10
F0
sg11
I2
sg12
I4
sS'N'
I100
sg13
F0.98999999999999999
sg14
g17
sg18
g19
sS'T'
I100
sg20
g6
(g8
S']\x8f\xc2\xf5(\\\xef?'
tRp1127
sg22
g23
sg24
I13
sg25
I01
sg26
g27
sa(dp1128
g3
F0.5
sg4
I1000
sg5
g1092
sg10
F0
sg11
I2
sg12
I4
sS'N'
I100
sg13
F0.98999999999999999
sg14
g17
sg18
g19
sS'T'
I100
sg20
g6
(g8
S'\xafG\xe1z\x14\xae\xef?'
tRp1129
sg22
g23
sg24
I13
sg25
I01
sg26
g27
sa(dp1130
g3
F0.5
sg4
I1000
sg5
g1092
sg10
F0
sg11
I2
sg12
I4
sS'N'
I100
sg13
F0.98999999999999999
sg14
g17
sg18
g19
sS'T'
I100
sg20
g6
(g8
S'\x00\x00\x00\x00\x00\x00\xf0?'
tRp1131
sg22
g23
sg24
I13
sg25
I01
sg26
g27
sa(dp1132
g3
F0.5
sg4
I1000
sg5
g6
(g8
S'\xb6\x7f\\]\tfo@'
tRp1133
sg10
F0
sg11
I2
sg12
I4
sS'N'
I100
sg13
F0.98999999999999999
sg14
g17
sg18
g19
sS'T'
I100
sg20
g6
(g8
S'\x00\x00\x00\x00\x00\x00\x00\x00'
tRp1134
sg22
g23
sg24
I13
sg25
I01
sg26
g27
sa(dp1135
g3
F0.5
sg4
I1000
sg5
g1133
sg10
F0
sg11
I2
sg12
I4
sS'N'
I100
sg13
F0.98999999999999999
sg14
g17
sg18
g19
sS'T'
I100
sg20
g6
(g8
S'\x9a\x99\x99\x99\x99\x99\xb9?'
tRp1136
sg22
g23
sg24
I13
sg25
I01
sg26
g27
sa(dp1137
g3
F0.5
sg4
I1000
sg5
g1133
sg10
F0
sg11
I2
sg12
I4
sS'N'
I100
sg13
F0.98999999999999999
sg14
g17
sg18
g19
sS'T'
I100
sg20
g6
(g8
S'\x9a\x99\x99\x99\x99\x99\xc9?'
tRp1138
sg22
g23
sg24
I13
sg25
I01
sg26
g27
sa(dp1139
g3
F0.5
sg4
I1000
sg5
g1133
sg10
F0
sg11
I2
sg12
I4
sS'N'
I100
sg13
F0.98999999999999999
sg14
g17
sg18
g19
sS'T'
I100
sg20
g6
(g8
S'433333\xd3?'
tRp1140
sg22
g23
sg24
I13
sg25
I01
sg26
g27
sa(dp1141
g3
F0.5
sg4
I1000
sg5
g1133
sg10
F0
sg11
I2
sg12
I4
sS'N'
I100
sg13
F0.98999999999999999
sg14
g17
sg18
g19
sS'T'
I100
sg20
g6
(g8
S'\x9a\x99\x99\x99\x99\x99\xd9?'
tRp1142
sg22
g23
sg24
I13
sg25
I01
sg26
g27
sa(dp1143
g3
F0.5
sg4
I1000
sg5
g1133
sg10
F0
sg11
I2
sg12
I4
sS'N'
I100
sg13
F0.98999999999999999
sg14
g17
sg18
g19
sS'T'
I100
sg20
g6
(g8
S'\x00\x00\x00\x00\x00\x00\xe0?'
tRp1144
sg22
g23
sg24
I13
sg25
I01
sg26
g27
sa(dp1145
g3
F0.5
sg4
I1000
sg5
g1133
sg10
F0
sg11
I2
sg12
I4
sS'N'
I100
sg13
F0.98999999999999999
sg14
g17
sg18
g19
sS'T'
I100
sg20
g6
(g8
S'433333\xe3?'
tRp1146
sg22
g23
sg24
I13
sg25
I01
sg26
g27
sa(dp1147
g3
F0.5
sg4
I1000
sg5
g1133
sg10
F0
sg11
I2
sg12
I4
sS'N'
I100
sg13
F0.98999999999999999
sg14
g17
sg18
g19
sS'T'
I100
sg20
g6
(g8
S'gfffff\xe6?'
tRp1148
sg22
g23
sg24
I13
sg25
I01
sg26
g27
sa(dp1149
g3
F0.5
sg4
I1000
sg5
g1133
sg10
F0
sg11
I2
sg12
I4
sS'N'
I100
sg13
F0.98999999999999999
sg14
g17
sg18
g19
sS'T'
I100
sg20
g6
(g8
S'\x9a\x99\x99\x99\x99\x99\xe9?'
tRp1150
sg22
g23
sg24
I13
sg25
I01
sg26
g27
sa(dp1151
g3
F0.5
sg4
I1000
sg5
g1133
sg10
F0
sg11
I2
sg12
I4
sS'N'
I100
sg13
F0.98999999999999999
sg14
g17
sg18
g19
sS'T'
I100
sg20
g6
(g8
S'\xcd\xcc\xcc\xcc\xcc\xcc\xec?'
tRp1152
sg22
g23
sg24
I13
sg25
I01
sg26
g27
sa(dp1153
g3
F0.5
sg4
I1000
sg5
g1133
sg10
F0
sg11
I2
sg12
I4
sS'N'
I100
sg13
F0.98999999999999999
sg14
g17
sg18
g19
sS'T'
I100
sg20
g6
(g8
S'\x1f\x85\xebQ\xb8\x1e\xed?'
tRp1154
sg22
g23
sg24
I13
sg25
I01
sg26
g27
sa(dp1155
g3
F0.5
sg4
I1000
sg5
g1133
sg10
F0
sg11
I2
sg12
I4
sS'N'
I100
sg13
F0.98999999999999999
sg14
g17
sg18
g19
sS'T'
I100
sg20
g6
(g8
S'q=\n\xd7\xa3p\xed?'
tRp1156
sg22
g23
sg24
I13
sg25
I01
sg26
g27
sa(dp1157
g3
F0.5
sg4
I1000
sg5
g1133
sg10
F0
sg11
I2
sg12
I4
sS'N'
I100
sg13
F0.98999999999999999
sg14
g17
sg18
g19
sS'T'
I100
sg20
g6
(g8
S'\xc3\xf5(\\\x8f\xc2\xed?'
tRp1158
sg22
g23
sg24
I13
sg25
I01
sg26
g27
sa(dp1159
g3
F0.5
sg4
I1000
sg5
g1133
sg10
F0
sg11
I2
sg12
I4
sS'N'
I100
sg13
F0.98999999999999999
sg14
g17
sg18
g19
sS'T'
I100
sg20
g6
(g8
S'\x15\xaeG\xe1z\x14\xee?'
tRp1160
sg22
g23
sg24
I13
sg25
I01
sg26
g27
sa(dp1161
g3
F0.5
sg4
I1000
sg5
g1133
sg10
F0
sg11
I2
sg12
I4
sS'N'
I100
sg13
F0.98999999999999999
sg14
g17
sg18
g19
sS'T'
I100
sg20
g6
(g8
S'gfffff\xee?'
tRp1162
sg22
g23
sg24
I13
sg25
I01
sg26
g27
sa(dp1163
g3
F0.5
sg4
I1000
sg5
g1133
sg10
F0
sg11
I2
sg12
I4
sS'N'
I100
sg13
F0.98999999999999999
sg14
g17
sg18
g19
sS'T'
I100
sg20
g6
(g8
S'\xb9\x1e\x85\xebQ\xb8\xee?'
tRp1164
sg22
g23
sg24
I13
sg25
I01
sg26
g27
sa(dp1165
g3
F0.5
sg4
I1000
sg5
g1133
sg10
F0
sg11
I2
sg12
I4
sS'N'
I100
sg13
F0.98999999999999999
sg14
g17
sg18
g19
sS'T'
I100
sg20
g6
(g8
S'\x0b\xd7\xa3p=\n\xef?'
tRp1166
sg22
g23
sg24
I13
sg25
I01
sg26
g27
sa(dp1167
g3
F0.5
sg4
I1000
sg5
g1133
sg10
F0
sg11
I2
sg12
I4
sS'N'
I100
sg13
F0.98999999999999999
sg14
g17
sg18
g19
sS'T'
I100
sg20
g6
(g8
S']\x8f\xc2\xf5(\\\xef?'
tRp1168
sg22
g23
sg24
I13
sg25
I01
sg26
g27
sa(dp1169
g3
F0.5
sg4
I1000
sg5
g1133
sg10
F0
sg11
I2
sg12
I4
sS'N'
I100
sg13
F0.98999999999999999
sg14
g17
sg18
g19
sS'T'
I100
sg20
g6
(g8
S'\xafG\xe1z\x14\xae\xef?'
tRp1170
sg22
g23
sg24
I13
sg25
I01
sg26
g27
sa(dp1171
g3
F0.5
sg4
I1000
sg5
g1133
sg10
F0
sg11
I2
sg12
I4
sS'N'
I100
sg13
F0.98999999999999999
sg14
g17
sg18
g19
sS'T'
I100
sg20
g6
(g8
S'\x00\x00\x00\x00\x00\x00\xf0?'
tRp1172
sg22
g23
sg24
I13
sg25
I01
sg26
g27
sa(dp1173
g3
F0.5
sg4
I1000
sg5
g6
(g8
S"'fx\xf8\xb6\xe1x@"
tRp1174
sg10
F0
sg11
I2
sg12
I4
sS'N'
I100
sg13
F0.98999999999999999
sg14
g17
sg18
g19
sS'T'
I100
sg20
g6
(g8
S'\x00\x00\x00\x00\x00\x00\x00\x00'
tRp1175
sg22
g23
sg24
I13
sg25
I01
sg26
g27
sa(dp1176
g3
F0.5
sg4
I1000
sg5
g1174
sg10
F0
sg11
I2
sg12
I4
sS'N'
I100
sg13
F0.98999999999999999
sg14
g17
sg18
g19
sS'T'
I100
sg20
g6
(g8
S'\x9a\x99\x99\x99\x99\x99\xb9?'
tRp1177
sg22
g23
sg24
I13
sg25
I01
sg26
g27
sa(dp1178
g3
F0.5
sg4
I1000
sg5
g1174
sg10
F0
sg11
I2
sg12
I4
sS'N'
I100
sg13
F0.98999999999999999
sg14
g17
sg18
g19
sS'T'
I100
sg20
g6
(g8
S'\x9a\x99\x99\x99\x99\x99\xc9?'
tRp1179
sg22
g23
sg24
I13
sg25
I01
sg26
g27
sa(dp1180
g3
F0.5
sg4
I1000
sg5
g1174
sg10
F0
sg11
I2
sg12
I4
sS'N'
I100
sg13
F0.98999999999999999
sg14
g17
sg18
g19
sS'T'
I100
sg20
g6
(g8
S'433333\xd3?'
tRp1181
sg22
g23
sg24
I13
sg25
I01
sg26
g27
sa(dp1182
g3
F0.5
sg4
I1000
sg5
g1174
sg10
F0
sg11
I2
sg12
I4
sS'N'
I100
sg13
F0.98999999999999999
sg14
g17
sg18
g19
sS'T'
I100
sg20
g6
(g8
S'\x9a\x99\x99\x99\x99\x99\xd9?'
tRp1183
sg22
g23
sg24
I13
sg25
I01
sg26
g27
sa(dp1184
g3
F0.5
sg4
I1000
sg5
g1174
sg10
F0
sg11
I2
sg12
I4
sS'N'
I100
sg13
F0.98999999999999999
sg14
g17
sg18
g19
sS'T'
I100
sg20
g6
(g8
S'\x00\x00\x00\x00\x00\x00\xe0?'
tRp1185
sg22
g23
sg24
I13
sg25
I01
sg26
g27
sa(dp1186
g3
F0.5
sg4
I1000
sg5
g1174
sg10
F0
sg11
I2
sg12
I4
sS'N'
I100
sg13
F0.98999999999999999
sg14
g17
sg18
g19
sS'T'
I100
sg20
g6
(g8
S'433333\xe3?'
tRp1187
sg22
g23
sg24
I13
sg25
I01
sg26
g27
sa(dp1188
g3
F0.5
sg4
I1000
sg5
g1174
sg10
F0
sg11
I2
sg12
I4
sS'N'
I100
sg13
F0.98999999999999999
sg14
g17
sg18
g19
sS'T'
I100
sg20
g6
(g8
S'gfffff\xe6?'
tRp1189
sg22
g23
sg24
I13
sg25
I01
sg26
g27
sa(dp1190
g3
F0.5
sg4
I1000
sg5
g1174
sg10
F0
sg11
I2
sg12
I4
sS'N'
I100
sg13
F0.98999999999999999
sg14
g17
sg18
g19
sS'T'
I100
sg20
g6
(g8
S'\x9a\x99\x99\x99\x99\x99\xe9?'
tRp1191
sg22
g23
sg24
I13
sg25
I01
sg26
g27
sa(dp1192
g3
F0.5
sg4
I1000
sg5
g1174
sg10
F0
sg11
I2
sg12
I4
sS'N'
I100
sg13
F0.98999999999999999
sg14
g17
sg18
g19
sS'T'
I100
sg20
g6
(g8
S'\xcd\xcc\xcc\xcc\xcc\xcc\xec?'
tRp1193
sg22
g23
sg24
I13
sg25
I01
sg26
g27
sa(dp1194
g3
F0.5
sg4
I1000
sg5
g1174
sg10
F0
sg11
I2
sg12
I4
sS'N'
I100
sg13
F0.98999999999999999
sg14
g17
sg18
g19
sS'T'
I100
sg20
g6
(g8
S'\x1f\x85\xebQ\xb8\x1e\xed?'
tRp1195
sg22
g23
sg24
I13
sg25
I01
sg26
g27
sa(dp1196
g3
F0.5
sg4
I1000
sg5
g1174
sg10
F0
sg11
I2
sg12
I4
sS'N'
I100
sg13
F0.98999999999999999
sg14
g17
sg18
g19
sS'T'
I100
sg20
g6
(g8
S'q=\n\xd7\xa3p\xed?'
tRp1197
sg22
g23
sg24
I13
sg25
I01
sg26
g27
sa(dp1198
g3
F0.5
sg4
I1000
sg5
g1174
sg10
F0
sg11
I2
sg12
I4
sS'N'
I100
sg13
F0.98999999999999999
sg14
g17
sg18
g19
sS'T'
I100
sg20
g6
(g8
S'\xc3\xf5(\\\x8f\xc2\xed?'
tRp1199
sg22
g23
sg24
I13
sg25
I01
sg26
g27
sa(dp1200
g3
F0.5
sg4
I1000
sg5
g1174
sg10
F0
sg11
I2
sg12
I4
sS'N'
I100
sg13
F0.98999999999999999
sg14
g17
sg18
g19
sS'T'
I100
sg20
g6
(g8
S'\x15\xaeG\xe1z\x14\xee?'
tRp1201
sg22
g23
sg24
I13
sg25
I01
sg26
g27
sa(dp1202
g3
F0.5
sg4
I1000
sg5
g1174
sg10
F0
sg11
I2
sg12
I4
sS'N'
I100
sg13
F0.98999999999999999
sg14
g17
sg18
g19
sS'T'
I100
sg20
g6
(g8
S'gfffff\xee?'
tRp1203
sg22
g23
sg24
I13
sg25
I01
sg26
g27
sa(dp1204
g3
F0.5
sg4
I1000
sg5
g1174
sg10
F0
sg11
I2
sg12
I4
sS'N'
I100
sg13
F0.98999999999999999
sg14
g17
sg18
g19
sS'T'
I100
sg20
g6
(g8
S'\xb9\x1e\x85\xebQ\xb8\xee?'
tRp1205
sg22
g23
sg24
I13
sg25
I01
sg26
g27
sa(dp1206
g3
F0.5
sg4
I1000
sg5
g1174
sg10
F0
sg11
I2
sg12
I4
sS'N'
I100
sg13
F0.98999999999999999
sg14
g17
sg18
g19
sS'T'
I100
sg20
g6
(g8
S'\x0b\xd7\xa3p=\n\xef?'
tRp1207
sg22
g23
sg24
I13
sg25
I01
sg26
g27
sa(dp1208
g3
F0.5
sg4
I1000
sg5
g1174
sg10
F0
sg11
I2
sg12
I4
sS'N'
I100
sg13
F0.98999999999999999
sg14
g17
sg18
g19
sS'T'
I100
sg20
g6
(g8
S']\x8f\xc2\xf5(\\\xef?'
tRp1209
sg22
g23
sg24
I13
sg25
I01
sg26
g27
sa(dp1210
g3
F0.5
sg4
I1000
sg5
g1174
sg10
F0
sg11
I2
sg12
I4
sS'N'
I100
sg13
F0.98999999999999999
sg14
g17
sg18
g19
sS'T'
I100
sg20
g6
(g8
S'\xafG\xe1z\x14\xae\xef?'
tRp1211
sg22
g23
sg24
I13
sg25
I01
sg26
g27
sa(dp1212
g3
F0.5
sg4
I1000
sg5
g1174
sg10
F0
sg11
I2
sg12
I4
sS'N'
I100
sg13
F0.98999999999999999
sg14
g17
sg18
g19
sS'T'
I100
sg20
g6
(g8
S'\x00\x00\x00\x00\x00\x00\xf0?'
tRp1213
sg22
g23
sg24
I13
sg25
I01
sg26
g27
sa(dp1214
g3
F0.5
sg4
I1000
sg5
g6
(g8
S'\xbf\x0b9\xa4\xa8\xb7\x83@'
tRp1215
sg10
F0
sg11
I2
sg12
I4
sS'N'
I100
sg13
F0.98999999999999999
sg14
g17
sg18
g19
sS'T'
I100
sg20
g6
(g8
S'\x00\x00\x00\x00\x00\x00\x00\x00'
tRp1216
sg22
g23
sg24
I13
sg25
I01
sg26
g27
sa(dp1217
g3
F0.5
sg4
I1000
sg5
g1215
sg10
F0
sg11
I2
sg12
I4
sS'N'
I100
sg13
F0.98999999999999999
sg14
g17
sg18
g19
sS'T'
I100
sg20
g6
(g8
S'\x9a\x99\x99\x99\x99\x99\xb9?'
tRp1218
sg22
g23
sg24
I13
sg25
I01
sg26
g27
sa(dp1219
g3
F0.5
sg4
I1000
sg5
g1215
sg10
F0
sg11
I2
sg12
I4
sS'N'
I100
sg13
F0.98999999999999999
sg14
g17
sg18
g19
sS'T'
I100
sg20
g6
(g8
S'\x9a\x99\x99\x99\x99\x99\xc9?'
tRp1220
sg22
g23
sg24
I13
sg25
I01
sg26
g27
sa(dp1221
g3
F0.5
sg4
I1000
sg5
g1215
sg10
F0
sg11
I2
sg12
I4
sS'N'
I100
sg13
F0.98999999999999999
sg14
g17
sg18
g19
sS'T'
I100
sg20
g6
(g8
S'433333\xd3?'
tRp1222
sg22
g23
sg24
I13
sg25
I01
sg26
g27
sa(dp1223
g3
F0.5
sg4
I1000
sg5
g1215
sg10
F0
sg11
I2
sg12
I4
sS'N'
I100
sg13
F0.98999999999999999
sg14
g17
sg18
g19
sS'T'
I100
sg20
g6
(g8
S'\x9a\x99\x99\x99\x99\x99\xd9?'
tRp1224
sg22
g23
sg24
I13
sg25
I01
sg26
g27
sa(dp1225
g3
F0.5
sg4
I1000
sg5
g1215
sg10
F0
sg11
I2
sg12
I4
sS'N'
I100
sg13
F0.98999999999999999
sg14
g17
sg18
g19
sS'T'
I100
sg20
g6
(g8
S'\x00\x00\x00\x00\x00\x00\xe0?'
tRp1226
sg22
g23
sg24
I13
sg25
I01
sg26
g27
sa(dp1227
g3
F0.5
sg4
I1000
sg5
g1215
sg10
F0
sg11
I2
sg12
I4
sS'N'
I100
sg13
F0.98999999999999999
sg14
g17
sg18
g19
sS'T'
I100
sg20
g6
(g8
S'433333\xe3?'
tRp1228
sg22
g23
sg24
I13
sg25
I01
sg26
g27
sa(dp1229
g3
F0.5
sg4
I1000
sg5
g1215
sg10
F0
sg11
I2
sg12
I4
sS'N'
I100
sg13
F0.98999999999999999
sg14
g17
sg18
g19
sS'T'
I100
sg20
g6
(g8
S'gfffff\xe6?'
tRp1230
sg22
g23
sg24
I13
sg25
I01
sg26
g27
sa(dp1231
g3
F0.5
sg4
I1000
sg5
g1215
sg10
F0
sg11
I2
sg12
I4
sS'N'
I100
sg13
F0.98999999999999999
sg14
g17
sg18
g19
sS'T'
I100
sg20
g6
(g8
S'\x9a\x99\x99\x99\x99\x99\xe9?'
tRp1232
sg22
g23
sg24
I13
sg25
I01
sg26
g27
sa(dp1233
g3
F0.5
sg4
I1000
sg5
g1215
sg10
F0
sg11
I2
sg12
I4
sS'N'
I100
sg13
F0.98999999999999999
sg14
g17
sg18
g19
sS'T'
I100
sg20
g6
(g8
S'\xcd\xcc\xcc\xcc\xcc\xcc\xec?'
tRp1234
sg22
g23
sg24
I13
sg25
I01
sg26
g27
sa(dp1235
g3
F0.5
sg4
I1000
sg5
g1215
sg10
F0
sg11
I2
sg12
I4
sS'N'
I100
sg13
F0.98999999999999999
sg14
g17
sg18
g19
sS'T'
I100
sg20
g6
(g8
S'\x1f\x85\xebQ\xb8\x1e\xed?'
tRp1236
sg22
g23
sg24
I13
sg25
I01
sg26
g27
sa(dp1237
g3
F0.5
sg4
I1000
sg5
g1215
sg10
F0
sg11
I2
sg12
I4
sS'N'
I100
sg13
F0.98999999999999999
sg14
g17
sg18
g19
sS'T'
I100
sg20
g6
(g8
S'q=\n\xd7\xa3p\xed?'
tRp1238
sg22
g23
sg24
I13
sg25
I01
sg26
g27
sa(dp1239
g3
F0.5
sg4
I1000
sg5
g1215
sg10
F0
sg11
I2
sg12
I4
sS'N'
I100
sg13
F0.98999999999999999
sg14
g17
sg18
g19
sS'T'
I100
sg20
g6
(g8
S'\xc3\xf5(\\\x8f\xc2\xed?'
tRp1240
sg22
g23
sg24
I13
sg25
I01
sg26
g27
sa(dp1241
g3
F0.5
sg4
I1000
sg5
g1215
sg10
F0
sg11
I2
sg12
I4
sS'N'
I100
sg13
F0.98999999999999999
sg14
g17
sg18
g19
sS'T'
I100
sg20
g6
(g8
S'\x15\xaeG\xe1z\x14\xee?'
tRp1242
sg22
g23
sg24
I13
sg25
I01
sg26
g27
sa(dp1243
g3
F0.5
sg4
I1000
sg5
g1215
sg10
F0
sg11
I2
sg12
I4
sS'N'
I100
sg13
F0.98999999999999999
sg14
g17
sg18
g19
sS'T'
I100
sg20
g6
(g8
S'gfffff\xee?'
tRp1244
sg22
g23
sg24
I13
sg25
I01
sg26
g27
sa(dp1245
g3
F0.5
sg4
I1000
sg5
g1215
sg10
F0
sg11
I2
sg12
I4
sS'N'
I100
sg13
F0.98999999999999999
sg14
g17
sg18
g19
sS'T'
I100
sg20
g6
(g8
S'\xb9\x1e\x85\xebQ\xb8\xee?'
tRp1246
sg22
g23
sg24
I13
sg25
I01
sg26
g27
sa(dp1247
g3
F0.5
sg4
I1000
sg5
g1215
sg10
F0
sg11
I2
sg12
I4
sS'N'
I100
sg13
F0.98999999999999999
sg14
g17
sg18
g19
sS'T'
I100
sg20
g6
(g8
S'\x0b\xd7\xa3p=\n\xef?'
tRp1248
sg22
g23
sg24
I13
sg25
I01
sg26
g27
sa(dp1249
g3
F0.5
sg4
I1000
sg5
g1215
sg10
F0
sg11
I2
sg12
I4
sS'N'
I100
sg13
F0.98999999999999999
sg14
g17
sg18
g19
sS'T'
I100
sg20
g6
(g8
S']\x8f\xc2\xf5(\\\xef?'
tRp1250
sg22
g23
sg24
I13
sg25
I01
sg26
g27
sa(dp1251
g3
F0.5
sg4
I1000
sg5
g1215
sg10
F0
sg11
I2
sg12
I4
sS'N'
I100
sg13
F0.98999999999999999
sg14
g17
sg18
g19
sS'T'
I100
sg20
g6
(g8
S'\xafG\xe1z\x14\xae\xef?'
tRp1252
sg22
g23
sg24
I13
sg25
I01
sg26
g27
sa(dp1253
g3
F0.5
sg4
I1000
sg5
g1215
sg10
F0
sg11
I2
sg12
I4
sS'N'
I100
sg13
F0.98999999999999999
sg14
g17
sg18
g19
sS'T'
I100
sg20
g6
(g8
S'\x00\x00\x00\x00\x00\x00\xf0?'
tRp1254
sg22
g23
sg24
I13
sg25
I01
sg26
g27
sa(dp1255
g3
F0.5
sg4
I1000
sg5
g6
(g8
S'l\x00\x00\x00\x00@\x8f@'
tRp1256
sg10
F0
sg11
I2
sg12
I4
sS'N'
I100
sg13
F0.98999999999999999
sg14
g17
sg18
g19
sS'T'
I100
sg20
g6
(g8
S'\x00\x00\x00\x00\x00\x00\x00\x00'
tRp1257
sg22
g23
sg24
I13
sg25
I01
sg26
g27
sa(dp1258
g3
F0.5
sg4
I1000
sg5
g1256
sg10
F0
sg11
I2
sg12
I4
sS'N'
I100
sg13
F0.98999999999999999
sg14
g17
sg18
g19
sS'T'
I100
sg20
g6
(g8
S'\x9a\x99\x99\x99\x99\x99\xb9?'
tRp1259
sg22
g23
sg24
I13
sg25
I01
sg26
g27
sa(dp1260
g3
F0.5
sg4
I1000
sg5
g1256
sg10
F0
sg11
I2
sg12
I4
sS'N'
I100
sg13
F0.98999999999999999
sg14
g17
sg18
g19
sS'T'
I100
sg20
g6
(g8
S'\x9a\x99\x99\x99\x99\x99\xc9?'
tRp1261
sg22
g23
sg24
I13
sg25
I01
sg26
g27
sa(dp1262
g3
F0.5
sg4
I1000
sg5
g1256
sg10
F0
sg11
I2
sg12
I4
sS'N'
I100
sg13
F0.98999999999999999
sg14
g17
sg18
g19
sS'T'
I100
sg20
g6
(g8
S'433333\xd3?'
tRp1263
sg22
g23
sg24
I13
sg25
I01
sg26
g27
sa(dp1264
g3
F0.5
sg4
I1000
sg5
g1256
sg10
F0
sg11
I2
sg12
I4
sS'N'
I100
sg13
F0.98999999999999999
sg14
g17
sg18
g19
sS'T'
I100
sg20
g6
(g8
S'\x9a\x99\x99\x99\x99\x99\xd9?'
tRp1265
sg22
g23
sg24
I13
sg25
I01
sg26
g27
sa(dp1266
g3
F0.5
sg4
I1000
sg5
g1256
sg10
F0
sg11
I2
sg12
I4
sS'N'
I100
sg13
F0.98999999999999999
sg14
g17
sg18
g19
sS'T'
I100
sg20
g6
(g8
S'\x00\x00\x00\x00\x00\x00\xe0?'
tRp1267
sg22
g23
sg24
I13
sg25
I01
sg26
g27
sa(dp1268
g3
F0.5
sg4
I1000
sg5
g1256
sg10
F0
sg11
I2
sg12
I4
sS'N'
I100
sg13
F0.98999999999999999
sg14
g17
sg18
g19
sS'T'
I100
sg20
g6
(g8
S'433333\xe3?'
tRp1269
sg22
g23
sg24
I13
sg25
I01
sg26
g27
sa(dp1270
g3
F0.5
sg4
I1000
sg5
g1256
sg10
F0
sg11
I2
sg12
I4
sS'N'
I100
sg13
F0.98999999999999999
sg14
g17
sg18
g19
sS'T'
I100
sg20
g6
(g8
S'gfffff\xe6?'
tRp1271
sg22
g23
sg24
I13
sg25
I01
sg26
g27
sa(dp1272
g3
F0.5
sg4
I1000
sg5
g1256
sg10
F0
sg11
I2
sg12
I4
sS'N'
I100
sg13
F0.98999999999999999
sg14
g17
sg18
g19
sS'T'
I100
sg20
g6
(g8
S'\x9a\x99\x99\x99\x99\x99\xe9?'
tRp1273
sg22
g23
sg24
I13
sg25
I01
sg26
g27
sa(dp1274
g3
F0.5
sg4
I1000
sg5
g1256
sg10
F0
sg11
I2
sg12
I4
sS'N'
I100
sg13
F0.98999999999999999
sg14
g17
sg18
g19
sS'T'
I100
sg20
g6
(g8
S'\xcd\xcc\xcc\xcc\xcc\xcc\xec?'
tRp1275
sg22
g23
sg24
I13
sg25
I01
sg26
g27
sa(dp1276
g3
F0.5
sg4
I1000
sg5
g1256
sg10
F0
sg11
I2
sg12
I4
sS'N'
I100
sg13
F0.98999999999999999
sg14
g17
sg18
g19
sS'T'
I100
sg20
g6
(g8
S'\x1f\x85\xebQ\xb8\x1e\xed?'
tRp1277
sg22
g23
sg24
I13
sg25
I01
sg26
g27
sa(dp1278
g3
F0.5
sg4
I1000
sg5
g1256
sg10
F0
sg11
I2
sg12
I4
sS'N'
I100
sg13
F0.98999999999999999
sg14
g17
sg18
g19
sS'T'
I100
sg20
g6
(g8
S'q=\n\xd7\xa3p\xed?'
tRp1279
sg22
g23
sg24
I13
sg25
I01
sg26
g27
sa(dp1280
g3
F0.5
sg4
I1000
sg5
g1256
sg10
F0
sg11
I2
sg12
I4
sS'N'
I100
sg13
F0.98999999999999999
sg14
g17
sg18
g19
sS'T'
I100
sg20
g6
(g8
S'\xc3\xf5(\\\x8f\xc2\xed?'
tRp1281
sg22
g23
sg24
I13
sg25
I01
sg26
g27
sa(dp1282
g3
F0.5
sg4
I1000
sg5
g1256
sg10
F0
sg11
I2
sg12
I4
sS'N'
I100
sg13
F0.98999999999999999
sg14
g17
sg18
g19
sS'T'
I100
sg20
g6
(g8
S'\x15\xaeG\xe1z\x14\xee?'
tRp1283
sg22
g23
sg24
I13
sg25
I01
sg26
g27
sa(dp1284
g3
F0.5
sg4
I1000
sg5
g1256
sg10
F0
sg11
I2
sg12
I4
sS'N'
I100
sg13
F0.98999999999999999
sg14
g17
sg18
g19
sS'T'
I100
sg20
g6
(g8
S'gfffff\xee?'
tRp1285
sg22
g23
sg24
I13
sg25
I01
sg26
g27
sa(dp1286
g3
F0.5
sg4
I1000
sg5
g1256
sg10
F0
sg11
I2
sg12
I4
sS'N'
I100
sg13
F0.98999999999999999
sg14
g17
sg18
g19
sS'T'
I100
sg20
g6
(g8
S'\xb9\x1e\x85\xebQ\xb8\xee?'
tRp1287
sg22
g23
sg24
I13
sg25
I01
sg26
g27
sa(dp1288
g3
F0.5
sg4
I1000
sg5
g1256
sg10
F0
sg11
I2
sg12
I4
sS'N'
I100
sg13
F0.98999999999999999
sg14
g17
sg18
g19
sS'T'
I100
sg20
g6
(g8
S'\x0b\xd7\xa3p=\n\xef?'
tRp1289
sg22
g23
sg24
I13
sg25
I01
sg26
g27
sa(dp1290
g3
F0.5
sg4
I1000
sg5
g1256
sg10
F0
sg11
I2
sg12
I4
sS'N'
I100
sg13
F0.98999999999999999
sg14
g17
sg18
g19
sS'T'
I100
sg20
g6
(g8
S']\x8f\xc2\xf5(\\\xef?'
tRp1291
sg22
g23
sg24
I13
sg25
I01
sg26
g27
sa(dp1292
g3
F0.5
sg4
I1000
sg5
g1256
sg10
F0
sg11
I2
sg12
I4
sS'N'
I100
sg13
F0.98999999999999999
sg14
g17
sg18
g19
sS'T'
I100
sg20
g6
(g8
S'\xafG\xe1z\x14\xae\xef?'
tRp1293
sg22
g23
sg24
I13
sg25
I01
sg26
g27
sa(dp1294
g3
F0.5
sg4
I1000
sg5
g1256
sg10
F0
sg11
I2
sg12
I4
sS'N'
I100
sg13
F0.98999999999999999
sg14
g17
sg18
g19
sS'T'
I100
sg20
g6
(g8
S'\x00\x00\x00\x00\x00\x00\xf0?'
tRp1295
sg22
g23
sg24
I13
sg25
I01
sg26
g27
sa.