(lp1
(dp2
S'alpha'
p3
cnumpy.core.multiarray
scalar
p4
(cnumpy
dtype
p5
(S'f8'
I0
I1
tRp6
(I3
S'<'
NNNI-1
I-1
I0
tbS'{\x14\xaeG\xe1z\x84?'
tRp7
sS'beta'
p8
g4
(g6
S'\xfc\xa9\xf1\xd2MbP?'
tRp9
sS'lmbda'
p10
g4
(g6
S'\xcd\xcc\xcc\xcc\xcc\xcc\xec?'
tRp11
sa.