(lp1
(dp2
S'neps'
p3
I10
sS'mright'
p4
F0.5
sS'pright'
p5
F0.98999999999999999
sS'beta'
p6
cnumpy.core.multiarray
scalar
p7
(cnumpy
dtype
p8
(S'f8'
I0
I1
tRp9
(I3
S'<'
NNNI-1
I-1
I0
tbS'\x00\x00\x00\x00\x00\x00\x00\x00'
tRp10
sS'inits'
p11
I6
sS'algname'
p12
S'gtd'
p13
sS'alpha'
p14
g7
(g9
S'\x00\x00\x00\x00\x00\x00\x00\x00'
tRp15
sS'nf'
p16
I11
sS'ftype'
p17
S'tabular'
p18
sS'ns'
p19
I13
sS'gamma'
p20
F1
sS'lambda'
p21
g7
(g9
S'\x00\x00\x00\x00\x00\x00\x00\x00'
tRp22
sa(dp23
g3
I10
sg4
F0.5
sg5
F0.98999999999999999
sg6
g10
sg11
I6
sg12
g13
sg14
g15
sg16
I11
sg17
g18
sg19
I13
sg20
F1
sg21
g7
(g9
S'\x9a\x99\x99\x99\x99\x99\xb9?'
tRp24
sa(dp25
g3
I10
sg4
F0.5
sg5
F0.98999999999999999
sg6
g7
(g9
S'\x9a\x99\x99\x99\x99\x99\xb9?'
tRp26
sg11
I6
sg12
g13
sg14
g15
sg16
I11
sg17
g18
sg19
I13
sg20
F1
sg21
g7
(g9
S'\x00\x00\x00\x00\x00\x00\x00\x00'
tRp27
sa(dp28
g3
I10
sg4
F0.5
sg5
F0.98999999999999999
sg6
g26
sg11
I6
sg12
g13
sg14
g15
sg16
I11
sg17
g18
sg19
I13
sg20
F1
sg21
g7
(g9
S'\x9a\x99\x99\x99\x99\x99\xb9?'
tRp29
sa(dp30
g3
I10
sg4
F0.5
sg5
F0.98999999999999999
sg6
g7
(g9
S'\x00\x00\x00\x00\x00\x00\xf0?'
tRp31
sg11
I6
sg12
g13
sg14
g15
sg16
I11
sg17
g18
sg19
I13
sg20
F1
sg21
g7
(g9
S'\x00\x00\x00\x00\x00\x00\x00\x00'
tRp32
sa(dp33
g3
I10
sg4
F0.5
sg5
F0.98999999999999999
sg6
g31
sg11
I6
sg12
g13
sg14
g15
sg16
I11
sg17
g18
sg19
I13
sg20
F1
sg21
g7
(g9
S'\x9a\x99\x99\x99\x99\x99\xb9?'
tRp34
sa(dp35
g3
I10
sg4
F0.5
sg5
F0.98999999999999999
sg6
g7
(g9
S'\x00\x00\x00\x00\x00\x00\x00\x00'
tRp36
sg11
I6
sg12
g13
sg14
g7
(g9
S'\x9a\x99\x99\x99\x99\x99\xb9?'
tRp37
sg16
I11
sg17
g18
sg19
I13
sg20
F1
sg21
g7
(g9
S'\x00\x00\x00\x00\x00\x00\x00\x00'
tRp38
sa(dp39
g3
I10
sg4
F0.5
sg5
F0.98999999999999999
sg6
g36
sg11
I6
sg12
g13
sg14
g37
sg16
I11
sg17
g18
sg19
I13
sg20
F1
sg21
g7
(g9
S'\x9a\x99\x99\x99\x99\x99\xb9?'
tRp40
sa(dp41
g3
I10
sg4
F0.5
sg5
F0.98999999999999999
sg6
g7
(g9
S'\x9a\x99\x99\x99\x99\x99\xb9?'
tRp42
sg11
I6
sg12
g13
sg14
g37
sg16
I11
sg17
g18
sg19
I13
sg20
F1
sg21
g7
(g9
S'\x00\x00\x00\x00\x00\x00\x00\x00'
tRp43
sa(dp44
g3
I10
sg4
F0.5
sg5
F0.98999999999999999
sg6
g42
sg11
I6
sg12
g13
sg14
g37
sg16
I11
sg17
g18
sg19
I13
sg20
F1
sg21
g7
(g9
S'\x9a\x99\x99\x99\x99\x99\xb9?'
tRp45
sa(dp46
g3
I10
sg4
F0.5
sg5
F0.98999999999999999
sg6
g7
(g9
S'\x00\x00\x00\x00\x00\x00\xf0?'
tRp47
sg11
I6
sg12
g13
sg14
g37
sg16
I11
sg17
g18
sg19
I13
sg20
F1
sg21
g7
(g9
S'\x00\x00\x00\x00\x00\x00\x00\x00'
tRp48
sa(dp49
g3
I10
sg4
F0.5
sg5
F0.98999999999999999
sg6
g47
sg11
I6
sg12
g13
sg14
g37
sg16
I11
sg17
g18
sg19
I13
sg20
F1
sg21
g7
(g9
S'\x9a\x99\x99\x99\x99\x99\xb9?'
tRp50
sa.