(lp1
(dp2
S'inita'
p3
cnumpy.core.multiarray
scalar
p4
(cnumpy
dtype
p5
(S'f8'
I0
I1
tRp6
(I3
S'<'
NNNI-1
I-1
I0
tbS'\xfc\xa9\xf1\xd2MbP?'
tRp7
sS'N'
I100
sS'targtRight'
p8
F0.98999999999999999
sS'Rstd'
p9
F0
sS'T'
I100
sS'initsdist'
p10
cnumpy.core.multiarray
_reconstruct
p11
(cnumpy
ndarray
p12
(I0
tS'b'
tRp13
(I1
(I13
tg6
I00
S'\x00\x00\x00\x00\x00\x00\x00\x00\x00\x00\x00\x00\x00\x00\x00\x00\x00\x00\x00\x00\x00\x00\x00\x00\x00\x00\x00\x00\x00\x00\x00\x00\x00\x00\x00\x00\x00\x00\x00\x00\x00\x00\x00\x00\x00\x00\x00\x00\x00\x00\x00\x00\x00\x00\xf0?\x00\x00\x00\x00\x00\x00\x00\x00\x00\x00\x00\x00\x00\x00\x00\x00\x00\x00\x00\x00\x00\x00\x00\x00\x00\x00\x00\x00\x00\x00\x00\x00\x00\x00\x00\x00\x00\x00\x00\x00\x00\x00\x00\x00\x00\x00\x00\x00'
tbsS'Gamma'
p14
g11
(g12
(I0
tS'b'
tRp15
(I1
(I13
I13
tg6
I00
S'\x00\x00\x00\x00\x00\x00\x00\x00\x00\x00\x00\x00\x00\x00\x00\x00\x00\x00\x00\x00\x00\x00\x00\x00\x00\x00\x00\x00\x00\x00\x00\x00\x00\x00\x00\x00\x00\x00\x00\x00\x00\x00\x00\x00\x00\x00\x00\x00\x00\x00\x00\x00\x00\x00\x00\x00\x00\x00\x00\x00\x00\x00\x00\x00\x00\x00\x00\x00\x00\x00\x00\x00\x00\x00\x00\x00\x00\x00\x00\x00\x00\x00\x00\x00\x00\x00\x00\x00\x00\x00\x00\x00\x00\x00\x00\x00\x00\x00\x00\x00\x00\x00\x00\x00\x00\x00\x00\x00\x00\x00\x00\x00\x00\x00\x00\x00\x00\x00\xf0?\x00\x00\x00\x00\x00\x00\x00\x00\x00\x00\x00\x00\x00\x00\x00\x00\x00\x00\x00\x00\x00\x00\x00\x00\x00\x00\x00\x00\x00\x00\x00\x00\x00\x00\x00\x00\x00\x00\x00\x00\x00\x00\x00\x00\x00\x00\x00\x00\x00\x00\x00\x00\x00\x00\x00\x00\x00\x00\x00\x00\x00\x00\x00\x00\x00\x00\x00\x00\x00\x00\x00\x00\x00\x00\x00\x00\x00\x00\x00\x00\x00\x00\x00\x00\x00\x00\x00\x00\x00\x00\x00\x00\x00\x00\x00\x00\x00\x00\x00\x00\x00\x00\x00\x00\x00\x00\x00\x00\x00\x00\xf0?\x00\x00\x00\x00\x00\x00\x00\x00\x00\x00\x00\x00\x00\x00\x00\x00\x00\x00\x00\x00\x00\x00\x00\x00\x00\x00\x00\x00\x00\x00\x00\x00\x00\x00\x00\x00\x00\x00\x00\x00\x00\x00\x00\x00\x00\x00\x00\x00\x00\x00\x00\x00\x00\x00\x00\x00\x00\x00\x00\x00\x00\x00\x00\x00\x00\x00\x00\x00\x00\x00\x00\x00\x00\x00\x00\x00\x00\x00\x00\x00\x00\x00\x00\x00\x00\x00\x00\x00\x00\x00\x00\x00\x00\x00\x00\x00\x00\x00\x00\x00\x00\x00\x00\x00\x00\x00\x00\x00\x00\x00\xf0?\x00\x00\x00\x00\x00\x00\x00\x00\x00\x00\x00\x00\x00\x00\x00\x00\x00\x00\x00\x00\x00\x00\x00\x00\x00\x00\x00\x00\x00\x00\x00\x00\x00\x00\x00\x00\x00\x00\x00\x00\x00\x00\x00\x00\x00\x00\x00\x00\x00\x00\x00\x00\x00\x00\x00\x00\x00\x00\x00\x00\x00\x00\x00\x00\x00\x00\x00\x00\x00\x00\x00\x00\x00\x00\x00\x00\x00\x00\x00\x00\x00\x00\x00\x00\x00\x00\x00\x00\x00\x00\x00\x00\x00\x00\x00\x00\x00\x00\x00\x00\x00\x00\x00\x00\x00\x00\x00\x00\x00\x00\xf0?\x00\x00\x00\x00\x00\x00\x00\x00\x00\x00\x00\x00\x00\x00\x00\x00\x00\x00\x00\x00\x00\x00\x00\x00\x00\x00\x00\x00\x00\x00\x00\x00\x00\x00\x00\x00\x00\x00\x00\x00\x00\x00\x00\x00\x00\x00\x00\x00\x00\x00\x00\x00\x00\x00\x00\x00\x00\x00\x00\x00\x00\x00\x00\x00\x00\x00\x00\x00\x00\x00\x00\x00\x00\x00\x00\x00\x00\x00\x00\x00\x00\x00\x00\x00\x00\x00\x00\x00\x00\x00\x00\x00\x00\x00\x00\x00\x00\x00\x00\x00\x00\x00\x00\x00\x00\x00\x00\x00\x00\x00\xf0?\x00\x00\x00\x00\x00\x00\x00\x00\x00\x00\x00\x00\x00\x00\x00\x00\x00\x00\x00\x00\x00\x00\x00\x00\x00\x00\x00\x00\x00\x00\x00\x00\x00\x00\x00\x00\x00\x00\x00\x00\x00\x00\x00\x00\x00\x00\x00\x00\x00\x00\x00\x00\x00\x00\x00\x00\x00\x00\x00\x00\x00\x00\x00\x00\x00\x00\x00\x00\x00\x00\x00\x00\x00\x00\x00\x00\x00\x00\x00\x00\x00\x00\x00\x00\x00\x00\x00\x00\x00\x00\x00\x00\x00\x00\x00\x00\x00\x00\x00\x00\x00\x00\x00\x00\x00\x00\x00\x00\x00\x00\xf0?\x00\x00\x00\x00\x00\x00\x00\x00\x00\x00\x00\x00\x00\x00\x00\x00\x00\x00\x00\x00\x00\x00\x00\x00\x00\x00\x00\x00\x00\x00\x00\x00\x00\x00\x00\x00\x00\x00\x00\x00\x00\x00\x00\x00\x00\x00\x00\x00\x00\x00\x00\x00\x00\x00\x00\x00\x00\x00\x00\x00\x00\x00\x00\x00\x00\x00\x00\x00\x00\x00\x00\x00\x00\x00\x00\x00\x00\x00\x00\x00\x00\x00\x00\x00\x00\x00\x00\x00\x00\x00\x00\x00\x00\x00\x00\x00\x00\x00\x00\x00\x00\x00\x00\x00\x00\x00\x00\x00\x00\x00\xf0?\x00\x00\x00\x00\x00\x00\x00\x00\x00\x00\x00\x00\x00\x00\x00\x00\x00\x00\x00\x00\x00\x00\x00\x00\x00\x00\x00\x00\x00\x00\x00\x00\x00\x00\x00\x00\x00\x00\x00\x00\x00\x00\x00\x00\x00\x00\x00\x00\x00\x00\x00\x00\x00\x00\x00\x00\x00\x00\x00\x00\x00\x00\x00\x00\x00\x00\x00\x00\x00\x00\x00\x00\x00\x00\x00\x00\x00\x00\x00\x00\x00\x00\x00\x00\x00\x00\x00\x00\x00\x00\x00\x00\x00\x00\x00\x00\x00\x00\x00\x00\x00\x00\x00\x00\x00\x00\x00\x00\x00\x00\xf0?\x00\x00\x00\x00\x00\x00\x00\x00\x00\x00\x00\x00\x00\x00\x00\x00\x00\x00\x00\x00\x00\x00\x00\x00\x00\x00\x00\x00\x00\x00\x00\x00\x00\x00\x00\x00\x00\x00\x00\x00\x00\x00\x00\x00\x00\x00\x00\x00\x00\x00\x00\x00\x00\x00\x00\x00\x00\x00\x00\x00\x00\x00\x00\x00\x00\x00\x00\x00\x00\x00\x00\x00\x00\x00\x00\x00\x00\x00\x00\x00\x00\x00\x00\x00\x00\x00\x00\x00\x00\x00\x00\x00\x00\x00\x00\x00\x00\x00\x00\x00\x00\x00\x00\x00\x00\x00\x00\x00\x00\x00\xf0?\x00\x00\x00\x00\x00\x00\x00\x00\x00\x00\x00\x00\x00\x00\x00\x00\x00\x00\x00\x00\x00\x00\x00\x00\x00\x00\x00\x00\x00\x00\x00\x00\x00\x00\x00\x00\x00\x00\x00\x00\x00\x00\x00\x00\x00\x00\x00\x00\x00\x00\x00\x00\x00\x00\x00\x00\x00\x00\x00\x00\x00\x00\x00\x00\x00\x00\x00\x00\x00\x00\x00\x00\x00\x00\x00\x00\x00\x00\x00\x00\x00\x00\x00\x00\x00\x00\x00\x00\x00\x00\x00\x00\x00\x00\x00\x00\x00\x00\x00\x00\x00\x00\x00\x00\x00\x00\x00\x00\x00\x00\xf0?\x00\x00\x00\x00\x00\x00\x00\x00\x00\x00\x00\x00\x00\x00\x00\x00\x00\x00\x00\x00\x00\x00\x00\x00\x00\x00\x00\x00\x00\x00\x00\x00\x00\x00\x00\x00\x00\x00\x00\x00\x00\x00\x00\x00\x00\x00\x00\x00\x00\x00\x00\x00\x00\x00\x00\x00\x00\x00\x00\x00\x00\x00\x00\x00\x00\x00\x00\x00\x00\x00\x00\x00\x00\x00\x00\x00\x00\x00\x00\x00\x00\x00\x00\x00\x00\x00\x00\x00\x00\x00\x00\x00\x00\x00\x00\x00\x00\x00\x00\x00\x00\x00\x00\x00\x00\x00\x00\x00\x00\x00\xf0?\x00\x00\x00\x00\x00\x00\x00\x00\x00\x00\x00\x00\x00\x00\x00\x00\x00\x00\x00\x00\x00\x00\x00\x00\x00\x00\x00\x00\x00\x00\x00\x00\x00\x00\x00\x00\x00\x00\x00\x00\x00\x00\x00\x00\x00\x00\x00\x00\x00\x00\x00\x00\x00\x00\x00\x00\x00\x00\x00\x00\x00\x00\x00\x00\x00\x00\x00\x00\x00\x00\x00\x00\x00\x00\x00\x00\x00\x00\x00\x00\x00\x00\x00\x00\x00\x00\x00\x00\x00\x00\x00\x00\x00\x00\x00\x00\x00\x00\x00\x00\x00\x00\x00\x00\x00\x00\x00\x00\x00\x00\x00\x00'
tbsS'mdpseed'
p16
I1000
sS'na'
p17
I2
sS'nf'
p18
I4
sS'ftype'
p19
S'binary'
p20
sS'lmbda'
p21
g4
(g6
S'\x00\x00\x00\x00\x00\x00\x00\x00'
tRp22
sS'algname'
p23
S'wislstd'
p24
sS'ns'
p25
I13
sS'behavRight'
p26
F0.5
sa(dp27
g3
g7
sS'N'
I100
sg8
F0.98999999999999999
sg9
F0
sS'T'
I100
sg10
g13
sg14
g15
sg16
I1000
sg17
I2
sg18
I4
sg19
g20
sg21
g4
(g6
S'\x9a\x99\x99\x99\x99\x99\xb9?'
tRp28
sg23
g24
sg25
I13
sg26
F0.5
sa(dp29
g3
g7
sS'N'
I100
sg8
F0.98999999999999999
sg9
F0
sS'T'
I100
sg10
g13
sg14
g15
sg16
I1000
sg17
I2
sg18
I4
sg19
g20
sg21
g4
(g6
S'\x9a\x99\x99\x99\x99\x99\xc9?'
tRp30
sg23
g24
sg25
I13
sg26
F0.5
sa(dp31
g3
g7
sS'N'
I100
sg8
F0.98999999999999999
sg9
F0
sS'T'
I100
sg10
g13
sg14
g15
sg16
I1000
sg17
I2
sg18
I4
sg19
g20
sg21
g4
(g6
S'433333\xd3?'
tRp32
sg23
g24
sg25
I13
sg26
F0.5
sa(dp33
g3
g7
sS'N'
I100
sg8
F0.98999999999999999
sg9
F0
sS'T'
I100
sg10
g13
sg14
g15
sg16
I1000
sg17
I2
sg18
I4
sg19
g20
sg21
g4
(g6
S'\x9a\x99\x99\x99\x99\x99\xd9?'
tRp34
sg23
g24
sg25
I13
sg26
F0.5
sa(dp35
g3
g7
sS'N'
I100
sg8
F0.98999999999999999
sg9
F0
sS'T'
I100
sg10
g13
sg14
g15
sg16
I1000
sg17
I2
sg18
I4
sg19
g20
sg21
g4
(g6
S'\x00\x00\x00\x00\x00\x00\xe0?'
tRp36
sg23
g24
sg25
I13
sg26
F0.5
sa(dp37
g3
g7
sS'N'
I100
sg8
F0.98999999999999999
sg9
F0
sS'T'
I100
sg10
g13
sg14
g15
sg16
I1000
sg17
I2
sg18
I4
sg19
g20
sg21
g4
(g6
S'433333\xe3?'
tRp38
sg23
g24
sg25
I13
sg26
F0.5
sa(dp39
g3
g7
sS'N'
I100
sg8
F0.98999999999999999
sg9
F0
sS'T'
I100
sg10
g13
sg14
g15
sg16
I1000
sg17
I2
sg18
I4
sg19
g20
sg21
g4
(g6
S'gfffff\xe6?'
tRp40
sg23
g24
sg25
I13
sg26
F0.5
sa(dp41
g3
g7
sS'N'
I100
sg8
F0.98999999999999999
sg9
F0
sS'T'
I100
sg10
g13
sg14
g15
sg16
I1000
sg17
I2
sg18
I4
sg19
g20
sg21
g4
(g6
S'\x9a\x99\x99\x99\x99\x99\xe9?'
tRp42
sg23
g24
sg25
I13
sg26
F0.5
sa(dp43
g3
g7
sS'N'
I100
sg8
F0.98999999999999999
sg9
F0
sS'T'
I100
sg10
g13
sg14
g15
sg16
I1000
sg17
I2
sg18
I4
sg19
g20
sg21
g4
(g6
S'\xcd\xcc\xcc\xcc\xcc\xcc\xec?'
tRp44
sg23
g24
sg25
I13
sg26
F0.5
sa(dp45
g3
g7
sS'N'
I100
sg8
F0.98999999999999999
sg9
F0
sS'T'
I100
sg10
g13
sg14
g15
sg16
I1000
sg17
I2
sg18
I4
sg19
g20
sg21
g4
(g6
S'\x1f\x85\xebQ\xb8\x1e\xed?'
tRp46
sg23
g24
sg25
I13
sg26
F0.5
sa(dp47
g3
g7
sS'N'
I100
sg8
F0.98999999999999999
sg9
F0
sS'T'
I100
sg10
g13
sg14
g15
sg16
I1000
sg17
I2
sg18
I4
sg19
g20
sg21
g4
(g6
S'q=\n\xd7\xa3p\xed?'
tRp48
sg23
g24
sg25
I13
sg26
F0.5
sa(dp49
g3
g7
sS'N'
I100
sg8
F0.98999999999999999
sg9
F0
sS'T'
I100
sg10
g13
sg14
g15
sg16
I1000
sg17
I2
sg18
I4
sg19
g20
sg21
g4
(g6
S'\xc3\xf5(\\\x8f\xc2\xed?'
tRp50
sg23
g24
sg25
I13
sg26
F0.5
sa(dp51
g3
g7
sS'N'
I100
sg8
F0.98999999999999999
sg9
F0
sS'T'
I100
sg10
g13
sg14
g15
sg16
I1000
sg17
I2
sg18
I4
sg19
g20
sg21
g4
(g6
S'\x15\xaeG\xe1z\x14\xee?'
tRp52
sg23
g24
sg25
I13
sg26
F0.5
sa(dp53
g3
g7
sS'N'
I100
sg8
F0.98999999999999999
sg9
F0
sS'T'
I100
sg10
g13
sg14
g15
sg16
I1000
sg17
I2
sg18
I4
sg19
g20
sg21
g4
(g6
S'gfffff\xee?'
tRp54
sg23
g24
sg25
I13
sg26
F0.5
sa(dp55
g3
g7
sS'N'
I100
sg8
F0.98999999999999999
sg9
F0
sS'T'
I100
sg10
g13
sg14
g15
sg16
I1000
sg17
I2
sg18
I4
sg19
g20
sg21
g4
(g6
S'\xb9\x1e\x85\xebQ\xb8\xee?'
tRp56
sg23
g24
sg25
I13
sg26
F0.5
sa(dp57
g3
g7
sS'N'
I100
sg8
F0.98999999999999999
sg9
F0
sS'T'
I100
sg10
g13
sg14
g15
sg16
I1000
sg17
I2
sg18
I4
sg19
g20
sg21
g4
(g6
S'\x0b\xd7\xa3p=\n\xef?'
tRp58
sg23
g24
sg25
I13
sg26
F0.5
sa(dp59
g3
g7
sS'N'
I100
sg8
F0.98999999999999999
sg9
F0
sS'T'
I100
sg10
g13
sg14
g15
sg16
I1000
sg17
I2
sg18
I4
sg19
g20
sg21
g4
(g6
S']\x8f\xc2\xf5(\\\xef?'
tRp60
sg23
g24
sg25
I13
sg26
F0.5
sa(dp61
g3
g7
sS'N'
I100
sg8
F0.98999999999999999
sg9
F0
sS'T'
I100
sg10
g13
sg14
g15
sg16
I1000
sg17
I2
sg18
I4
sg19
g20
sg21
g4
(g6
S'\xafG\xe1z\x14\xae\xef?'
tRp62
sg23
g24
sg25
I13
sg26
F0.5
sa(dp63
g3
g7
sS'N'
I100
sg8
F0.98999999999999999
sg9
F0
sS'T'
I100
sg10
g13
sg14
g15
sg16
I1000
sg17
I2
sg18
I4
sg19
g20
sg21
g4
(g6
S'\x00\x00\x00\x00\x00\x00\xf0?'
tRp64
sg23
g24
sg25
I13
sg26
F0.5
sa(dp65
g3
g4
(g6
S'\xa37y\x1b\x86\xf7Y?'
tRp66
sS'N'
I100
sg8
F0.98999999999999999
sg9
F0
sS'T'
I100
sg10
g13
sg14
g15
sg16
I1000
sg17
I2
sg18
I4
sg19
g20
sg21
g4
(g6
S'\x00\x00\x00\x00\x00\x00\x00\x00'
tRp67
sg23
g24
sg25
I13
sg26
F0.5
sa(dp68
g3
g66
sS'N'
I100
sg8
F0.98999999999999999
sg9
F0
sS'T'
I100
sg10
g13
sg14
g15
sg16
I1000
sg17
I2
sg18
I4
sg19
g20
sg21
g4
(g6
S'\x9a\x99\x99\x99\x99\x99\xb9?'
tRp69
sg23
g24
sg25
I13
sg26
F0.5
sa(dp70
g3
g66
sS'N'
I100
sg8
F0.98999999999999999
sg9
F0
sS'T'
I100
sg10
g13
sg14
g15
sg16
I1000
sg17
I2
sg18
I4
sg19
g20
sg21
g4
(g6
S'\x9a\x99\x99\x99\x99\x99\xc9?'
tRp71
sg23
g24
sg25
I13
sg26
F0.5
sa(dp72
g3
g66
sS'N'
I100
sg8
F0.98999999999999999
sg9
F0
sS'T'
I100
sg10
g13
sg14
g15
sg16
I1000
sg17
I2
sg18
I4
sg19
g20
sg21
g4
(g6
S'433333\xd3?'
tRp73
sg23
g24
sg25
I13
sg26
F0.5
sa(dp74
g3
g66
sS'N'
I100
sg8
F0.98999999999999999
sg9
F0
sS'T'
I100
sg10
g13
sg14
g15
sg16
I1000
sg17
I2
sg18
I4
sg19
g20
sg21
g4
(g6
S'\x9a\x99\x99\x99\x99\x99\xd9?'
tRp75
sg23
g24
sg25
I13
sg26
F0.5
sa(dp76
g3
g66
sS'N'
I100
sg8
F0.98999999999999999
sg9
F0
sS'T'
I100
sg10
g13
sg14
g15
sg16
I1000
sg17
I2
sg18
I4
sg19
g20
sg21
g4
(g6
S'\x00\x00\x00\x00\x00\x00\xe0?'
tRp77
sg23
g24
sg25
I13
sg26
F0.5
sa(dp78
g3
g66
sS'N'
I100
sg8
F0.98999999999999999
sg9
F0
sS'T'
I100
sg10
g13
sg14
g15
sg16
I1000
sg17
I2
sg18
I4
sg19
g20
sg21
g4
(g6
S'433333\xe3?'
tRp79
sg23
g24
sg25
I13
sg26
F0.5
sa(dp80
g3
g66
sS'N'
I100
sg8
F0.98999999999999999
sg9
F0
sS'T'
I100
sg10
g13
sg14
g15
sg16
I1000
sg17
I2
sg18
I4
sg19
g20
sg21
g4
(g6
S'gfffff\xe6?'
tRp81
sg23
g24
sg25
I13
sg26
F0.5
sa(dp82
g3
g66
sS'N'
I100
sg8
F0.98999999999999999
sg9
F0
sS'T'
I100
sg10
g13
sg14
g15
sg16
I1000
sg17
I2
sg18
I4
sg19
g20
sg21
g4
(g6
S'\x9a\x99\x99\x99\x99\x99\xe9?'
tRp83
sg23
g24
sg25
I13
sg26
F0.5
sa(dp84
g3
g66
sS'N'
I100
sg8
F0.98999999999999999
sg9
F0
sS'T'
I100
sg10
g13
sg14
g15
sg16
I1000
sg17
I2
sg18
I4
sg19
g20
sg21
g4
(g6
S'\xcd\xcc\xcc\xcc\xcc\xcc\xec?'
tRp85
sg23
g24
sg25
I13
sg26
F0.5
sa(dp86
g3
g66
sS'N'
I100
sg8
F0.98999999999999999
sg9
F0
sS'T'
I100
sg10
g13
sg14
g15
sg16
I1000
sg17
I2
sg18
I4
sg19
g20
sg21
g4
(g6
S'\x1f\x85\xebQ\xb8\x1e\xed?'
tRp87
sg23
g24
sg25
I13
sg26
F0.5
sa(dp88
g3
g66
sS'N'
I100
sg8
F0.98999999999999999
sg9
F0
sS'T'
I100
sg10
g13
sg14
g15
sg16
I1000
sg17
I2
sg18
I4
sg19
g20
sg21
g4
(g6
S'q=\n\xd7\xa3p\xed?'
tRp89
sg23
g24
sg25
I13
sg26
F0.5
sa(dp90
g3
g66
sS'N'
I100
sg8
F0.98999999999999999
sg9
F0
sS'T'
I100
sg10
g13
sg14
g15
sg16
I1000
sg17
I2
sg18
I4
sg19
g20
sg21
g4
(g6
S'\xc3\xf5(\\\x8f\xc2\xed?'
tRp91
sg23
g24
sg25
I13
sg26
F0.5
sa(dp92
g3
g66
sS'N'
I100
sg8
F0.98999999999999999
sg9
F0
sS'T'
I100
sg10
g13
sg14
g15
sg16
I1000
sg17
I2
sg18
I4
sg19
g20
sg21
g4
(g6
S'\x15\xaeG\xe1z\x14\xee?'
tRp93
sg23
g24
sg25
I13
sg26
F0.5
sa(dp94
g3
g66
sS'N'
I100
sg8
F0.98999999999999999
sg9
F0
sS'T'
I100
sg10
g13
sg14
g15
sg16
I1000
sg17
I2
sg18
I4
sg19
g20
sg21
g4
(g6
S'gfffff\xee?'
tRp95
sg23
g24
sg25
I13
sg26
F0.5
sa(dp96
g3
g66
sS'N'
I100
sg8
F0.98999999999999999
sg9
F0
sS'T'
I100
sg10
g13
sg14
g15
sg16
I1000
sg17
I2
sg18
I4
sg19
g20
sg21
g4
(g6
S'\xb9\x1e\x85\xebQ\xb8\xee?'
tRp97
sg23
g24
sg25
I13
sg26
F0.5
sa(dp98
g3
g66
sS'N'
I100
sg8
F0.98999999999999999
sg9
F0
sS'T'
I100
sg10
g13
sg14
g15
sg16
I1000
sg17
I2
sg18
I4
sg19
g20
sg21
g4
(g6
S'\x0b\xd7\xa3p=\n\xef?'
tRp99
sg23
g24
sg25
I13
sg26
F0.5
sa(dp100
g3
g66
sS'N'
I100
sg8
F0.98999999999999999
sg9
F0
sS'T'
I100
sg10
g13
sg14
g15
sg16
I1000
sg17
I2
sg18
I4
sg19
g20
sg21
g4
(g6
S']\x8f\xc2\xf5(\\\xef?'
tRp101
sg23
g24
sg25
I13
sg26
F0.5
sa(dp102
g3
g66
sS'N'
I100
sg8
F0.98999999999999999
sg9
F0
sS'T'
I100
sg10
g13
sg14
g15
sg16
I1000
sg17
I2
sg18
I4
sg19
g20
sg21
g4
(g6
S'\xafG\xe1z\x14\xae\xef?'
tRp103
sg23
g24
sg25
I13
sg26
F0.5
sa(dp104
g3
g66
sS'N'
I100
sg8
F0.98999999999999999
sg9
F0
sS'T'
I100
sg10
g13
sg14
g15
sg16
I1000
sg17
I2
sg18
I4
sg19
g20
sg21
g4
(g6
S'\x00\x00\x00\x00\x00\x00\xf0?'
tRp105
sg23
g24
sg25
I13
sg26
F0.5
sa(dp106
g3
g4
(g6
S'\x1e\x1fc\xc2\xce\x93d?'
tRp107
sS'N'
I100
sg8
F0.98999999999999999
sg9
F0
sS'T'
I100
sg10
g13
sg14
g15
sg16
I1000
sg17
I2
sg18
I4
sg19
g20
sg21
g4
(g6
S'\x00\x00\x00\x00\x00\x00\x00\x00'
tRp108
sg23
g24
sg25
I13
sg26
F0.5
sa(dp109
g3
g107
sS'N'
I100
sg8
F0.98999999999999999
sg9
F0
sS'T'
I100
sg10
g13
sg14
g15
sg16
I1000
sg17
I2
sg18
I4
sg19
g20
sg21
g4
(g6
S'\x9a\x99\x99\x99\x99\x99\xb9?'
tRp110
sg23
g24
sg25
I13
sg26
F0.5
sa(dp111
g3
g107
sS'N'
I100
sg8
F0.98999999999999999
sg9
F0
sS'T'
I100
sg10
g13
sg14
g15
sg16
I1000
sg17
I2
sg18
I4
sg19
g20
sg21
g4
(g6
S'\x9a\x99\x99\x99\x99\x99\xc9?'
tRp112
sg23
g24
sg25
I13
sg26
F0.5
sa(dp113
g3
g107
sS'N'
I100
sg8
F0.98999999999999999
sg9
F0
sS'T'
I100
sg10
g13
sg14
g15
sg16
I1000
sg17
I2
sg18
I4
sg19
g20
sg21
g4
(g6
S'433333\xd3?'
tRp114
sg23
g24
sg25
I13
sg26
F0.5
sa(dp115
g3
g107
sS'N'
I100
sg8
F0.98999999999999999
sg9
F0
sS'T'
I100
sg10
g13
sg14
g15
sg16
I1000
sg17
I2
sg18
I4
sg19
g20
sg21
g4
(g6
S'\x9a\x99\x99\x99\x99\x99\xd9?'
tRp116
sg23
g24
sg25
I13
sg26
F0.5
sa(dp117
g3
g107
sS'N'
I100
sg8
F0.98999999999999999
sg9
F0
sS'T'
I100
sg10
g13
sg14
g15
sg16
I1000
sg17
I2
sg18
I4
sg19
g20
sg21
g4
(g6
S'\x00\x00\x00\x00\x00\x00\xe0?'
tRp118
sg23
g24
sg25
I13
sg26
F0.5
sa(dp119
g3
g107
sS'N'
I100
sg8
F0.98999999999999999
sg9
F0
sS'T'
I100
sg10
g13
sg14
g15
sg16
I1000
sg17
I2
sg18
I4
sg19
g20
sg21
g4
(g6
S'433333\xe3?'
tRp120
sg23
g24
sg25
I13
sg26
F0.5
sa(dp121
g3
g107
sS'N'
I100
sg8
F0.98999999999999999
sg9
F0
sS'T'
I100
sg10
g13
sg14
g15
sg16
I1000
sg17
I2
sg18
I4
sg19
g20
sg21
g4
(g6
S'gfffff\xe6?'
tRp122
sg23
g24
sg25
I13
sg26
F0.5
sa(dp123
g3
g107
sS'N'
I100
sg8
F0.98999999999999999
sg9
F0
sS'T'
I100
sg10
g13
sg14
g15
sg16
I1000
sg17
I2
sg18
I4
sg19
g20
sg21
g4
(g6
S'\x9a\x99\x99\x99\x99\x99\xe9?'
tRp124
sg23
g24
sg25
I13
sg26
F0.5
sa(dp125
g3
g107
sS'N'
I100
sg8
F0.98999999999999999
sg9
F0
sS'T'
I100
sg10
g13
sg14
g15
sg16
I1000
sg17
I2
sg18
I4
sg19
g20
sg21
g4
(g6
S'\xcd\xcc\xcc\xcc\xcc\xcc\xec?'
tRp126
sg23
g24
sg25
I13
sg26
F0.5
sa(dp127
g3
g107
sS'N'
I100
sg8
F0.98999999999999999
sg9
F0
sS'T'
I100
sg10
g13
sg14
g15
sg16
I1000
sg17
I2
sg18
I4
sg19
g20
sg21
g4
(g6
S'\x1f\x85\xebQ\xb8\x1e\xed?'
tRp128
sg23
g24
sg25
I13
sg26
F0.5
sa(dp129
g3
g107
sS'N'
I100
sg8
F0.98999999999999999
sg9
F0
sS'T'
I100
sg10
g13
sg14
g15
sg16
I1000
sg17
I2
sg18
I4
sg19
g20
sg21
g4
(g6
S'q=\n\xd7\xa3p\xed?'
tRp130
sg23
g24
sg25
I13
sg26
F0.5
sa(dp131
g3
g107
sS'N'
I100
sg8
F0.98999999999999999
sg9
F0
sS'T'
I100
sg10
g13
sg14
g15
sg16
I1000
sg17
I2
sg18
I4
sg19
g20
sg21
g4
(g6
S'\xc3\xf5(\\\x8f\xc2\xed?'
tRp132
sg23
g24
sg25
I13
sg26
F0.5
sa(dp133
g3
g107
sS'N'
I100
sg8
F0.98999999999999999
sg9
F0
sS'T'
I100
sg10
g13
sg14
g15
sg16
I1000
sg17
I2
sg18
I4
sg19
g20
sg21
g4
(g6
S'\x15\xaeG\xe1z\x14\xee?'
tRp134
sg23
g24
sg25
I13
sg26
F0.5
sa(dp135
g3
g107
sS'N'
I100
sg8
F0.98999999999999999
sg9
F0
sS'T'
I100
sg10
g13
sg14
g15
sg16
I1000
sg17
I2
sg18
I4
sg19
g20
sg21
g4
(g6
S'gfffff\xee?'
tRp136
sg23
g24
sg25
I13
sg26
F0.5
sa(dp137
g3
g107
sS'N'
I100
sg8
F0.98999999999999999
sg9
F0
sS'T'
I100
sg10
g13
sg14
g15
sg16
I1000
sg17
I2
sg18
I4
sg19
g20
sg21
g4
(g6
S'\xb9\x1e\x85\xebQ\xb8\xee?'
tRp138
sg23
g24
sg25
I13
sg26
F0.5
sa(dp139
g3
g107
sS'N'
I100
sg8
F0.98999999999999999
sg9
F0
sS'T'
I100
sg10
g13
sg14
g15
sg16
I1000
sg17
I2
sg18
I4
sg19
g20
sg21
g4
(g6
S'\x0b\xd7\xa3p=\n\xef?'
tRp140
sg23
g24
sg25
I13
sg26
F0.5
sa(dp141
g3
g107
sS'N'
I100
sg8
F0.98999999999999999
sg9
F0
sS'T'
I100
sg10
g13
sg14
g15
sg16
I1000
sg17
I2
sg18
I4
sg19
g20
sg21
g4
(g6
S']\x8f\xc2\xf5(\\\xef?'
tRp142
sg23
g24
sg25
I13
sg26
F0.5
sa(dp143
g3
g107
sS'N'
I100
sg8
F0.98999999999999999
sg9
F0
sS'T'
I100
sg10
g13
sg14
g15
sg16
I1000
sg17
I2
sg18
I4
sg19
g20
sg21
g4
(g6
S'\xafG\xe1z\x14\xae\xef?'
tRp144
sg23
g24
sg25
I13
sg26
F0.5
sa(dp145
g3
g107
sS'N'
I100
sg8
F0.98999999999999999
sg9
F0
sS'T'
I100
sg10
g13
sg14
g15
sg16
I1000
sg17
I2
sg18
I4
sg19
g20
sg21
g4
(g6
S'\x00\x00\x00\x00\x00\x00\xf0?'
tRp146
sg23
g24
sg25
I13
sg26
F0.5
sa(dp147
g3
g4
(g6
S'\x8d\xees\xcctNp?'
tRp148
sS'N'
I100
sg8
F0.98999999999999999
sg9
F0
sS'T'
I100
sg10
g13
sg14
g15
sg16
I1000
sg17
I2
sg18
I4
sg19
g20
sg21
g4
(g6
S'\x00\x00\x00\x00\x00\x00\x00\x00'
tRp149
sg23
g24
sg25
I13
sg26
F0.5
sa(dp150
g3
g148
sS'N'
I100
sg8
F0.98999999999999999
sg9
F0
sS'T'
I100
sg10
g13
sg14
g15
sg16
I1000
sg17
I2
sg18
I4
sg19
g20
sg21
g4
(g6
S'\x9a\x99\x99\x99\x99\x99\xb9?'
tRp151
sg23
g24
sg25
I13
sg26
F0.5
sa(dp152
g3
g148
sS'N'
I100
sg8
F0.98999999999999999
sg9
F0
sS'T'
I100
sg10
g13
sg14
g15
sg16
I1000
sg17
I2
sg18
I4
sg19
g20
sg21
g4
(g6
S'\x9a\x99\x99\x99\x99\x99\xc9?'
tRp153
sg23
g24
sg25
I13
sg26
F0.5
sa(dp154
g3
g148
sS'N'
I100
sg8
F0.98999999999999999
sg9
F0
sS'T'
I100
sg10
g13
sg14
g15
sg16
I1000
sg17
I2
sg18
I4
sg19
g20
sg21
g4
(g6
S'433333\xd3?'
tRp155
sg23
g24
sg25
I13
sg26
F0.5
sa(dp156
g3
g148
sS'N'
I100
sg8
F0.98999999999999999
sg9
F0
sS'T'
I100
sg10
g13
sg14
g15
sg16
I1000
sg17
I2
sg18
I4
sg19
g20
sg21
g4
(g6
S'\x9a\x99\x99\x99\x99\x99\xd9?'
tRp157
sg23
g24
sg25
I13
sg26
F0.5
sa(dp158
g3
g148
sS'N'
I100
sg8
F0.98999999999999999
sg9
F0
sS'T'
I100
sg10
g13
sg14
g15
sg16
I1000
sg17
I2
sg18
I4
sg19
g20
sg21
g4
(g6
S'\x00\x00\x00\x00\x00\x00\xe0?'
tRp159
sg23
g24
sg25
I13
sg26
F0.5
sa(dp160
g3
g148
sS'N'
I100
sg8
F0.98999999999999999
sg9
F0
sS'T'
I100
sg10
g13
sg14
g15
sg16
I1000
sg17
I2
sg18
I4
sg19
g20
sg21
g4
(g6
S'433333\xe3?'
tRp161
sg23
g24
sg25
I13
sg26
F0.5
sa(dp162
g3
g148
sS'N'
I100
sg8
F0.98999999999999999
sg9
F0
sS'T'
I100
sg10
g13
sg14
g15
sg16
I1000
sg17
I2
sg18
I4
sg19
g20
sg21
g4
(g6
S'gfffff\xe6?'
tRp163
sg23
g24
sg25
I13
sg26
F0.5
sa(dp164
g3
g148
sS'N'
I100
sg8
F0.98999999999999999
sg9
F0
sS'T'
I100
sg10
g13
sg14
g15
sg16
I1000
sg17
I2
sg18
I4
sg19
g20
sg21
g4
(g6
S'\x9a\x99\x99\x99\x99\x99\xe9?'
tRp165
sg23
g24
sg25
I13
sg26
F0.5
sa(dp166
g3
g148
sS'N'
I100
sg8
F0.98999999999999999
sg9
F0
sS'T'
I100
sg10
g13
sg14
g15
sg16
I1000
sg17
I2
sg18
I4
sg19
g20
sg21
g4
(g6
S'\xcd\xcc\xcc\xcc\xcc\xcc\xec?'
tRp167
sg23
g24
sg25
I13
sg26
F0.5
sa(dp168
g3
g148
sS'N'
I100
sg8
F0.98999999999999999
sg9
F0
sS'T'
I100
sg10
g13
sg14
g15
sg16
I1000
sg17
I2
sg18
I4
sg19
g20
sg21
g4
(g6
S'\x1f\x85\xebQ\xb8\x1e\xed?'
tRp169
sg23
g24
sg25
I13
sg26
F0.5
sa(dp170
g3
g148
sS'N'
I100
sg8
F0.98999999999999999
sg9
F0
sS'T'
I100
sg10
g13
sg14
g15
sg16
I1000
sg17
I2
sg18
I4
sg19
g20
sg21
g4
(g6
S'q=\n\xd7\xa3p\xed?'
tRp171
sg23
g24
sg25
I13
sg26
F0.5
sa(dp172
g3
g148
sS'N'
I100
sg8
F0.98999999999999999
sg9
F0
sS'T'
I100
sg10
g13
sg14
g15
sg16
I1000
sg17
I2
sg18
I4
sg19
g20
sg21
g4
(g6
S'\xc3\xf5(\\\x8f\xc2\xed?'
tRp173
sg23
g24
sg25
I13
sg26
F0.5
sa(dp174
g3
g148
sS'N'
I100
sg8
F0.98999999999999999
sg9
F0
sS'T'
I100
sg10
g13
sg14
g15
sg16
I1000
sg17
I2
sg18
I4
sg19
g20
sg21
g4
(g6
S'\x15\xaeG\xe1z\x14\xee?'
tRp175
sg23
g24
sg25
I13
sg26
F0.5
sa(dp176
g3
g148
sS'N'
I100
sg8
F0.98999999999999999
sg9
F0
sS'T'
I100
sg10
g13
sg14
g15
sg16
I1000
sg17
I2
sg18
I4
sg19
g20
sg21
g4
(g6
S'gfffff\xee?'
tRp177
sg23
g24
sg25
I13
sg26
F0.5
sa(dp178
g3
g148
sS'N'
I100
sg8
F0.98999999999999999
sg9
F0
sS'T'
I100
sg10
g13
sg14
g15
sg16
I1000
sg17
I2
sg18
I4
sg19
g20
sg21
g4
(g6
S'\xb9\x1e\x85\xebQ\xb8\xee?'
tRp179
sg23
g24
sg25
I13
sg26
F0.5
sa(dp180
g3
g148
sS'N'
I100
sg8
F0.98999999999999999
sg9
F0
sS'T'
I100
sg10
g13
sg14
g15
sg16
I1000
sg17
I2
sg18
I4
sg19
g20
sg21
g4
(g6
S'\x0b\xd7\xa3p=\n\xef?'
tRp181
sg23
g24
sg25
I13
sg26
F0.5
sa(dp182
g3
g148
sS'N'
I100
sg8
F0.98999999999999999
sg9
F0
sS'T'
I100
sg10
g13
sg14
g15
sg16
I1000
sg17
I2
sg18
I4
sg19
g20
sg21
g4
(g6
S']\x8f\xc2\xf5(\\\xef?'
tRp183
sg23
g24
sg25
I13
sg26
F0.5
sa(dp184
g3
g148
sS'N'
I100
sg8
F0.98999999999999999
sg9
F0
sS'T'
I100
sg10
g13
sg14
g15
sg16
I1000
sg17
I2
sg18
I4
sg19
g20
sg21
g4
(g6
S'\xafG\xe1z\x14\xae\xef?'
tRp185
sg23
g24
sg25
I13
sg26
F0.5
sa(dp186
g3
g148
sS'N'
I100
sg8
F0.98999999999999999
sg9
F0
sS'T'
I100
sg10
g13
sg14
g15
sg16
I1000
sg17
I2
sg18
I4
sg19
g20
sg21
g4
(g6
S'\x00\x00\x00\x00\x00\x00\xf0?'
tRp187
sg23
g24
sg25
I13
sg26
F0.5
sa(dp188
g3
g4
(g6
S'\xce\xdc\x8d9\x11\xd8y?'
tRp189
sS'N'
I100
sg8
F0.98999999999999999
sg9
F0
sS'T'
I100
sg10
g13
sg14
g15
sg16
I1000
sg17
I2
sg18
I4
sg19
g20
sg21
g4
(g6
S'\x00\x00\x00\x00\x00\x00\x00\x00'
tRp190
sg23
g24
sg25
I13
sg26
F0.5
sa(dp191
g3
g189
sS'N'
I100
sg8
F0.98999999999999999
sg9
F0
sS'T'
I100
sg10
g13
sg14
g15
sg16
I1000
sg17
I2
sg18
I4
sg19
g20
sg21
g4
(g6
S'\x9a\x99\x99\x99\x99\x99\xb9?'
tRp192
sg23
g24
sg25
I13
sg26
F0.5
sa(dp193
g3
g189
sS'N'
I100
sg8
F0.98999999999999999
sg9
F0
sS'T'
I100
sg10
g13
sg14
g15
sg16
I1000
sg17
I2
sg18
I4
sg19
g20
sg21
g4
(g6
S'\x9a\x99\x99\x99\x99\x99\xc9?'
tRp194
sg23
g24
sg25
I13
sg26
F0.5
sa(dp195
g3
g189
sS'N'
I100
sg8
F0.98999999999999999
sg9
F0
sS'T'
I100
sg10
g13
sg14
g15
sg16
I1000
sg17
I2
sg18
I4
sg19
g20
sg21
g4
(g6
S'433333\xd3?'
tRp196
sg23
g24
sg25
I13
sg26
F0.5
sa(dp197
g3
g189
sS'N'
I100
sg8
F0.98999999999999999
sg9
F0
sS'T'
I100
sg10
g13
sg14
g15
sg16
I1000
sg17
I2
sg18
I4
sg19
g20
sg21
g4
(g6
S'\x9a\x99\x99\x99\x99\x99\xd9?'
tRp198
sg23
g24
sg25
I13
sg26
F0.5
sa(dp199
g3
g189
sS'N'
I100
sg8
F0.98999999999999999
sg9
F0
sS'T'
I100
sg10
g13
sg14
g15
sg16
I1000
sg17
I2
sg18
I4
sg19
g20
sg21
g4
(g6
S'\x00\x00\x00\x00\x00\x00\xe0?'
tRp200
sg23
g24
sg25
I13
sg26
F0.5
sa(dp201
g3
g189
sS'N'
I100
sg8
F0.98999999999999999
sg9
F0
sS'T'
I100
sg10
g13
sg14
g15
sg16
I1000
sg17
I2
sg18
I4
sg19
g20
sg21
g4
(g6
S'433333\xe3?'
tRp202
sg23
g24
sg25
I13
sg26
F0.5
sa(dp203
g3
g189
sS'N'
I100
sg8
F0.98999999999999999
sg9
F0
sS'T'
I100
sg10
g13
sg14
g15
sg16
I1000
sg17
I2
sg18
I4
sg19
g20
sg21
g4
(g6
S'gfffff\xe6?'
tRp204
sg23
g24
sg25
I13
sg26
F0.5
sa(dp205
g3
g189
sS'N'
I100
sg8
F0.98999999999999999
sg9
F0
sS'T'
I100
sg10
g13
sg14
g15
sg16
I1000
sg17
I2
sg18
I4
sg19
g20
sg21
g4
(g6
S'\x9a\x99\x99\x99\x99\x99\xe9?'
tRp206
sg23
g24
sg25
I13
sg26
F0.5
sa(dp207
g3
g189
sS'N'
I100
sg8
F0.98999999999999999
sg9
F0
sS'T'
I100
sg10
g13
sg14
g15
sg16
I1000
sg17
I2
sg18
I4
sg19
g20
sg21
g4
(g6
S'\xcd\xcc\xcc\xcc\xcc\xcc\xec?'
tRp208
sg23
g24
sg25
I13
sg26
F0.5
sa(dp209
g3
g189
sS'N'
I100
sg8
F0.98999999999999999
sg9
F0
sS'T'
I100
sg10
g13
sg14
g15
sg16
I1000
sg17
I2
sg18
I4
sg19
g20
sg21
g4
(g6
S'\x1f\x85\xebQ\xb8\x1e\xed?'
tRp210
sg23
g24
sg25
I13
sg26
F0.5
sa(dp211
g3
g189
sS'N'
I100
sg8
F0.98999999999999999
sg9
F0
sS'T'
I100
sg10
g13
sg14
g15
sg16
I1000
sg17
I2
sg18
I4
sg19
g20
sg21
g4
(g6
S'q=\n\xd7\xa3p\xed?'
tRp212
sg23
g24
sg25
I13
sg26
F0.5
sa(dp213
g3
g189
sS'N'
I100
sg8
F0.98999999999999999
sg9
F0
sS'T'
I100
sg10
g13
sg14
g15
sg16
I1000
sg17
I2
sg18
I4
sg19
g20
sg21
g4
(g6
S'\xc3\xf5(\\\x8f\xc2\xed?'
tRp214
sg23
g24
sg25
I13
sg26
F0.5
sa(dp215
g3
g189
sS'N'
I100
sg8
F0.98999999999999999
sg9
F0
sS'T'
I100
sg10
g13
sg14
g15
sg16
I1000
sg17
I2
sg18
I4
sg19
g20
sg21
g4
(g6
S'\x15\xaeG\xe1z\x14\xee?'
tRp216
sg23
g24
sg25
I13
sg26
F0.5
sa(dp217
g3
g189
sS'N'
I100
sg8
F0.98999999999999999
sg9
F0
sS'T'
I100
sg10
g13
sg14
g15
sg16
I1000
sg17
I2
sg18
I4
sg19
g20
sg21
g4
(g6
S'gfffff\xee?'
tRp218
sg23
g24
sg25
I13
sg26
F0.5
sa(dp219
g3
g189
sS'N'
I100
sg8
F0.98999999999999999
sg9
F0
sS'T'
I100
sg10
g13
sg14
g15
sg16
I1000
sg17
I2
sg18
I4
sg19
g20
sg21
g4
(g6
S'\xb9\x1e\x85\xebQ\xb8\xee?'
tRp220
sg23
g24
sg25
I13
sg26
F0.5
sa(dp221
g3
g189
sS'N'
I100
sg8
F0.98999999999999999
sg9
F0
sS'T'
I100
sg10
g13
sg14
g15
sg16
I1000
sg17
I2
sg18
I4
sg19
g20
sg21
g4
(g6
S'\x0b\xd7\xa3p=\n\xef?'
tRp222
sg23
g24
sg25
I13
sg26
F0.5
sa(dp223
g3
g189
sS'N'
I100
sg8
F0.98999999999999999
sg9
F0
sS'T'
I100
sg10
g13
sg14
g15
sg16
I1000
sg17
I2
sg18
I4
sg19
g20
sg21
g4
(g6
S']\x8f\xc2\xf5(\\\xef?'
tRp224
sg23
g24
sg25
I13
sg26
F0.5
sa(dp225
g3
g189
sS'N'
I100
sg8
F0.98999999999999999
sg9
F0
sS'T'
I100
sg10
g13
sg14
g15
sg16
I1000
sg17
I2
sg18
I4
sg19
g20
sg21
g4
(g6
S'\xafG\xe1z\x14\xae\xef?'
tRp226
sg23
g24
sg25
I13
sg26
F0.5
sa(dp227
g3
g189
sS'N'
I100
sg8
F0.98999999999999999
sg9
F0
sS'T'
I100
sg10
g13
sg14
g15
sg16
I1000
sg17
I2
sg18
I4
sg19
g20
sg21
g4
(g6
S'\x00\x00\x00\x00\x00\x00\xf0?'
tRp228
sg23
g24
sg25
I13
sg26
F0.5
sa(dp229
g3
g4
(g6
S'\x87\x14\xaeG\xe1z\x84?'
tRp230
sS'N'
I100
sg8
F0.98999999999999999
sg9
F0
sS'T'
I100
sg10
g13
sg14
g15
sg16
I1000
sg17
I2
sg18
I4
sg19
g20
sg21
g4
(g6
S'\x00\x00\x00\x00\x00\x00\x00\x00'
tRp231
sg23
g24
sg25
I13
sg26
F0.5
sa(dp232
g3
g230
sS'N'
I100
sg8
F0.98999999999999999
sg9
F0
sS'T'
I100
sg10
g13
sg14
g15
sg16
I1000
sg17
I2
sg18
I4
sg19
g20
sg21
g4
(g6
S'\x9a\x99\x99\x99\x99\x99\xb9?'
tRp233
sg23
g24
sg25
I13
sg26
F0.5
sa(dp234
g3
g230
sS'N'
I100
sg8
F0.98999999999999999
sg9
F0
sS'T'
I100
sg10
g13
sg14
g15
sg16
I1000
sg17
I2
sg18
I4
sg19
g20
sg21
g4
(g6
S'\x9a\x99\x99\x99\x99\x99\xc9?'
tRp235
sg23
g24
sg25
I13
sg26
F0.5
sa(dp236
g3
g230
sS'N'
I100
sg8
F0.98999999999999999
sg9
F0
sS'T'
I100
sg10
g13
sg14
g15
sg16
I1000
sg17
I2
sg18
I4
sg19
g20
sg21
g4
(g6
S'433333\xd3?'
tRp237
sg23
g24
sg25
I13
sg26
F0.5
sa(dp238
g3
g230
sS'N'
I100
sg8
F0.98999999999999999
sg9
F0
sS'T'
I100
sg10
g13
sg14
g15
sg16
I1000
sg17
I2
sg18
I4
sg19
g20
sg21
g4
(g6
S'\x9a\x99\x99\x99\x99\x99\xd9?'
tRp239
sg23
g24
sg25
I13
sg26
F0.5
sa(dp240
g3
g230
sS'N'
I100
sg8
F0.98999999999999999
sg9
F0
sS'T'
I100
sg10
g13
sg14
g15
sg16
I1000
sg17
I2
sg18
I4
sg19
g20
sg21
g4
(g6
S'\x00\x00\x00\x00\x00\x00\xe0?'
tRp241
sg23
g24
sg25
I13
sg26
F0.5
sa(dp242
g3
g230
sS'N'
I100
sg8
F0.98999999999999999
sg9
F0
sS'T'
I100
sg10
g13
sg14
g15
sg16
I1000
sg17
I2
sg18
I4
sg19
g20
sg21
g4
(g6
S'433333\xe3?'
tRp243
sg23
g24
sg25
I13
sg26
F0.5
sa(dp244
g3
g230
sS'N'
I100
sg8
F0.98999999999999999
sg9
F0
sS'T'
I100
sg10
g13
sg14
g15
sg16
I1000
sg17
I2
sg18
I4
sg19
g20
sg21
g4
(g6
S'gfffff\xe6?'
tRp245
sg23
g24
sg25
I13
sg26
F0.5
sa(dp246
g3
g230
sS'N'
I100
sg8
F0.98999999999999999
sg9
F0
sS'T'
I100
sg10
g13
sg14
g15
sg16
I1000
sg17
I2
sg18
I4
sg19
g20
sg21
g4
(g6
S'\x9a\x99\x99\x99\x99\x99\xe9?'
tRp247
sg23
g24
sg25
I13
sg26
F0.5
sa(dp248
g3
g230
sS'N'
I100
sg8
F0.98999999999999999
sg9
F0
sS'T'
I100
sg10
g13
sg14
g15
sg16
I1000
sg17
I2
sg18
I4
sg19
g20
sg21
g4
(g6
S'\xcd\xcc\xcc\xcc\xcc\xcc\xec?'
tRp249
sg23
g24
sg25
I13
sg26
F0.5
sa(dp250
g3
g230
sS'N'
I100
sg8
F0.98999999999999999
sg9
F0
sS'T'
I100
sg10
g13
sg14
g15
sg16
I1000
sg17
I2
sg18
I4
sg19
g20
sg21
g4
(g6
S'\x1f\x85\xebQ\xb8\x1e\xed?'
tRp251
sg23
g24
sg25
I13
sg26
F0.5
sa(dp252
g3
g230
sS'N'
I100
sg8
F0.98999999999999999
sg9
F0
sS'T'
I100
sg10
g13
sg14
g15
sg16
I1000
sg17
I2
sg18
I4
sg19
g20
sg21
g4
(g6
S'q=\n\xd7\xa3p\xed?'
tRp253
sg23
g24
sg25
I13
sg26
F0.5
sa(dp254
g3
g230
sS'N'
I100
sg8
F0.98999999999999999
sg9
F0
sS'T'
I100
sg10
g13
sg14
g15
sg16
I1000
sg17
I2
sg18
I4
sg19
g20
sg21
g4
(g6
S'\xc3\xf5(\\\x8f\xc2\xed?'
tRp255
sg23
g24
sg25
I13
sg26
F0.5
sa(dp256
g3
g230
sS'N'
I100
sg8
F0.98999999999999999
sg9
F0
sS'T'
I100
sg10
g13
sg14
g15
sg16
I1000
sg17
I2
sg18
I4
sg19
g20
sg21
g4
(g6
S'\x15\xaeG\xe1z\x14\xee?'
tRp257
sg23
g24
sg25
I13
sg26
F0.5
sa(dp258
g3
g230
sS'N'
I100
sg8
F0.98999999999999999
sg9
F0
sS'T'
I100
sg10
g13
sg14
g15
sg16
I1000
sg17
I2
sg18
I4
sg19
g20
sg21
g4
(g6
S'gfffff\xee?'
tRp259
sg23
g24
sg25
I13
sg26
F0.5
sa(dp260
g3
g230
sS'N'
I100
sg8
F0.98999999999999999
sg9
F0
sS'T'
I100
sg10
g13
sg14
g15
sg16
I1000
sg17
I2
sg18
I4
sg19
g20
sg21
g4
(g6
S'\xb9\x1e\x85\xebQ\xb8\xee?'
tRp261
sg23
g24
sg25
I13
sg26
F0.5
sa(dp262
g3
g230
sS'N'
I100
sg8
F0.98999999999999999
sg9
F0
sS'T'
I100
sg10
g13
sg14
g15
sg16
I1000
sg17
I2
sg18
I4
sg19
g20
sg21
g4
(g6
S'\x0b\xd7\xa3p=\n\xef?'
tRp263
sg23
g24
sg25
I13
sg26
F0.5
sa(dp264
g3
g230
sS'N'
I100
sg8
F0.98999999999999999
sg9
F0
sS'T'
I100
sg10
g13
sg14
g15
sg16
I1000
sg17
I2
sg18
I4
sg19
g20
sg21
g4
(g6
S']\x8f\xc2\xf5(\\\xef?'
tRp265
sg23
g24
sg25
I13
sg26
F0.5
sa(dp266
g3
g230
sS'N'
I100
sg8
F0.98999999999999999
sg9
F0
sS'T'
I100
sg10
g13
sg14
g15
sg16
I1000
sg17
I2
sg18
I4
sg19
g20
sg21
g4
(g6
S'\xafG\xe1z\x14\xae\xef?'
tRp267
sg23
g24
sg25
I13
sg26
F0.5
sa(dp268
g3
g230
sS'N'
I100
sg8
F0.98999999999999999
sg9
F0
sS'T'
I100
sg10
g13
sg14
g15
sg16
I1000
sg17
I2
sg18
I4
sg19
g20
sg21
g4
(g6
S'\x00\x00\x00\x00\x00\x00\xf0?'
tRp269
sg23
g24
sg25
I13
sg26
F0.5
sa(dp270
g3
g4
(g6
S'\xcf\xc2+\xd1\xb3:\x90?'
tRp271
sS'N'
I100
sg8
F0.98999999999999999
sg9
F0
sS'T'
I100
sg10
g13
sg14
g15
sg16
I1000
sg17
I2
sg18
I4
sg19
g20
sg21
g4
(g6
S'\x00\x00\x00\x00\x00\x00\x00\x00'
tRp272
sg23
g24
sg25
I13
sg26
F0.5
sa(dp273
g3
g271
sS'N'
I100
sg8
F0.98999999999999999
sg9
F0
sS'T'
I100
sg10
g13
sg14
g15
sg16
I1000
sg17
I2
sg18
I4
sg19
g20
sg21
g4
(g6
S'\x9a\x99\x99\x99\x99\x99\xb9?'
tRp274
sg23
g24
sg25
I13
sg26
F0.5
sa(dp275
g3
g271
sS'N'
I100
sg8
F0.98999999999999999
sg9
F0
sS'T'
I100
sg10
g13
sg14
g15
sg16
I1000
sg17
I2
sg18
I4
sg19
g20
sg21
g4
(g6
S'\x9a\x99\x99\x99\x99\x99\xc9?'
tRp276
sg23
g24
sg25
I13
sg26
F0.5
sa(dp277
g3
g271
sS'N'
I100
sg8
F0.98999999999999999
sg9
F0
sS'T'
I100
sg10
g13
sg14
g15
sg16
I1000
sg17
I2
sg18
I4
sg19
g20
sg21
g4
(g6
S'433333\xd3?'
tRp278
sg23
g24
sg25
I13
sg26
F0.5
sa(dp279
g3
g271
sS'N'
I100
sg8
F0.98999999999999999
sg9
F0
sS'T'
I100
sg10
g13
sg14
g15
sg16
I1000
sg17
I2
sg18
I4
sg19
g20
sg21
g4
(g6
S'\x9a\x99\x99\x99\x99\x99\xd9?'
tRp280
sg23
g24
sg25
I13
sg26
F0.5
sa(dp281
g3
g271
sS'N'
I100
sg8
F0.98999999999999999
sg9
F0
sS'T'
I100
sg10
g13
sg14
g15
sg16
I1000
sg17
I2
sg18
I4
sg19
g20
sg21
g4
(g6
S'\x00\x00\x00\x00\x00\x00\xe0?'
tRp282
sg23
g24
sg25
I13
sg26
F0.5
sa(dp283
g3
g271
sS'N'
I100
sg8
F0.98999999999999999
sg9
F0
sS'T'
I100
sg10
g13
sg14
g15
sg16
I1000
sg17
I2
sg18
I4
sg19
g20
sg21
g4
(g6
S'433333\xe3?'
tRp284
sg23
g24
sg25
I13
sg26
F0.5
sa(dp285
g3
g271
sS'N'
I100
sg8
F0.98999999999999999
sg9
F0
sS'T'
I100
sg10
g13
sg14
g15
sg16
I1000
sg17
I2
sg18
I4
sg19
g20
sg21
g4
(g6
S'gfffff\xe6?'
tRp286
sg23
g24
sg25
I13
sg26
F0.5
sa(dp287
g3
g271
sS'N'
I100
sg8
F0.98999999999999999
sg9
F0
sS'T'
I100
sg10
g13
sg14
g15
sg16
I1000
sg17
I2
sg18
I4
sg19
g20
sg21
g4
(g6
S'\x9a\x99\x99\x99\x99\x99\xe9?'
tRp288
sg23
g24
sg25
I13
sg26
F0.5
sa(dp289
g3
g271
sS'N'
I100
sg8
F0.98999999999999999
sg9
F0
sS'T'
I100
sg10
g13
sg14
g15
sg16
I1000
sg17
I2
sg18
I4
sg19
g20
sg21
g4
(g6
S'\xcd\xcc\xcc\xcc\xcc\xcc\xec?'
tRp290
sg23
g24
sg25
I13
sg26
F0.5
sa(dp291
g3
g271
sS'N'
I100
sg8
F0.98999999999999999
sg9
F0
sS'T'
I100
sg10
g13
sg14
g15
sg16
I1000
sg17
I2
sg18
I4
sg19
g20
sg21
g4
(g6
S'\x1f\x85\xebQ\xb8\x1e\xed?'
tRp292
sg23
g24
sg25
I13
sg26
F0.5
sa(dp293
g3
g271
sS'N'
I100
sg8
F0.98999999999999999
sg9
F0
sS'T'
I100
sg10
g13
sg14
g15
sg16
I1000
sg17
I2
sg18
I4
sg19
g20
sg21
g4
(g6
S'q=\n\xd7\xa3p\xed?'
tRp294
sg23
g24
sg25
I13
sg26
F0.5
sa(dp295
g3
g271
sS'N'
I100
sg8
F0.98999999999999999
sg9
F0
sS'T'
I100
sg10
g13
sg14
g15
sg16
I1000
sg17
I2
sg18
I4
sg19
g20
sg21
g4
(g6
S'\xc3\xf5(\\\x8f\xc2\xed?'
tRp296
sg23
g24
sg25
I13
sg26
F0.5
sa(dp297
g3
g271
sS'N'
I100
sg8
F0.98999999999999999
sg9
F0
sS'T'
I100
sg10
g13
sg14
g15
sg16
I1000
sg17
I2
sg18
I4
sg19
g20
sg21
g4
(g6
S'\x15\xaeG\xe1z\x14\xee?'
tRp298
sg23
g24
sg25
I13
sg26
F0.5
sa(dp299
g3
g271
sS'N'
I100
sg8
F0.98999999999999999
sg9
F0
sS'T'
I100
sg10
g13
sg14
g15
sg16
I1000
sg17
I2
sg18
I4
sg19
g20
sg21
g4
(g6
S'gfffff\xee?'
tRp300
sg23
g24
sg25
I13
sg26
F0.5
sa(dp301
g3
g271
sS'N'
I100
sg8
F0.98999999999999999
sg9
F0
sS'T'
I100
sg10
g13
sg14
g15
sg16
I1000
sg17
I2
sg18
I4
sg19
g20
sg21
g4
(g6
S'\xb9\x1e\x85\xebQ\xb8\xee?'
tRp302
sg23
g24
sg25
I13
sg26
F0.5
sa(dp303
g3
g271
sS'N'
I100
sg8
F0.98999999999999999
sg9
F0
sS'T'
I100
sg10
g13
sg14
g15
sg16
I1000
sg17
I2
sg18
I4
sg19
g20
sg21
g4
(g6
S'\x0b\xd7\xa3p=\n\xef?'
tRp304
sg23
g24
sg25
I13
sg26
F0.5
sa(dp305
g3
g271
sS'N'
I100
sg8
F0.98999999999999999
sg9
F0
sS'T'
I100
sg10
g13
sg14
g15
sg16
I1000
sg17
I2
sg18
I4
sg19
g20
sg21
g4
(g6
S']\x8f\xc2\xf5(\\\xef?'
tRp306
sg23
g24
sg25
I13
sg26
F0.5
sa(dp307
g3
g271
sS'N'
I100
sg8
F0.98999999999999999
sg9
F0
sS'T'
I100
sg10
g13
sg14
g15
sg16
I1000
sg17
I2
sg18
I4
sg19
g20
sg21
g4
(g6
S'\xafG\xe1z\x14\xae\xef?'
tRp308
sg23
g24
sg25
I13
sg26
F0.5
sa(dp309
g3
g271
sS'N'
I100
sg8
F0.98999999999999999
sg9
F0
sS'T'
I100
sg10
g13
sg14
g15
sg16
I1000
sg17
I2
sg18
I4
sg19
g20
sg21
g4
(g6
S'\x00\x00\x00\x00\x00\x00\xf0?'
tRp310
sg23
g24
sg25
I13
sg26
F0.5
sa(dp311
g3
g4
(g6
S'\xf5\xe6\xfbr\xc2\xb8\x99?'
tRp312
sS'N'
I100
sg8
F0.98999999999999999
sg9
F0
sS'T'
I100
sg10
g13
sg14
g15
sg16
I1000
sg17
I2
sg18
I4
sg19
g20
sg21
g4
(g6
S'\x00\x00\x00\x00\x00\x00\x00\x00'
tRp313
sg23
g24
sg25
I13
sg26
F0.5
sa(dp314
g3
g312
sS'N'
I100
sg8
F0.98999999999999999
sg9
F0
sS'T'
I100
sg10
g13
sg14
g15
sg16
I1000
sg17
I2
sg18
I4
sg19
g20
sg21
g4
(g6
S'\x9a\x99\x99\x99\x99\x99\xb9?'
tRp315
sg23
g24
sg25
I13
sg26
F0.5
sa(dp316
g3
g312
sS'N'
I100
sg8
F0.98999999999999999
sg9
F0
sS'T'
I100
sg10
g13
sg14
g15
sg16
I1000
sg17
I2
sg18
I4
sg19
g20
sg21
g4
(g6
S'\x9a\x99\x99\x99\x99\x99\xc9?'
tRp317
sg23
g24
sg25
I13
sg26
F0.5
sa(dp318
g3
g312
sS'N'
I100
sg8
F0.98999999999999999
sg9
F0
sS'T'
I100
sg10
g13
sg14
g15
sg16
I1000
sg17
I2
sg18
I4
sg19
g20
sg21
g4
(g6
S'433333\xd3?'
tRp319
sg23
g24
sg25
I13
sg26
F0.5
sa(dp320
g3
g312
sS'N'
I100
sg8
F0.98999999999999999
sg9
F0
sS'T'
I100
sg10
g13
sg14
g15
sg16
I1000
sg17
I2
sg18
I4
sg19
g20
sg21
g4
(g6
S'\x9a\x99\x99\x99\x99\x99\xd9?'
tRp321
sg23
g24
sg25
I13
sg26
F0.5
sa(dp322
g3
g312
sS'N'
I100
sg8
F0.98999999999999999
sg9
F0
sS'T'
I100
sg10
g13
sg14
g15
sg16
I1000
sg17
I2
sg18
I4
sg19
g20
sg21
g4
(g6
S'\x00\x00\x00\x00\x00\x00\xe0?'
tRp323
sg23
g24
sg25
I13
sg26
F0.5
sa(dp324
g3
g312
sS'N'
I100
sg8
F0.98999999999999999
sg9
F0
sS'T'
I100
sg10
g13
sg14
g15
sg16
I1000
sg17
I2
sg18
I4
sg19
g20
sg21
g4
(g6
S'433333\xe3?'
tRp325
sg23
g24
sg25
I13
sg26
F0.5
sa(dp326
g3
g312
sS'N'
I100
sg8
F0.98999999999999999
sg9
F0
sS'T'
I100
sg10
g13
sg14
g15
sg16
I1000
sg17
I2
sg18
I4
sg19
g20
sg21
g4
(g6
S'gfffff\xe6?'
tRp327
sg23
g24
sg25
I13
sg26
F0.5
sa(dp328
g3
g312
sS'N'
I100
sg8
F0.98999999999999999
sg9
F0
sS'T'
I100
sg10
g13
sg14
g15
sg16
I1000
sg17
I2
sg18
I4
sg19
g20
sg21
g4
(g6
S'\x9a\x99\x99\x99\x99\x99\xe9?'
tRp329
sg23
g24
sg25
I13
sg26
F0.5
sa(dp330
g3
g312
sS'N'
I100
sg8
F0.98999999999999999
sg9
F0
sS'T'
I100
sg10
g13
sg14
g15
sg16
I1000
sg17
I2
sg18
I4
sg19
g20
sg21
g4
(g6
S'\xcd\xcc\xcc\xcc\xcc\xcc\xec?'
tRp331
sg23
g24
sg25
I13
sg26
F0.5
sa(dp332
g3
g312
sS'N'
I100
sg8
F0.98999999999999999
sg9
F0
sS'T'
I100
sg10
g13
sg14
g15
sg16
I1000
sg17
I2
sg18
I4
sg19
g20
sg21
g4
(g6
S'\x1f\x85\xebQ\xb8\x1e\xed?'
tRp333
sg23
g24
sg25
I13
sg26
F0.5
sa(dp334
g3
g312
sS'N'
I100
sg8
F0.98999999999999999
sg9
F0
sS'T'
I100
sg10
g13
sg14
g15
sg16
I1000
sg17
I2
sg18
I4
sg19
g20
sg21
g4
(g6
S'q=\n\xd7\xa3p\xed?'
tRp335
sg23
g24
sg25
I13
sg26
F0.5
sa(dp336
g3
g312
sS'N'
I100
sg8
F0.98999999999999999
sg9
F0
sS'T'
I100
sg10
g13
sg14
g15
sg16
I1000
sg17
I2
sg18
I4
sg19
g20
sg21
g4
(g6
S'\xc3\xf5(\\\x8f\xc2\xed?'
tRp337
sg23
g24
sg25
I13
sg26
F0.5
sa(dp338
g3
g312
sS'N'
I100
sg8
F0.98999999999999999
sg9
F0
sS'T'
I100
sg10
g13
sg14
g15
sg16
I1000
sg17
I2
sg18
I4
sg19
g20
sg21
g4
(g6
S'\x15\xaeG\xe1z\x14\xee?'
tRp339
sg23
g24
sg25
I13
sg26
F0.5
sa(dp340
g3
g312
sS'N'
I100
sg8
F0.98999999999999999
sg9
F0
sS'T'
I100
sg10
g13
sg14
g15
sg16
I1000
sg17
I2
sg18
I4
sg19
g20
sg21
g4
(g6
S'gfffff\xee?'
tRp341
sg23
g24
sg25
I13
sg26
F0.5
sa(dp342
g3
g312
sS'N'
I100
sg8
F0.98999999999999999
sg9
F0
sS'T'
I100
sg10
g13
sg14
g15
sg16
I1000
sg17
I2
sg18
I4
sg19
g20
sg21
g4
(g6
S'\xb9\x1e\x85\xebQ\xb8\xee?'
tRp343
sg23
g24
sg25
I13
sg26
F0.5
sa(dp344
g3
g312
sS'N'
I100
sg8
F0.98999999999999999
sg9
F0
sS'T'
I100
sg10
g13
sg14
g15
sg16
I1000
sg17
I2
sg18
I4
sg19
g20
sg21
g4
(g6
S'\x0b\xd7\xa3p=\n\xef?'
tRp345
sg23
g24
sg25
I13
sg26
F0.5
sa(dp346
g3
g312
sS'N'
I100
sg8
F0.98999999999999999
sg9
F0
sS'T'
I100
sg10
g13
sg14
g15
sg16
I1000
sg17
I2
sg18
I4
sg19
g20
sg21
g4
(g6
S']\x8f\xc2\xf5(\\\xef?'
tRp347
sg23
g24
sg25
I13
sg26
F0.5
sa(dp348
g3
g312
sS'N'
I100
sg8
F0.98999999999999999
sg9
F0
sS'T'
I100
sg10
g13
sg14
g15
sg16
I1000
sg17
I2
sg18
I4
sg19
g20
sg21
g4
(g6
S'\xafG\xe1z\x14\xae\xef?'
tRp349
sg23
g24
sg25
I13
sg26
F0.5
sa(dp350
g3
g312
sS'N'
I100
sg8
F0.98999999999999999
sg9
F0
sS'T'
I100
sg10
g13
sg14
g15
sg16
I1000
sg17
I2
sg18
I4
sg19
g20
sg21
g4
(g6
S'\x00\x00\x00\x00\x00\x00\xf0?'
tRp351
sg23
g24
sg25
I13
sg26
F0.5
sa(dp352
g3
g4
(g6
S';\xea\x90\xff\x11b\xa4?'
tRp353
sS'N'
I100
sg8
F0.98999999999999999
sg9
F0
sS'T'
I100
sg10
g13
sg14
g15
sg16
I1000
sg17
I2
sg18
I4
sg19
g20
sg21
g4
(g6
S'\x00\x00\x00\x00\x00\x00\x00\x00'
tRp354
sg23
g24
sg25
I13
sg26
F0.5
sa(dp355
g3
g353
sS'N'
I100
sg8
F0.98999999999999999
sg9
F0
sS'T'
I100
sg10
g13
sg14
g15
sg16
I1000
sg17
I2
sg18
I4
sg19
g20
sg21
g4
(g6
S'\x9a\x99\x99\x99\x99\x99\xb9?'
tRp356
sg23
g24
sg25
I13
sg26
F0.5
sa(dp357
g3
g353
sS'N'
I100
sg8
F0.98999999999999999
sg9
F0
sS'T'
I100
sg10
g13
sg14
g15
sg16
I1000
sg17
I2
sg18
I4
sg19
g20
sg21
g4
(g6
S'\x9a\x99\x99\x99\x99\x99\xc9?'
tRp358
sg23
g24
sg25
I13
sg26
F0.5
sa(dp359
g3
g353
sS'N'
I100
sg8
F0.98999999999999999
sg9
F0
sS'T'
I100
sg10
g13
sg14
g15
sg16
I1000
sg17
I2
sg18
I4
sg19
g20
sg21
g4
(g6
S'433333\xd3?'
tRp360
sg23
g24
sg25
I13
sg26
F0.5
sa(dp361
g3
g353
sS'N'
I100
sg8
F0.98999999999999999
sg9
F0
sS'T'
I100
sg10
g13
sg14
g15
sg16
I1000
sg17
I2
sg18
I4
sg19
g20
sg21
g4
(g6
S'\x9a\x99\x99\x99\x99\x99\xd9?'
tRp362
sg23
g24
sg25
I13
sg26
F0.5
sa(dp363
g3
g353
sS'N'
I100
sg8
F0.98999999999999999
sg9
F0
sS'T'
I100
sg10
g13
sg14
g15
sg16
I1000
sg17
I2
sg18
I4
sg19
g20
sg21
g4
(g6
S'\x00\x00\x00\x00\x00\x00\xe0?'
tRp364
sg23
g24
sg25
I13
sg26
F0.5
sa(dp365
g3
g353
sS'N'
I100
sg8
F0.98999999999999999
sg9
F0
sS'T'
I100
sg10
g13
sg14
g15
sg16
I1000
sg17
I2
sg18
I4
sg19
g20
sg21
g4
(g6
S'433333\xe3?'
tRp366
sg23
g24
sg25
I13
sg26
F0.5
sa(dp367
g3
g353
sS'N'
I100
sg8
F0.98999999999999999
sg9
F0
sS'T'
I100
sg10
g13
sg14
g15
sg16
I1000
sg17
I2
sg18
I4
sg19
g20
sg21
g4
(g6
S'gfffff\xe6?'
tRp368
sg23
g24
sg25
I13
sg26
F0.5
sa(dp369
g3
g353
sS'N'
I100
sg8
F0.98999999999999999
sg9
F0
sS'T'
I100
sg10
g13
sg14
g15
sg16
I1000
sg17
I2
sg18
I4
sg19
g20
sg21
g4
(g6
S'\x9a\x99\x99\x99\x99\x99\xe9?'
tRp370
sg23
g24
sg25
I13
sg26
F0.5
sa(dp371
g3
g353
sS'N'
I100
sg8
F0.98999999999999999
sg9
F0
sS'T'
I100
sg10
g13
sg14
g15
sg16
I1000
sg17
I2
sg18
I4
sg19
g20
sg21
g4
(g6
S'\xcd\xcc\xcc\xcc\xcc\xcc\xec?'
tRp372
sg23
g24
sg25
I13
sg26
F0.5
sa(dp373
g3
g353
sS'N'
I100
sg8
F0.98999999999999999
sg9
F0
sS'T'
I100
sg10
g13
sg14
g15
sg16
I1000
sg17
I2
sg18
I4
sg19
g20
sg21
g4
(g6
S'\x1f\x85\xebQ\xb8\x1e\xed?'
tRp374
sg23
g24
sg25
I13
sg26
F0.5
sa(dp375
g3
g353
sS'N'
I100
sg8
F0.98999999999999999
sg9
F0
sS'T'
I100
sg10
g13
sg14
g15
sg16
I1000
sg17
I2
sg18
I4
sg19
g20
sg21
g4
(g6
S'q=\n\xd7\xa3p\xed?'
tRp376
sg23
g24
sg25
I13
sg26
F0.5
sa(dp377
g3
g353
sS'N'
I100
sg8
F0.98999999999999999
sg9
F0
sS'T'
I100
sg10
g13
sg14
g15
sg16
I1000
sg17
I2
sg18
I4
sg19
g20
sg21
g4
(g6
S'\xc3\xf5(\\\x8f\xc2\xed?'
tRp378
sg23
g24
sg25
I13
sg26
F0.5
sa(dp379
g3
g353
sS'N'
I100
sg8
F0.98999999999999999
sg9
F0
sS'T'
I100
sg10
g13
sg14
g15
sg16
I1000
sg17
I2
sg18
I4
sg19
g20
sg21
g4
(g6
S'\x15\xaeG\xe1z\x14\xee?'
tRp380
sg23
g24
sg25
I13
sg26
F0.5
sa(dp381
g3
g353
sS'N'
I100
sg8
F0.98999999999999999
sg9
F0
sS'T'
I100
sg10
g13
sg14
g15
sg16
I1000
sg17
I2
sg18
I4
sg19
g20
sg21
g4
(g6
S'gfffff\xee?'
tRp382
sg23
g24
sg25
I13
sg26
F0.5
sa(dp383
g3
g353
sS'N'
I100
sg8
F0.98999999999999999
sg9
F0
sS'T'
I100
sg10
g13
sg14
g15
sg16
I1000
sg17
I2
sg18
I4
sg19
g20
sg21
g4
(g6
S'\xb9\x1e\x85\xebQ\xb8\xee?'
tRp384
sg23
g24
sg25
I13
sg26
F0.5
sa(dp385
g3
g353
sS'N'
I100
sg8
F0.98999999999999999
sg9
F0
sS'T'
I100
sg10
g13
sg14
g15
sg16
I1000
sg17
I2
sg18
I4
sg19
g20
sg21
g4
(g6
S'\x0b\xd7\xa3p=\n\xef?'
tRp386
sg23
g24
sg25
I13
sg26
F0.5
sa(dp387
g3
g353
sS'N'
I100
sg8
F0.98999999999999999
sg9
F0
sS'T'
I100
sg10
g13
sg14
g15
sg16
I1000
sg17
I2
sg18
I4
sg19
g20
sg21
g4
(g6
S']\x8f\xc2\xf5(\\\xef?'
tRp388
sg23
g24
sg25
I13
sg26
F0.5
sa(dp389
g3
g353
sS'N'
I100
sg8
F0.98999999999999999
sg9
F0
sS'T'
I100
sg10
g13
sg14
g15
sg16
I1000
sg17
I2
sg18
I4
sg19
g20
sg21
g4
(g6
S'\xafG\xe1z\x14\xae\xef?'
tRp390
sg23
g24
sg25
I13
sg26
F0.5
sa(dp391
g3
g353
sS'N'
I100
sg8
F0.98999999999999999
sg9
F0
sS'T'
I100
sg10
g13
sg14
g15
sg16
I1000
sg17
I2
sg18
I4
sg19
g20
sg21
g4
(g6
S'\x00\x00\x00\x00\x00\x00\xf0?'
tRp392
sg23
g24
sg25
I13
sg26
F0.5
sa(dp393
g3
g4
(g6
S"\n\xaa\xf8\xc3\n'\xb0?"
tRp394
sS'N'
I100
sg8
F0.98999999999999999
sg9
F0
sS'T'
I100
sg10
g13
sg14
g15
sg16
I1000
sg17
I2
sg18
I4
sg19
g20
sg21
g4
(g6
S'\x00\x00\x00\x00\x00\x00\x00\x00'
tRp395
sg23
g24
sg25
I13
sg26
F0.5
sa(dp396
g3
g394
sS'N'
I100
sg8
F0.98999999999999999
sg9
F0
sS'T'
I100
sg10
g13
sg14
g15
sg16
I1000
sg17
I2
sg18
I4
sg19
g20
sg21
g4
(g6
S'\x9a\x99\x99\x99\x99\x99\xb9?'
tRp397
sg23
g24
sg25
I13
sg26
F0.5
sa(dp398
g3
g394
sS'N'
I100
sg8
F0.98999999999999999
sg9
F0
sS'T'
I100
sg10
g13
sg14
g15
sg16
I1000
sg17
I2
sg18
I4
sg19
g20
sg21
g4
(g6
S'\x9a\x99\x99\x99\x99\x99\xc9?'
tRp399
sg23
g24
sg25
I13
sg26
F0.5
sa(dp400
g3
g394
sS'N'
I100
sg8
F0.98999999999999999
sg9
F0
sS'T'
I100
sg10
g13
sg14
g15
sg16
I1000
sg17
I2
sg18
I4
sg19
g20
sg21
g4
(g6
S'433333\xd3?'
tRp401
sg23
g24
sg25
I13
sg26
F0.5
sa(dp402
g3
g394
sS'N'
I100
sg8
F0.98999999999999999
sg9
F0
sS'T'
I100
sg10
g13
sg14
g15
sg16
I1000
sg17
I2
sg18
I4
sg19
g20
sg21
g4
(g6
S'\x9a\x99\x99\x99\x99\x99\xd9?'
tRp403
sg23
g24
sg25
I13
sg26
F0.5
sa(dp404
g3
g394
sS'N'
I100
sg8
F0.98999999999999999
sg9
F0
sS'T'
I100
sg10
g13
sg14
g15
sg16
I1000
sg17
I2
sg18
I4
sg19
g20
sg21
g4
(g6
S'\x00\x00\x00\x00\x00\x00\xe0?'
tRp405
sg23
g24
sg25
I13
sg26
F0.5
sa(dp406
g3
g394
sS'N'
I100
sg8
F0.98999999999999999
sg9
F0
sS'T'
I100
sg10
g13
sg14
g15
sg16
I1000
sg17
I2
sg18
I4
sg19
g20
sg21
g4
(g6
S'433333\xe3?'
tRp407
sg23
g24
sg25
I13
sg26
F0.5
sa(dp408
g3
g394
sS'N'
I100
sg8
F0.98999999999999999
sg9
F0
sS'T'
I100
sg10
g13
sg14
g15
sg16
I1000
sg17
I2
sg18
I4
sg19
g20
sg21
g4
(g6
S'gfffff\xe6?'
tRp409
sg23
g24
sg25
I13
sg26
F0.5
sa(dp410
g3
g394
sS'N'
I100
sg8
F0.98999999999999999
sg9
F0
sS'T'
I100
sg10
g13
sg14
g15
sg16
I1000
sg17
I2
sg18
I4
sg19
g20
sg21
g4
(g6
S'\x9a\x99\x99\x99\x99\x99\xe9?'
tRp411
sg23
g24
sg25
I13
sg26
F0.5
sa(dp412
g3
g394
sS'N'
I100
sg8
F0.98999999999999999
sg9
F0
sS'T'
I100
sg10
g13
sg14
g15
sg16
I1000
sg17
I2
sg18
I4
sg19
g20
sg21
g4
(g6
S'\xcd\xcc\xcc\xcc\xcc\xcc\xec?'
tRp413
sg23
g24
sg25
I13
sg26
F0.5
sa(dp414
g3
g394
sS'N'
I100
sg8
F0.98999999999999999
sg9
F0
sS'T'
I100
sg10
g13
sg14
g15
sg16
I1000
sg17
I2
sg18
I4
sg19
g20
sg21
g4
(g6
S'\x1f\x85\xebQ\xb8\x1e\xed?'
tRp415
sg23
g24
sg25
I13
sg26
F0.5
sa(dp416
g3
g394
sS'N'
I100
sg8
F0.98999999999999999
sg9
F0
sS'T'
I100
sg10
g13
sg14
g15
sg16
I1000
sg17
I2
sg18
I4
sg19
g20
sg21
g4
(g6
S'q=\n\xd7\xa3p\xed?'
tRp417
sg23
g24
sg25
I13
sg26
F0.5
sa(dp418
g3
g394
sS'N'
I100
sg8
F0.98999999999999999
sg9
F0
sS'T'
I100
sg10
g13
sg14
g15
sg16
I1000
sg17
I2
sg18
I4
sg19
g20
sg21
g4
(g6
S'\xc3\xf5(\\\x8f\xc2\xed?'
tRp419
sg23
g24
sg25
I13
sg26
F0.5
sa(dp420
g3
g394
sS'N'
I100
sg8
F0.98999999999999999
sg9
F0
sS'T'
I100
sg10
g13
sg14
g15
sg16
I1000
sg17
I2
sg18
I4
sg19
g20
sg21
g4
(g6
S'\x15\xaeG\xe1z\x14\xee?'
tRp421
sg23
g24
sg25
I13
sg26
F0.5
sa(dp422
g3
g394
sS'N'
I100
sg8
F0.98999999999999999
sg9
F0
sS'T'
I100
sg10
g13
sg14
g15
sg16
I1000
sg17
I2
sg18
I4
sg19
g20
sg21
g4
(g6
S'gfffff\xee?'
tRp423
sg23
g24
sg25
I13
sg26
F0.5
sa(dp424
g3
g394
sS'N'
I100
sg8
F0.98999999999999999
sg9
F0
sS'T'
I100
sg10
g13
sg14
g15
sg16
I1000
sg17
I2
sg18
I4
sg19
g20
sg21
g4
(g6
S'\xb9\x1e\x85\xebQ\xb8\xee?'
tRp425
sg23
g24
sg25
I13
sg26
F0.5
sa(dp426
g3
g394
sS'N'
I100
sg8
F0.98999999999999999
sg9
F0
sS'T'
I100
sg10
g13
sg14
g15
sg16
I1000
sg17
I2
sg18
I4
sg19
g20
sg21
g4
(g6
S'\x0b\xd7\xa3p=\n\xef?'
tRp427
sg23
g24
sg25
I13
sg26
F0.5
sa(dp428
g3
g394
sS'N'
I100
sg8
F0.98999999999999999
sg9
F0
sS'T'
I100
sg10
g13
sg14
g15
sg16
I1000
sg17
I2
sg18
I4
sg19
g20
sg21
g4
(g6
S']\x8f\xc2\xf5(\\\xef?'
tRp429
sg23
g24
sg25
I13
sg26
F0.5
sa(dp430
g3
g394
sS'N'
I100
sg8
F0.98999999999999999
sg9
F0
sS'T'
I100
sg10
g13
sg14
g15
sg16
I1000
sg17
I2
sg18
I4
sg19
g20
sg21
g4
(g6
S'\xafG\xe1z\x14\xae\xef?'
tRp431
sg23
g24
sg25
I13
sg26
F0.5
sa(dp432
g3
g394
sS'N'
I100
sg8
F0.98999999999999999
sg9
F0
sS'T'
I100
sg10
g13
sg14
g15
sg16
I1000
sg17
I2
sg18
I4
sg19
g20
sg21
g4
(g6
S'\x00\x00\x00\x00\x00\x00\xf0?'
tRp433
sg23
g24
sg25
I13
sg26
F0.5
sa(dp434
g3
g4
(g6
S'\xb7\x99\x99\x99\x99\x99\xb9?'
tRp435
sS'N'
I100
sg8
F0.98999999999999999
sg9
F0
sS'T'
I100
sg10
g13
sg14
g15
sg16
I1000
sg17
I2
sg18
I4
sg19
g20
sg21
g4
(g6
S'\x00\x00\x00\x00\x00\x00\x00\x00'
tRp436
sg23
g24
sg25
I13
sg26
F0.5
sa(dp437
g3
g435
sS'N'
I100
sg8
F0.98999999999999999
sg9
F0
sS'T'
I100
sg10
g13
sg14
g15
sg16
I1000
sg17
I2
sg18
I4
sg19
g20
sg21
g4
(g6
S'\x9a\x99\x99\x99\x99\x99\xb9?'
tRp438
sg23
g24
sg25
I13
sg26
F0.5
sa(dp439
g3
g435
sS'N'
I100
sg8
F0.98999999999999999
sg9
F0
sS'T'
I100
sg10
g13
sg14
g15
sg16
I1000
sg17
I2
sg18
I4
sg19
g20
sg21
g4
(g6
S'\x9a\x99\x99\x99\x99\x99\xc9?'
tRp440
sg23
g24
sg25
I13
sg26
F0.5
sa(dp441
g3
g435
sS'N'
I100
sg8
F0.98999999999999999
sg9
F0
sS'T'
I100
sg10
g13
sg14
g15
sg16
I1000
sg17
I2
sg18
I4
sg19
g20
sg21
g4
(g6
S'433333\xd3?'
tRp442
sg23
g24
sg25
I13
sg26
F0.5
sa(dp443
g3
g435
sS'N'
I100
sg8
F0.98999999999999999
sg9
F0
sS'T'
I100
sg10
g13
sg14
g15
sg16
I1000
sg17
I2
sg18
I4
sg19
g20
sg21
g4
(g6
S'\x9a\x99\x99\x99\x99\x99\xd9?'
tRp444
sg23
g24
sg25
I13
sg26
F0.5
sa(dp445
g3
g435
sS'N'
I100
sg8
F0.98999999999999999
sg9
F0
sS'T'
I100
sg10
g13
sg14
g15
sg16
I1000
sg17
I2
sg18
I4
sg19
g20
sg21
g4
(g6
S'\x00\x00\x00\x00\x00\x00\xe0?'
tRp446
sg23
g24
sg25
I13
sg26
F0.5
sa(dp447
g3
g435
sS'N'
I100
sg8
F0.98999999999999999
sg9
F0
sS'T'
I100
sg10
g13
sg14
g15
sg16
I1000
sg17
I2
sg18
I4
sg19
g20
sg21
g4
(g6
S'433333\xe3?'
tRp448
sg23
g24
sg25
I13
sg26
F0.5
sa(dp449
g3
g435
sS'N'
I100
sg8
F0.98999999999999999
sg9
F0
sS'T'
I100
sg10
g13
sg14
g15
sg16
I1000
sg17
I2
sg18
I4
sg19
g20
sg21
g4
(g6
S'gfffff\xe6?'
tRp450
sg23
g24
sg25
I13
sg26
F0.5
sa(dp451
g3
g435
sS'N'
I100
sg8
F0.98999999999999999
sg9
F0
sS'T'
I100
sg10
g13
sg14
g15
sg16
I1000
sg17
I2
sg18
I4
sg19
g20
sg21
g4
(g6
S'\x9a\x99\x99\x99\x99\x99\xe9?'
tRp452
sg23
g24
sg25
I13
sg26
F0.5
sa(dp453
g3
g435
sS'N'
I100
sg8
F0.98999999999999999
sg9
F0
sS'T'
I100
sg10
g13
sg14
g15
sg16
I1000
sg17
I2
sg18
I4
sg19
g20
sg21
g4
(g6
S'\xcd\xcc\xcc\xcc\xcc\xcc\xec?'
tRp454
sg23
g24
sg25
I13
sg26
F0.5
sa(dp455
g3
g435
sS'N'
I100
sg8
F0.98999999999999999
sg9
F0
sS'T'
I100
sg10
g13
sg14
g15
sg16
I1000
sg17
I2
sg18
I4
sg19
g20
sg21
g4
(g6
S'\x1f\x85\xebQ\xb8\x1e\xed?'
tRp456
sg23
g24
sg25
I13
sg26
F0.5
sa(dp457
g3
g435
sS'N'
I100
sg8
F0.98999999999999999
sg9
F0
sS'T'
I100
sg10
g13
sg14
g15
sg16
I1000
sg17
I2
sg18
I4
sg19
g20
sg21
g4
(g6
S'q=\n\xd7\xa3p\xed?'
tRp458
sg23
g24
sg25
I13
sg26
F0.5
sa(dp459
g3
g435
sS'N'
I100
sg8
F0.98999999999999999
sg9
F0
sS'T'
I100
sg10
g13
sg14
g15
sg16
I1000
sg17
I2
sg18
I4
sg19
g20
sg21
g4
(g6
S'\xc3\xf5(\\\x8f\xc2\xed?'
tRp460
sg23
g24
sg25
I13
sg26
F0.5
sa(dp461
g3
g435
sS'N'
I100
sg8
F0.98999999999999999
sg9
F0
sS'T'
I100
sg10
g13
sg14
g15
sg16
I1000
sg17
I2
sg18
I4
sg19
g20
sg21
g4
(g6
S'\x15\xaeG\xe1z\x14\xee?'
tRp462
sg23
g24
sg25
I13
sg26
F0.5
sa(dp463
g3
g435
sS'N'
I100
sg8
F0.98999999999999999
sg9
F0
sS'T'
I100
sg10
g13
sg14
g15
sg16
I1000
sg17
I2
sg18
I4
sg19
g20
sg21
g4
(g6
S'gfffff\xee?'
tRp464
sg23
g24
sg25
I13
sg26
F0.5
sa(dp465
g3
g435
sS'N'
I100
sg8
F0.98999999999999999
sg9
F0
sS'T'
I100
sg10
g13
sg14
g15
sg16
I1000
sg17
I2
sg18
I4
sg19
g20
sg21
g4
(g6
S'\xb9\x1e\x85\xebQ\xb8\xee?'
tRp466
sg23
g24
sg25
I13
sg26
F0.5
sa(dp467
g3
g435
sS'N'
I100
sg8
F0.98999999999999999
sg9
F0
sS'T'
I100
sg10
g13
sg14
g15
sg16
I1000
sg17
I2
sg18
I4
sg19
g20
sg21
g4
(g6
S'\x0b\xd7\xa3p=\n\xef?'
tRp468
sg23
g24
sg25
I13
sg26
F0.5
sa(dp469
g3
g435
sS'N'
I100
sg8
F0.98999999999999999
sg9
F0
sS'T'
I100
sg10
g13
sg14
g15
sg16
I1000
sg17
I2
sg18
I4
sg19
g20
sg21
g4
(g6
S']\x8f\xc2\xf5(\\\xef?'
tRp470
sg23
g24
sg25
I13
sg26
F0.5
sa(dp471
g3
g435
sS'N'
I100
sg8
F0.98999999999999999
sg9
F0
sS'T'
I100
sg10
g13
sg14
g15
sg16
I1000
sg17
I2
sg18
I4
sg19
g20
sg21
g4
(g6
S'\xafG\xe1z\x14\xae\xef?'
tRp472
sg23
g24
sg25
I13
sg26
F0.5
sa(dp473
g3
g435
sS'N'
I100
sg8
F0.98999999999999999
sg9
F0
sS'T'
I100
sg10
g13
sg14
g15
sg16
I1000
sg17
I2
sg18
I4
sg19
g20
sg21
g4
(g6
S'\x00\x00\x00\x00\x00\x00\xf0?'
tRp474
sg23
g24
sg25
I13
sg26
F0.5
sa(dp475
g3
g4
(g6
S'\x8f\xb3v\xc5`I\xc4?'
tRp476
sS'N'
I100
sg8
F0.98999999999999999
sg9
F0
sS'T'
I100
sg10
g13
sg14
g15
sg16
I1000
sg17
I2
sg18
I4
sg19
g20
sg21
g4
(g6
S'\x00\x00\x00\x00\x00\x00\x00\x00'
tRp477
sg23
g24
sg25
I13
sg26
F0.5
sa(dp478
g3
g476
sS'N'
I100
sg8
F0.98999999999999999
sg9
F0
sS'T'
I100
sg10
g13
sg14
g15
sg16
I1000
sg17
I2
sg18
I4
sg19
g20
sg21
g4
(g6
S'\x9a\x99\x99\x99\x99\x99\xb9?'
tRp479
sg23
g24
sg25
I13
sg26
F0.5
sa(dp480
g3
g476
sS'N'
I100
sg8
F0.98999999999999999
sg9
F0
sS'T'
I100
sg10
g13
sg14
g15
sg16
I1000
sg17
I2
sg18
I4
sg19
g20
sg21
g4
(g6
S'\x9a\x99\x99\x99\x99\x99\xc9?'
tRp481
sg23
g24
sg25
I13
sg26
F0.5
sa(dp482
g3
g476
sS'N'
I100
sg8
F0.98999999999999999
sg9
F0
sS'T'
I100
sg10
g13
sg14
g15
sg16
I1000
sg17
I2
sg18
I4
sg19
g20
sg21
g4
(g6
S'433333\xd3?'
tRp483
sg23
g24
sg25
I13
sg26
F0.5
sa(dp484
g3
g476
sS'N'
I100
sg8
F0.98999999999999999
sg9
F0
sS'T'
I100
sg10
g13
sg14
g15
sg16
I1000
sg17
I2
sg18
I4
sg19
g20
sg21
g4
(g6
S'\x9a\x99\x99\x99\x99\x99\xd9?'
tRp485
sg23
g24
sg25
I13
sg26
F0.5
sa(dp486
g3
g476
sS'N'
I100
sg8
F0.98999999999999999
sg9
F0
sS'T'
I100
sg10
g13
sg14
g15
sg16
I1000
sg17
I2
sg18
I4
sg19
g20
sg21
g4
(g6
S'\x00\x00\x00\x00\x00\x00\xe0?'
tRp487
sg23
g24
sg25
I13
sg26
F0.5
sa(dp488
g3
g476
sS'N'
I100
sg8
F0.98999999999999999
sg9
F0
sS'T'
I100
sg10
g13
sg14
g15
sg16
I1000
sg17
I2
sg18
I4
sg19
g20
sg21
g4
(g6
S'433333\xe3?'
tRp489
sg23
g24
sg25
I13
sg26
F0.5
sa(dp490
g3
g476
sS'N'
I100
sg8
F0.98999999999999999
sg9
F0
sS'T'
I100
sg10
g13
sg14
g15
sg16
I1000
sg17
I2
sg18
I4
sg19
g20
sg21
g4
(g6
S'gfffff\xe6?'
tRp491
sg23
g24
sg25
I13
sg26
F0.5
sa(dp492
g3
g476
sS'N'
I100
sg8
F0.98999999999999999
sg9
F0
sS'T'
I100
sg10
g13
sg14
g15
sg16
I1000
sg17
I2
sg18
I4
sg19
g20
sg21
g4
(g6
S'\x9a\x99\x99\x99\x99\x99\xe9?'
tRp493
sg23
g24
sg25
I13
sg26
F0.5
sa(dp494
g3
g476
sS'N'
I100
sg8
F0.98999999999999999
sg9
F0
sS'T'
I100
sg10
g13
sg14
g15
sg16
I1000
sg17
I2
sg18
I4
sg19
g20
sg21
g4
(g6
S'\xcd\xcc\xcc\xcc\xcc\xcc\xec?'
tRp495
sg23
g24
sg25
I13
sg26
F0.5
sa(dp496
g3
g476
sS'N'
I100
sg8
F0.98999999999999999
sg9
F0
sS'T'
I100
sg10
g13
sg14
g15
sg16
I1000
sg17
I2
sg18
I4
sg19
g20
sg21
g4
(g6
S'\x1f\x85\xebQ\xb8\x1e\xed?'
tRp497
sg23
g24
sg25
I13
sg26
F0.5
sa(dp498
g3
g476
sS'N'
I100
sg8
F0.98999999999999999
sg9
F0
sS'T'
I100
sg10
g13
sg14
g15
sg16
I1000
sg17
I2
sg18
I4
sg19
g20
sg21
g4
(g6
S'q=\n\xd7\xa3p\xed?'
tRp499
sg23
g24
sg25
I13
sg26
F0.5
sa(dp500
g3
g476
sS'N'
I100
sg8
F0.98999999999999999
sg9
F0
sS'T'
I100
sg10
g13
sg14
g15
sg16
I1000
sg17
I2
sg18
I4
sg19
g20
sg21
g4
(g6
S'\xc3\xf5(\\\x8f\xc2\xed?'
tRp501
sg23
g24
sg25
I13
sg26
F0.5
sa(dp502
g3
g476
sS'N'
I100
sg8
F0.98999999999999999
sg9
F0
sS'T'
I100
sg10
g13
sg14
g15
sg16
I1000
sg17
I2
sg18
I4
sg19
g20
sg21
g4
(g6
S'\x15\xaeG\xe1z\x14\xee?'
tRp503
sg23
g24
sg25
I13
sg26
F0.5
sa(dp504
g3
g476
sS'N'
I100
sg8
F0.98999999999999999
sg9
F0
sS'T'
I100
sg10
g13
sg14
g15
sg16
I1000
sg17
I2
sg18
I4
sg19
g20
sg21
g4
(g6
S'gfffff\xee?'
tRp505
sg23
g24
sg25
I13
sg26
F0.5
sa(dp506
g3
g476
sS'N'
I100
sg8
F0.98999999999999999
sg9
F0
sS'T'
I100
sg10
g13
sg14
g15
sg16
I1000
sg17
I2
sg18
I4
sg19
g20
sg21
g4
(g6
S'\xb9\x1e\x85\xebQ\xb8\xee?'
tRp507
sg23
g24
sg25
I13
sg26
F0.5
sa(dp508
g3
g476
sS'N'
I100
sg8
F0.98999999999999999
sg9
F0
sS'T'
I100
sg10
g13
sg14
g15
sg16
I1000
sg17
I2
sg18
I4
sg19
g20
sg21
g4
(g6
S'\x0b\xd7\xa3p=\n\xef?'
tRp509
sg23
g24
sg25
I13
sg26
F0.5
sa(dp510
g3
g476
sS'N'
I100
sg8
F0.98999999999999999
sg9
F0
sS'T'
I100
sg10
g13
sg14
g15
sg16
I1000
sg17
I2
sg18
I4
sg19
g20
sg21
g4
(g6
S']\x8f\xc2\xf5(\\\xef?'
tRp511
sg23
g24
sg25
I13
sg26
F0.5
sa(dp512
g3
g476
sS'N'
I100
sg8
F0.98999999999999999
sg9
F0
sS'T'
I100
sg10
g13
sg14
g15
sg16
I1000
sg17
I2
sg18
I4
sg19
g20
sg21
g4
(g6
S'\xafG\xe1z\x14\xae\xef?'
tRp513
sg23
g24
sg25
I13
sg26
F0.5
sa(dp514
g3
g476
sS'N'
I100
sg8
F0.98999999999999999
sg9
F0
sS'T'
I100
sg10
g13
sg14
g15
sg16
I1000
sg17
I2
sg18
I4
sg19
g20
sg21
g4
(g6
S'\x00\x00\x00\x00\x00\x00\xf0?'
tRp515
sg23
g24
sg25
I13
sg26
F0.5
sa(dp516
g3
g4
(g6
S'bp\xdd\x87y\x13\xd0?'
tRp517
sS'N'
I100
sg8
F0.98999999999999999
sg9
F0
sS'T'
I100
sg10
g13
sg14
g15
sg16
I1000
sg17
I2
sg18
I4
sg19
g20
sg21
g4
(g6
S'\x00\x00\x00\x00\x00\x00\x00\x00'
tRp518
sg23
g24
sg25
I13
sg26
F0.5
sa(dp519
g3
g517
sS'N'
I100
sg8
F0.98999999999999999
sg9
F0
sS'T'
I100
sg10
g13
sg14
g15
sg16
I1000
sg17
I2
sg18
I4
sg19
g20
sg21
g4
(g6
S'\x9a\x99\x99\x99\x99\x99\xb9?'
tRp520
sg23
g24
sg25
I13
sg26
F0.5
sa(dp521
g3
g517
sS'N'
I100
sg8
F0.98999999999999999
sg9
F0
sS'T'
I100
sg10
g13
sg14
g15
sg16
I1000
sg17
I2
sg18
I4
sg19
g20
sg21
g4
(g6
S'\x9a\x99\x99\x99\x99\x99\xc9?'
tRp522
sg23
g24
sg25
I13
sg26
F0.5
sa(dp523
g3
g517
sS'N'
I100
sg8
F0.98999999999999999
sg9
F0
sS'T'
I100
sg10
g13
sg14
g15
sg16
I1000
sg17
I2
sg18
I4
sg19
g20
sg21
g4
(g6
S'433333\xd3?'
tRp524
sg23
g24
sg25
I13
sg26
F0.5
sa(dp525
g3
g517
sS'N'
I100
sg8
F0.98999999999999999
sg9
F0
sS'T'
I100
sg10
g13
sg14
g15
sg16
I1000
sg17
I2
sg18
I4
sg19
g20
sg21
g4
(g6
S'\x9a\x99\x99\x99\x99\x99\xd9?'
tRp526
sg23
g24
sg25
I13
sg26
F0.5
sa(dp527
g3
g517
sS'N'
I100
sg8
F0.98999999999999999
sg9
F0
sS'T'
I100
sg10
g13
sg14
g15
sg16
I1000
sg17
I2
sg18
I4
sg19
g20
sg21
g4
(g6
S'\x00\x00\x00\x00\x00\x00\xe0?'
tRp528
sg23
g24
sg25
I13
sg26
F0.5
sa(dp529
g3
g517
sS'N'
I100
sg8
F0.98999999999999999
sg9
F0
sS'T'
I100
sg10
g13
sg14
g15
sg16
I1000
sg17
I2
sg18
I4
sg19
g20
sg21
g4
(g6
S'433333\xe3?'
tRp530
sg23
g24
sg25
I13
sg26
F0.5
sa(dp531
g3
g517
sS'N'
I100
sg8
F0.98999999999999999
sg9
F0
sS'T'
I100
sg10
g13
sg14
g15
sg16
I1000
sg17
I2
sg18
I4
sg19
g20
sg21
g4
(g6
S'gfffff\xe6?'
tRp532
sg23
g24
sg25
I13
sg26
F0.5
sa(dp533
g3
g517
sS'N'
I100
sg8
F0.98999999999999999
sg9
F0
sS'T'
I100
sg10
g13
sg14
g15
sg16
I1000
sg17
I2
sg18
I4
sg19
g20
sg21
g4
(g6
S'\x9a\x99\x99\x99\x99\x99\xe9?'
tRp534
sg23
g24
sg25
I13
sg26
F0.5
sa(dp535
g3
g517
sS'N'
I100
sg8
F0.98999999999999999
sg9
F0
sS'T'
I100
sg10
g13
sg14
g15
sg16
I1000
sg17
I2
sg18
I4
sg19
g20
sg21
g4
(g6
S'\xcd\xcc\xcc\xcc\xcc\xcc\xec?'
tRp536
sg23
g24
sg25
I13
sg26
F0.5
sa(dp537
g3
g517
sS'N'
I100
sg8
F0.98999999999999999
sg9
F0
sS'T'
I100
sg10
g13
sg14
g15
sg16
I1000
sg17
I2
sg18
I4
sg19
g20
sg21
g4
(g6
S'\x1f\x85\xebQ\xb8\x1e\xed?'
tRp538
sg23
g24
sg25
I13
sg26
F0.5
sa(dp539
g3
g517
sS'N'
I100
sg8
F0.98999999999999999
sg9
F0
sS'T'
I100
sg10
g13
sg14
g15
sg16
I1000
sg17
I2
sg18
I4
sg19
g20
sg21
g4
(g6
S'q=\n\xd7\xa3p\xed?'
tRp540
sg23
g24
sg25
I13
sg26
F0.5
sa(dp541
g3
g517
sS'N'
I100
sg8
F0.98999999999999999
sg9
F0
sS'T'
I100
sg10
g13
sg14
g15
sg16
I1000
sg17
I2
sg18
I4
sg19
g20
sg21
g4
(g6
S'\xc3\xf5(\\\x8f\xc2\xed?'
tRp542
sg23
g24
sg25
I13
sg26
F0.5
sa(dp543
g3
g517
sS'N'
I100
sg8
F0.98999999999999999
sg9
F0
sS'T'
I100
sg10
g13
sg14
g15
sg16
I1000
sg17
I2
sg18
I4
sg19
g20
sg21
g4
(g6
S'\x15\xaeG\xe1z\x14\xee?'
tRp544
sg23
g24
sg25
I13
sg26
F0.5
sa(dp545
g3
g517
sS'N'
I100
sg8
F0.98999999999999999
sg9
F0
sS'T'
I100
sg10
g13
sg14
g15
sg16
I1000
sg17
I2
sg18
I4
sg19
g20
sg21
g4
(g6
S'gfffff\xee?'
tRp546
sg23
g24
sg25
I13
sg26
F0.5
sa(dp547
g3
g517
sS'N'
I100
sg8
F0.98999999999999999
sg9
F0
sS'T'
I100
sg10
g13
sg14
g15
sg16
I1000
sg17
I2
sg18
I4
sg19
g20
sg21
g4
(g6
S'\xb9\x1e\x85\xebQ\xb8\xee?'
tRp548
sg23
g24
sg25
I13
sg26
F0.5
sa(dp549
g3
g517
sS'N'
I100
sg8
F0.98999999999999999
sg9
F0
sS'T'
I100
sg10
g13
sg14
g15
sg16
I1000
sg17
I2
sg18
I4
sg19
g20
sg21
g4
(g6
S'\x0b\xd7\xa3p=\n\xef?'
tRp550
sg23
g24
sg25
I13
sg26
F0.5
sa(dp551
g3
g517
sS'N'
I100
sg8
F0.98999999999999999
sg9
F0
sS'T'
I100
sg10
g13
sg14
g15
sg16
I1000
sg17
I2
sg18
I4
sg19
g20
sg21
g4
(g6
S']\x8f\xc2\xf5(\\\xef?'
tRp552
sg23
g24
sg25
I13
sg26
F0.5
sa(dp553
g3
g517
sS'N'
I100
sg8
F0.98999999999999999
sg9
F0
sS'T'
I100
sg10
g13
sg14
g15
sg16
I1000
sg17
I2
sg18
I4
sg19
g20
sg21
g4
(g6
S'\xafG\xe1z\x14\xae\xef?'
tRp554
sg23
g24
sg25
I13
sg26
F0.5
sa(dp555
g3
g517
sS'N'
I100
sg8
F0.98999999999999999
sg9
F0
sS'T'
I100
sg10
g13
sg14
g15
sg16
I1000
sg17
I2
sg18
I4
sg19
g20
sg21
g4
(g6
S'\x00\x00\x00\x00\x00\x00\xf0?'
tRp556
sg23
g24
sg25
I13
sg26
F0.5
sa(dp557
g3
g4
(g6
S'\xd9$u\x7f\x96z\xd9?'
tRp558
sS'N'
I100
sg8
F0.98999999999999999
sg9
F0
sS'T'
I100
sg10
g13
sg14
g15
sg16
I1000
sg17
I2
sg18
I4
sg19
g20
sg21
g4
(g6
S'\x00\x00\x00\x00\x00\x00\x00\x00'
tRp559
sg23
g24
sg25
I13
sg26
F0.5
sa(dp560
g3
g558
sS'N'
I100
sg8
F0.98999999999999999
sg9
F0
sS'T'
I100
sg10
g13
sg14
g15
sg16
I1000
sg17
I2
sg18
I4
sg19
g20
sg21
g4
(g6
S'\x9a\x99\x99\x99\x99\x99\xb9?'
tRp561
sg23
g24
sg25
I13
sg26
F0.5
sa(dp562
g3
g558
sS'N'
I100
sg8
F0.98999999999999999
sg9
F0
sS'T'
I100
sg10
g13
sg14
g15
sg16
I1000
sg17
I2
sg18
I4
sg19
g20
sg21
g4
(g6
S'\x9a\x99\x99\x99\x99\x99\xc9?'
tRp563
sg23
g24
sg25
I13
sg26
F0.5
sa(dp564
g3
g558
sS'N'
I100
sg8
F0.98999999999999999
sg9
F0
sS'T'
I100
sg10
g13
sg14
g15
sg16
I1000
sg17
I2
sg18
I4
sg19
g20
sg21
g4
(g6
S'433333\xd3?'
tRp565
sg23
g24
sg25
I13
sg26
F0.5
sa(dp566
g3
g558
sS'N'
I100
sg8
F0.98999999999999999
sg9
F0
sS'T'
I100
sg10
g13
sg14
g15
sg16
I1000
sg17
I2
sg18
I4
sg19
g20
sg21
g4
(g6
S'\x9a\x99\x99\x99\x99\x99\xd9?'
tRp567
sg23
g24
sg25
I13
sg26
F0.5
sa(dp568
g3
g558
sS'N'
I100
sg8
F0.98999999999999999
sg9
F0
sS'T'
I100
sg10
g13
sg14
g15
sg16
I1000
sg17
I2
sg18
I4
sg19
g20
sg21
g4
(g6
S'\x00\x00\x00\x00\x00\x00\xe0?'
tRp569
sg23
g24
sg25
I13
sg26
F0.5
sa(dp570
g3
g558
sS'N'
I100
sg8
F0.98999999999999999
sg9
F0
sS'T'
I100
sg10
g13
sg14
g15
sg16
I1000
sg17
I2
sg18
I4
sg19
g20
sg21
g4
(g6
S'433333\xe3?'
tRp571
sg23
g24
sg25
I13
sg26
F0.5
sa(dp572
g3
g558
sS'N'
I100
sg8
F0.98999999999999999
sg9
F0
sS'T'
I100
sg10
g13
sg14
g15
sg16
I1000
sg17
I2
sg18
I4
sg19
g20
sg21
g4
(g6
S'gfffff\xe6?'
tRp573
sg23
g24
sg25
I13
sg26
F0.5
sa(dp574
g3
g558
sS'N'
I100
sg8
F0.98999999999999999
sg9
F0
sS'T'
I100
sg10
g13
sg14
g15
sg16
I1000
sg17
I2
sg18
I4
sg19
g20
sg21
g4
(g6
S'\x9a\x99\x99\x99\x99\x99\xe9?'
tRp575
sg23
g24
sg25
I13
sg26
F0.5
sa(dp576
g3
g558
sS'N'
I100
sg8
F0.98999999999999999
sg9
F0
sS'T'
I100
sg10
g13
sg14
g15
sg16
I1000
sg17
I2
sg18
I4
sg19
g20
sg21
g4
(g6
S'\xcd\xcc\xcc\xcc\xcc\xcc\xec?'
tRp577
sg23
g24
sg25
I13
sg26
F0.5
sa(dp578
g3
g558
sS'N'
I100
sg8
F0.98999999999999999
sg9
F0
sS'T'
I100
sg10
g13
sg14
g15
sg16
I1000
sg17
I2
sg18
I4
sg19
g20
sg21
g4
(g6
S'\x1f\x85\xebQ\xb8\x1e\xed?'
tRp579
sg23
g24
sg25
I13
sg26
F0.5
sa(dp580
g3
g558
sS'N'
I100
sg8
F0.98999999999999999
sg9
F0
sS'T'
I100
sg10
g13
sg14
g15
sg16
I1000
sg17
I2
sg18
I4
sg19
g20
sg21
g4
(g6
S'q=\n\xd7\xa3p\xed?'
tRp581
sg23
g24
sg25
I13
sg26
F0.5
sa(dp582
g3
g558
sS'N'
I100
sg8
F0.98999999999999999
sg9
F0
sS'T'
I100
sg10
g13
sg14
g15
sg16
I1000
sg17
I2
sg18
I4
sg19
g20
sg21
g4
(g6
S'\xc3\xf5(\\\x8f\xc2\xed?'
tRp583
sg23
g24
sg25
I13
sg26
F0.5
sa(dp584
g3
g558
sS'N'
I100
sg8
F0.98999999999999999
sg9
F0
sS'T'
I100
sg10
g13
sg14
g15
sg16
I1000
sg17
I2
sg18
I4
sg19
g20
sg21
g4
(g6
S'\x15\xaeG\xe1z\x14\xee?'
tRp585
sg23
g24
sg25
I13
sg26
F0.5
sa(dp586
g3
g558
sS'N'
I100
sg8
F0.98999999999999999
sg9
F0
sS'T'
I100
sg10
g13
sg14
g15
sg16
I1000
sg17
I2
sg18
I4
sg19
g20
sg21
g4
(g6
S'gfffff\xee?'
tRp587
sg23
g24
sg25
I13
sg26
F0.5
sa(dp588
g3
g558
sS'N'
I100
sg8
F0.98999999999999999
sg9
F0
sS'T'
I100
sg10
g13
sg14
g15
sg16
I1000
sg17
I2
sg18
I4
sg19
g20
sg21
g4
(g6
S'\xb9\x1e\x85\xebQ\xb8\xee?'
tRp589
sg23
g24
sg25
I13
sg26
F0.5
sa(dp590
g3
g558
sS'N'
I100
sg8
F0.98999999999999999
sg9
F0
sS'T'
I100
sg10
g13
sg14
g15
sg16
I1000
sg17
I2
sg18
I4
sg19
g20
sg21
g4
(g6
S'\x0b\xd7\xa3p=\n\xef?'
tRp591
sg23
g24
sg25
I13
sg26
F0.5
sa(dp592
g3
g558
sS'N'
I100
sg8
F0.98999999999999999
sg9
F0
sS'T'
I100
sg10
g13
sg14
g15
sg16
I1000
sg17
I2
sg18
I4
sg19
g20
sg21
g4
(g6
S']\x8f\xc2\xf5(\\\xef?'
tRp593
sg23
g24
sg25
I13
sg26
F0.5
sa(dp594
g3
g558
sS'N'
I100
sg8
F0.98999999999999999
sg9
F0
sS'T'
I100
sg10
g13
sg14
g15
sg16
I1000
sg17
I2
sg18
I4
sg19
g20
sg21
g4
(g6
S'\xafG\xe1z\x14\xae\xef?'
tRp595
sg23
g24
sg25
I13
sg26
F0.5
sa(dp596
g3
g558
sS'N'
I100
sg8
F0.98999999999999999
sg9
F0
sS'T'
I100
sg10
g13
sg14
g15
sg16
I1000
sg17
I2
sg18
I4
sg19
g20
sg21
g4
(g6
S'\x00\x00\x00\x00\x00\x00\xf0?'
tRp597
sg23
g24
sg25
I13
sg26
F0.5
sa(dp598
g3
g4
(g6
S'\x99\xd4\xf6t\xcd0\xe4?'
tRp599
sS'N'
I100
sg8
F0.98999999999999999
sg9
F0
sS'T'
I100
sg10
g13
sg14
g15
sg16
I1000
sg17
I2
sg18
I4
sg19
g20
sg21
g4
(g6
S'\x00\x00\x00\x00\x00\x00\x00\x00'
tRp600
sg23
g24
sg25
I13
sg26
F0.5
sa(dp601
g3
g599
sS'N'
I100
sg8
F0.98999999999999999
sg9
F0
sS'T'
I100
sg10
g13
sg14
g15
sg16
I1000
sg17
I2
sg18
I4
sg19
g20
sg21
g4
(g6
S'\x9a\x99\x99\x99\x99\x99\xb9?'
tRp602
sg23
g24
sg25
I13
sg26
F0.5
sa(dp603
g3
g599
sS'N'
I100
sg8
F0.98999999999999999
sg9
F0
sS'T'
I100
sg10
g13
sg14
g15
sg16
I1000
sg17
I2
sg18
I4
sg19
g20
sg21
g4
(g6
S'\x9a\x99\x99\x99\x99\x99\xc9?'
tRp604
sg23
g24
sg25
I13
sg26
F0.5
sa(dp605
g3
g599
sS'N'
I100
sg8
F0.98999999999999999
sg9
F0
sS'T'
I100
sg10
g13
sg14
g15
sg16
I1000
sg17
I2
sg18
I4
sg19
g20
sg21
g4
(g6
S'433333\xd3?'
tRp606
sg23
g24
sg25
I13
sg26
F0.5
sa(dp607
g3
g599
sS'N'
I100
sg8
F0.98999999999999999
sg9
F0
sS'T'
I100
sg10
g13
sg14
g15
sg16
I1000
sg17
I2
sg18
I4
sg19
g20
sg21
g4
(g6
S'\x9a\x99\x99\x99\x99\x99\xd9?'
tRp608
sg23
g24
sg25
I13
sg26
F0.5
sa(dp609
g3
g599
sS'N'
I100
sg8
F0.98999999999999999
sg9
F0
sS'T'
I100
sg10
g13
sg14
g15
sg16
I1000
sg17
I2
sg18
I4
sg19
g20
sg21
g4
(g6
S'\x00\x00\x00\x00\x00\x00\xe0?'
tRp610
sg23
g24
sg25
I13
sg26
F0.5
sa(dp611
g3
g599
sS'N'
I100
sg8
F0.98999999999999999
sg9
F0
sS'T'
I100
sg10
g13
sg14
g15
sg16
I1000
sg17
I2
sg18
I4
sg19
g20
sg21
g4
(g6
S'433333\xe3?'
tRp612
sg23
g24
sg25
I13
sg26
F0.5
sa(dp613
g3
g599
sS'N'
I100
sg8
F0.98999999999999999
sg9
F0
sS'T'
I100
sg10
g13
sg14
g15
sg16
I1000
sg17
I2
sg18
I4
sg19
g20
sg21
g4
(g6
S'gfffff\xe6?'
tRp614
sg23
g24
sg25
I13
sg26
F0.5
sa(dp615
g3
g599
sS'N'
I100
sg8
F0.98999999999999999
sg9
F0
sS'T'
I100
sg10
g13
sg14
g15
sg16
I1000
sg17
I2
sg18
I4
sg19
g20
sg21
g4
(g6
S'\x9a\x99\x99\x99\x99\x99\xe9?'
tRp616
sg23
g24
sg25
I13
sg26
F0.5
sa(dp617
g3
g599
sS'N'
I100
sg8
F0.98999999999999999
sg9
F0
sS'T'
I100
sg10
g13
sg14
g15
sg16
I1000
sg17
I2
sg18
I4
sg19
g20
sg21
g4
(g6
S'\xcd\xcc\xcc\xcc\xcc\xcc\xec?'
tRp618
sg23
g24
sg25
I13
sg26
F0.5
sa(dp619
g3
g599
sS'N'
I100
sg8
F0.98999999999999999
sg9
F0
sS'T'
I100
sg10
g13
sg14
g15
sg16
I1000
sg17
I2
sg18
I4
sg19
g20
sg21
g4
(g6
S'\x1f\x85\xebQ\xb8\x1e\xed?'
tRp620
sg23
g24
sg25
I13
sg26
F0.5
sa(dp621
g3
g599
sS'N'
I100
sg8
F0.98999999999999999
sg9
F0
sS'T'
I100
sg10
g13
sg14
g15
sg16
I1000
sg17
I2
sg18
I4
sg19
g20
sg21
g4
(g6
S'q=\n\xd7\xa3p\xed?'
tRp622
sg23
g24
sg25
I13
sg26
F0.5
sa(dp623
g3
g599
sS'N'
I100
sg8
F0.98999999999999999
sg9
F0
sS'T'
I100
sg10
g13
sg14
g15
sg16
I1000
sg17
I2
sg18
I4
sg19
g20
sg21
g4
(g6
S'\xc3\xf5(\\\x8f\xc2\xed?'
tRp624
sg23
g24
sg25
I13
sg26
F0.5
sa(dp625
g3
g599
sS'N'
I100
sg8
F0.98999999999999999
sg9
F0
sS'T'
I100
sg10
g13
sg14
g15
sg16
I1000
sg17
I2
sg18
I4
sg19
g20
sg21
g4
(g6
S'\x15\xaeG\xe1z\x14\xee?'
tRp626
sg23
g24
sg25
I13
sg26
F0.5
sa(dp627
g3
g599
sS'N'
I100
sg8
F0.98999999999999999
sg9
F0
sS'T'
I100
sg10
g13
sg14
g15
sg16
I1000
sg17
I2
sg18
I4
sg19
g20
sg21
g4
(g6
S'gfffff\xee?'
tRp628
sg23
g24
sg25
I13
sg26
F0.5
sa(dp629
g3
g599
sS'N'
I100
sg8
F0.98999999999999999
sg9
F0
sS'T'
I100
sg10
g13
sg14
g15
sg16
I1000
sg17
I2
sg18
I4
sg19
g20
sg21
g4
(g6
S'\xb9\x1e\x85\xebQ\xb8\xee?'
tRp630
sg23
g24
sg25
I13
sg26
F0.5
sa(dp631
g3
g599
sS'N'
I100
sg8
F0.98999999999999999
sg9
F0
sS'T'
I100
sg10
g13
sg14
g15
sg16
I1000
sg17
I2
sg18
I4
sg19
g20
sg21
g4
(g6
S'\x0b\xd7\xa3p=\n\xef?'
tRp632
sg23
g24
sg25
I13
sg26
F0.5
sa(dp633
g3
g599
sS'N'
I100
sg8
F0.98999999999999999
sg9
F0
sS'T'
I100
sg10
g13
sg14
g15
sg16
I1000
sg17
I2
sg18
I4
sg19
g20
sg21
g4
(g6
S']\x8f\xc2\xf5(\\\xef?'
tRp634
sg23
g24
sg25
I13
sg26
F0.5
sa(dp635
g3
g599
sS'N'
I100
sg8
F0.98999999999999999
sg9
F0
sS'T'
I100
sg10
g13
sg14
g15
sg16
I1000
sg17
I2
sg18
I4
sg19
g20
sg21
g4
(g6
S'\xafG\xe1z\x14\xae\xef?'
tRp636
sg23
g24
sg25
I13
sg26
F0.5
sa(dp637
g3
g599
sS'N'
I100
sg8
F0.98999999999999999
sg9
F0
sS'T'
I100
sg10
g13
sg14
g15
sg16
I1000
sg17
I2
sg18
I4
sg19
g20
sg21
g4
(g6
S'\x00\x00\x00\x00\x00\x00\xf0?'
tRp638
sg23
g24
sg25
I13
sg26
F0.5
sa(dp639
g3
g4
(g6
S'\x1c\x00\x00\x00\x00\x00\xf0?'
tRp640
sS'N'
I100
sg8
F0.98999999999999999
sg9
F0
sS'T'
I100
sg10
g13
sg14
g15
sg16
I1000
sg17
I2
sg18
I4
sg19
g20
sg21
g4
(g6
S'\x00\x00\x00\x00\x00\x00\x00\x00'
tRp641
sg23
g24
sg25
I13
sg26
F0.5
sa(dp642
g3
g640
sS'N'
I100
sg8
F0.98999999999999999
sg9
F0
sS'T'
I100
sg10
g13
sg14
g15
sg16
I1000
sg17
I2
sg18
I4
sg19
g20
sg21
g4
(g6
S'\x9a\x99\x99\x99\x99\x99\xb9?'
tRp643
sg23
g24
sg25
I13
sg26
F0.5
sa(dp644
g3
g640
sS'N'
I100
sg8
F0.98999999999999999
sg9
F0
sS'T'
I100
sg10
g13
sg14
g15
sg16
I1000
sg17
I2
sg18
I4
sg19
g20
sg21
g4
(g6
S'\x9a\x99\x99\x99\x99\x99\xc9?'
tRp645
sg23
g24
sg25
I13
sg26
F0.5
sa(dp646
g3
g640
sS'N'
I100
sg8
F0.98999999999999999
sg9
F0
sS'T'
I100
sg10
g13
sg14
g15
sg16
I1000
sg17
I2
sg18
I4
sg19
g20
sg21
g4
(g6
S'433333\xd3?'
tRp647
sg23
g24
sg25
I13
sg26
F0.5
sa(dp648
g3
g640
sS'N'
I100
sg8
F0.98999999999999999
sg9
F0
sS'T'
I100
sg10
g13
sg14
g15
sg16
I1000
sg17
I2
sg18
I4
sg19
g20
sg21
g4
(g6
S'\x9a\x99\x99\x99\x99\x99\xd9?'
tRp649
sg23
g24
sg25
I13
sg26
F0.5
sa(dp650
g3
g640
sS'N'
I100
sg8
F0.98999999999999999
sg9
F0
sS'T'
I100
sg10
g13
sg14
g15
sg16
I1000
sg17
I2
sg18
I4
sg19
g20
sg21
g4
(g6
S'\x00\x00\x00\x00\x00\x00\xe0?'
tRp651
sg23
g24
sg25
I13
sg26
F0.5
sa(dp652
g3
g640
sS'N'
I100
sg8
F0.98999999999999999
sg9
F0
sS'T'
I100
sg10
g13
sg14
g15
sg16
I1000
sg17
I2
sg18
I4
sg19
g20
sg21
g4
(g6
S'433333\xe3?'
tRp653
sg23
g24
sg25
I13
sg26
F0.5
sa(dp654
g3
g640
sS'N'
I100
sg8
F0.98999999999999999
sg9
F0
sS'T'
I100
sg10
g13
sg14
g15
sg16
I1000
sg17
I2
sg18
I4
sg19
g20
sg21
g4
(g6
S'gfffff\xe6?'
tRp655
sg23
g24
sg25
I13
sg26
F0.5
sa(dp656
g3
g640
sS'N'
I100
sg8
F0.98999999999999999
sg9
F0
sS'T'
I100
sg10
g13
sg14
g15
sg16
I1000
sg17
I2
sg18
I4
sg19
g20
sg21
g4
(g6
S'\x9a\x99\x99\x99\x99\x99\xe9?'
tRp657
sg23
g24
sg25
I13
sg26
F0.5
sa(dp658
g3
g640
sS'N'
I100
sg8
F0.98999999999999999
sg9
F0
sS'T'
I100
sg10
g13
sg14
g15
sg16
I1000
sg17
I2
sg18
I4
sg19
g20
sg21
g4
(g6
S'\xcd\xcc\xcc\xcc\xcc\xcc\xec?'
tRp659
sg23
g24
sg25
I13
sg26
F0.5
sa(dp660
g3
g640
sS'N'
I100
sg8
F0.98999999999999999
sg9
F0
sS'T'
I100
sg10
g13
sg14
g15
sg16
I1000
sg17
I2
sg18
I4
sg19
g20
sg21
g4
(g6
S'\x1f\x85\xebQ\xb8\x1e\xed?'
tRp661
sg23
g24
sg25
I13
sg26
F0.5
sa(dp662
g3
g640
sS'N'
I100
sg8
F0.98999999999999999
sg9
F0
sS'T'
I100
sg10
g13
sg14
g15
sg16
I1000
sg17
I2
sg18
I4
sg19
g20
sg21
g4
(g6
S'q=\n\xd7\xa3p\xed?'
tRp663
sg23
g24
sg25
I13
sg26
F0.5
sa(dp664
g3
g640
sS'N'
I100
sg8
F0.98999999999999999
sg9
F0
sS'T'
I100
sg10
g13
sg14
g15
sg16
I1000
sg17
I2
sg18
I4
sg19
g20
sg21
g4
(g6
S'\xc3\xf5(\\\x8f\xc2\xed?'
tRp665
sg23
g24
sg25
I13
sg26
F0.5
sa(dp666
g3
g640
sS'N'
I100
sg8
F0.98999999999999999
sg9
F0
sS'T'
I100
sg10
g13
sg14
g15
sg16
I1000
sg17
I2
sg18
I4
sg19
g20
sg21
g4
(g6
S'\x15\xaeG\xe1z\x14\xee?'
tRp667
sg23
g24
sg25
I13
sg26
F0.5
sa(dp668
g3
g640
sS'N'
I100
sg8
F0.98999999999999999
sg9
F0
sS'T'
I100
sg10
g13
sg14
g15
sg16
I1000
sg17
I2
sg18
I4
sg19
g20
sg21
g4
(g6
S'gfffff\xee?'
tRp669
sg23
g24
sg25
I13
sg26
F0.5
sa(dp670
g3
g640
sS'N'
I100
sg8
F0.98999999999999999
sg9
F0
sS'T'
I100
sg10
g13
sg14
g15
sg16
I1000
sg17
I2
sg18
I4
sg19
g20
sg21
g4
(g6
S'\xb9\x1e\x85\xebQ\xb8\xee?'
tRp671
sg23
g24
sg25
I13
sg26
F0.5
sa(dp672
g3
g640
sS'N'
I100
sg8
F0.98999999999999999
sg9
F0
sS'T'
I100
sg10
g13
sg14
g15
sg16
I1000
sg17
I2
sg18
I4
sg19
g20
sg21
g4
(g6
S'\x0b\xd7\xa3p=\n\xef?'
tRp673
sg23
g24
sg25
I13
sg26
F0.5
sa(dp674
g3
g640
sS'N'
I100
sg8
F0.98999999999999999
sg9
F0
sS'T'
I100
sg10
g13
sg14
g15
sg16
I1000
sg17
I2
sg18
I4
sg19
g20
sg21
g4
(g6
S']\x8f\xc2\xf5(\\\xef?'
tRp675
sg23
g24
sg25
I13
sg26
F0.5
sa(dp676
g3
g640
sS'N'
I100
sg8
F0.98999999999999999
sg9
F0
sS'T'
I100
sg10
g13
sg14
g15
sg16
I1000
sg17
I2
sg18
I4
sg19
g20
sg21
g4
(g6
S'\xafG\xe1z\x14\xae\xef?'
tRp677
sg23
g24
sg25
I13
sg26
F0.5
sa(dp678
g3
g640
sS'N'
I100
sg8
F0.98999999999999999
sg9
F0
sS'T'
I100
sg10
g13
sg14
g15
sg16
I1000
sg17
I2
sg18
I4
sg19
g20
sg21
g4
(g6
S'\x00\x00\x00\x00\x00\x00\xf0?'
tRp679
sg23
g24
sg25
I13
sg26
F0.5
sa(dp680
g3
g4
(g6
S'\x81`\xd4\xf6\xb8[\xf9?'
tRp681
sS'N'
I100
sg8
F0.98999999999999999
sg9
F0
sS'T'
I100
sg10
g13
sg14
g15
sg16
I1000
sg17
I2
sg18
I4
sg19
g20
sg21
g4
(g6
S'\x00\x00\x00\x00\x00\x00\x00\x00'
tRp682
sg23
g24
sg25
I13
sg26
F0.5
sa(dp683
g3
g681
sS'N'
I100
sg8
F0.98999999999999999
sg9
F0
sS'T'
I100
sg10
g13
sg14
g15
sg16
I1000
sg17
I2
sg18
I4
sg19
g20
sg21
g4
(g6
S'\x9a\x99\x99\x99\x99\x99\xb9?'
tRp684
sg23
g24
sg25
I13
sg26
F0.5
sa(dp685
g3
g681
sS'N'
I100
sg8
F0.98999999999999999
sg9
F0
sS'T'
I100
sg10
g13
sg14
g15
sg16
I1000
sg17
I2
sg18
I4
sg19
g20
sg21
g4
(g6
S'\x9a\x99\x99\x99\x99\x99\xc9?'
tRp686
sg23
g24
sg25
I13
sg26
F0.5
sa(dp687
g3
g681
sS'N'
I100
sg8
F0.98999999999999999
sg9
F0
sS'T'
I100
sg10
g13
sg14
g15
sg16
I1000
sg17
I2
sg18
I4
sg19
g20
sg21
g4
(g6
S'433333\xd3?'
tRp688
sg23
g24
sg25
I13
sg26
F0.5
sa(dp689
g3
g681
sS'N'
I100
sg8
F0.98999999999999999
sg9
F0
sS'T'
I100
sg10
g13
sg14
g15
sg16
I1000
sg17
I2
sg18
I4
sg19
g20
sg21
g4
(g6
S'\x9a\x99\x99\x99\x99\x99\xd9?'
tRp690
sg23
g24
sg25
I13
sg26
F0.5
sa(dp691
g3
g681
sS'N'
I100
sg8
F0.98999999999999999
sg9
F0
sS'T'
I100
sg10
g13
sg14
g15
sg16
I1000
sg17
I2
sg18
I4
sg19
g20
sg21
g4
(g6
S'\x00\x00\x00\x00\x00\x00\xe0?'
tRp692
sg23
g24
sg25
I13
sg26
F0.5
sa(dp693
g3
g681
sS'N'
I100
sg8
F0.98999999999999999
sg9
F0
sS'T'
I100
sg10
g13
sg14
g15
sg16
I1000
sg17
I2
sg18
I4
sg19
g20
sg21
g4
(g6
S'433333\xe3?'
tRp694
sg23
g24
sg25
I13
sg26
F0.5
sa(dp695
g3
g681
sS'N'
I100
sg8
F0.98999999999999999
sg9
F0
sS'T'
I100
sg10
g13
sg14
g15
sg16
I1000
sg17
I2
sg18
I4
sg19
g20
sg21
g4
(g6
S'gfffff\xe6?'
tRp696
sg23
g24
sg25
I13
sg26
F0.5
sa(dp697
g3
g681
sS'N'
I100
sg8
F0.98999999999999999
sg9
F0
sS'T'
I100
sg10
g13
sg14
g15
sg16
I1000
sg17
I2
sg18
I4
sg19
g20
sg21
g4
(g6
S'\x9a\x99\x99\x99\x99\x99\xe9?'
tRp698
sg23
g24
sg25
I13
sg26
F0.5
sa(dp699
g3
g681
sS'N'
I100
sg8
F0.98999999999999999
sg9
F0
sS'T'
I100
sg10
g13
sg14
g15
sg16
I1000
sg17
I2
sg18
I4
sg19
g20
sg21
g4
(g6
S'\xcd\xcc\xcc\xcc\xcc\xcc\xec?'
tRp700
sg23
g24
sg25
I13
sg26
F0.5
sa(dp701
g3
g681
sS'N'
I100
sg8
F0.98999999999999999
sg9
F0
sS'T'
I100
sg10
g13
sg14
g15
sg16
I1000
sg17
I2
sg18
I4
sg19
g20
sg21
g4
(g6
S'\x1f\x85\xebQ\xb8\x1e\xed?'
tRp702
sg23
g24
sg25
I13
sg26
F0.5
sa(dp703
g3
g681
sS'N'
I100
sg8
F0.98999999999999999
sg9
F0
sS'T'
I100
sg10
g13
sg14
g15
sg16
I1000
sg17
I2
sg18
I4
sg19
g20
sg21
g4
(g6
S'q=\n\xd7\xa3p\xed?'
tRp704
sg23
g24
sg25
I13
sg26
F0.5
sa(dp705
g3
g681
sS'N'
I100
sg8
F0.98999999999999999
sg9
F0
sS'T'
I100
sg10
g13
sg14
g15
sg16
I1000
sg17
I2
sg18
I4
sg19
g20
sg21
g4
(g6
S'\xc3\xf5(\\\x8f\xc2\xed?'
tRp706
sg23
g24
sg25
I13
sg26
F0.5
sa(dp707
g3
g681
sS'N'
I100
sg8
F0.98999999999999999
sg9
F0
sS'T'
I100
sg10
g13
sg14
g15
sg16
I1000
sg17
I2
sg18
I4
sg19
g20
sg21
g4
(g6
S'\x15\xaeG\xe1z\x14\xee?'
tRp708
sg23
g24
sg25
I13
sg26
F0.5
sa(dp709
g3
g681
sS'N'
I100
sg8
F0.98999999999999999
sg9
F0
sS'T'
I100
sg10
g13
sg14
g15
sg16
I1000
sg17
I2
sg18
I4
sg19
g20
sg21
g4
(g6
S'gfffff\xee?'
tRp710
sg23
g24
sg25
I13
sg26
F0.5
sa(dp711
g3
g681
sS'N'
I100
sg8
F0.98999999999999999
sg9
F0
sS'T'
I100
sg10
g13
sg14
g15
sg16
I1000
sg17
I2
sg18
I4
sg19
g20
sg21
g4
(g6
S'\xb9\x1e\x85\xebQ\xb8\xee?'
tRp712
sg23
g24
sg25
I13
sg26
F0.5
sa(dp713
g3
g681
sS'N'
I100
sg8
F0.98999999999999999
sg9
F0
sS'T'
I100
sg10
g13
sg14
g15
sg16
I1000
sg17
I2
sg18
I4
sg19
g20
sg21
g4
(g6
S'\x0b\xd7\xa3p=\n\xef?'
tRp714
sg23
g24
sg25
I13
sg26
F0.5
sa(dp715
g3
g681
sS'N'
I100
sg8
F0.98999999999999999
sg9
F0
sS'T'
I100
sg10
g13
sg14
g15
sg16
I1000
sg17
I2
sg18
I4
sg19
g20
sg21
g4
(g6
S']\x8f\xc2\xf5(\\\xef?'
tRp716
sg23
g24
sg25
I13
sg26
F0.5
sa(dp717
g3
g681
sS'N'
I100
sg8
F0.98999999999999999
sg9
F0
sS'T'
I100
sg10
g13
sg14
g15
sg16
I1000
sg17
I2
sg18
I4
sg19
g20
sg21
g4
(g6
S'\xafG\xe1z\x14\xae\xef?'
tRp718
sg23
g24
sg25
I13
sg26
F0.5
sa(dp719
g3
g681
sS'N'
I100
sg8
F0.98999999999999999
sg9
F0
sS'T'
I100
sg10
g13
sg14
g15
sg16
I1000
sg17
I2
sg18
I4
sg19
g20
sg21
g4
(g6
S'\x00\x00\x00\x00\x00\x00\xf0?'
tRp720
sg23
g24
sg25
I13
sg26
F0.5
sa(dp721
g3
g4
(g6
S'\x86\xcc\xd4\xe9W\x18\x04@'
tRp722
sS'N'
I100
sg8
F0.98999999999999999
sg9
F0
sS'T'
I100
sg10
g13
sg14
g15
sg16
I1000
sg17
I2
sg18
I4
sg19
g20
sg21
g4
(g6
S'\x00\x00\x00\x00\x00\x00\x00\x00'
tRp723
sg23
g24
sg25
I13
sg26
F0.5
sa(dp724
g3
g722
sS'N'
I100
sg8
F0.98999999999999999
sg9
F0
sS'T'
I100
sg10
g13
sg14
g15
sg16
I1000
sg17
I2
sg18
I4
sg19
g20
sg21
g4
(g6
S'\x9a\x99\x99\x99\x99\x99\xb9?'
tRp725
sg23
g24
sg25
I13
sg26
F0.5
sa(dp726
g3
g722
sS'N'
I100
sg8
F0.98999999999999999
sg9
F0
sS'T'
I100
sg10
g13
sg14
g15
sg16
I1000
sg17
I2
sg18
I4
sg19
g20
sg21
g4
(g6
S'\x9a\x99\x99\x99\x99\x99\xc9?'
tRp727
sg23
g24
sg25
I13
sg26
F0.5
sa(dp728
g3
g722
sS'N'
I100
sg8
F0.98999999999999999
sg9
F0
sS'T'
I100
sg10
g13
sg14
g15
sg16
I1000
sg17
I2
sg18
I4
sg19
g20
sg21
g4
(g6
S'433333\xd3?'
tRp729
sg23
g24
sg25
I13
sg26
F0.5
sa(dp730
g3
g722
sS'N'
I100
sg8
F0.98999999999999999
sg9
F0
sS'T'
I100
sg10
g13
sg14
g15
sg16
I1000
sg17
I2
sg18
I4
sg19
g20
sg21
g4
(g6
S'\x9a\x99\x99\x99\x99\x99\xd9?'
tRp731
sg23
g24
sg25
I13
sg26
F0.5
sa(dp732
g3
g722
sS'N'
I100
sg8
F0.98999999999999999
sg9
F0
sS'T'
I100
sg10
g13
sg14
g15
sg16
I1000
sg17
I2
sg18
I4
sg19
g20
sg21
g4
(g6
S'\x00\x00\x00\x00\x00\x00\xe0?'
tRp733
sg23
g24
sg25
I13
sg26
F0.5
sa(dp734
g3
g722
sS'N'
I100
sg8
F0.98999999999999999
sg9
F0
sS'T'
I100
sg10
g13
sg14
g15
sg16
I1000
sg17
I2
sg18
I4
sg19
g20
sg21
g4
(g6
S'433333\xe3?'
tRp735
sg23
g24
sg25
I13
sg26
F0.5
sa(dp736
g3
g722
sS'N'
I100
sg8
F0.98999999999999999
sg9
F0
sS'T'
I100
sg10
g13
sg14
g15
sg16
I1000
sg17
I2
sg18
I4
sg19
g20
sg21
g4
(g6
S'gfffff\xe6?'
tRp737
sg23
g24
sg25
I13
sg26
F0.5
sa(dp738
g3
g722
sS'N'
I100
sg8
F0.98999999999999999
sg9
F0
sS'T'
I100
sg10
g13
sg14
g15
sg16
I1000
sg17
I2
sg18
I4
sg19
g20
sg21
g4
(g6
S'\x9a\x99\x99\x99\x99\x99\xe9?'
tRp739
sg23
g24
sg25
I13
sg26
F0.5
sa(dp740
g3
g722
sS'N'
I100
sg8
F0.98999999999999999
sg9
F0
sS'T'
I100
sg10
g13
sg14
g15
sg16
I1000
sg17
I2
sg18
I4
sg19
g20
sg21
g4
(g6
S'\xcd\xcc\xcc\xcc\xcc\xcc\xec?'
tRp741
sg23
g24
sg25
I13
sg26
F0.5
sa(dp742
g3
g722
sS'N'
I100
sg8
F0.98999999999999999
sg9
F0
sS'T'
I100
sg10
g13
sg14
g15
sg16
I1000
sg17
I2
sg18
I4
sg19
g20
sg21
g4
(g6
S'\x1f\x85\xebQ\xb8\x1e\xed?'
tRp743
sg23
g24
sg25
I13
sg26
F0.5
sa(dp744
g3
g722
sS'N'
I100
sg8
F0.98999999999999999
sg9
F0
sS'T'
I100
sg10
g13
sg14
g15
sg16
I1000
sg17
I2
sg18
I4
sg19
g20
sg21
g4
(g6
S'q=\n\xd7\xa3p\xed?'
tRp745
sg23
g24
sg25
I13
sg26
F0.5
sa(dp746
g3
g722
sS'N'
I100
sg8
F0.98999999999999999
sg9
F0
sS'T'
I100
sg10
g13
sg14
g15
sg16
I1000
sg17
I2
sg18
I4
sg19
g20
sg21
g4
(g6
S'\xc3\xf5(\\\x8f\xc2\xed?'
tRp747
sg23
g24
sg25
I13
sg26
F0.5
sa(dp748
g3
g722
sS'N'
I100
sg8
F0.98999999999999999
sg9
F0
sS'T'
I100
sg10
g13
sg14
g15
sg16
I1000
sg17
I2
sg18
I4
sg19
g20
sg21
g4
(g6
S'\x15\xaeG\xe1z\x14\xee?'
tRp749
sg23
g24
sg25
I13
sg26
F0.5
sa(dp750
g3
g722
sS'N'
I100
sg8
F0.98999999999999999
sg9
F0
sS'T'
I100
sg10
g13
sg14
g15
sg16
I1000
sg17
I2
sg18
I4
sg19
g20
sg21
g4
(g6
S'gfffff\xee?'
tRp751
sg23
g24
sg25
I13
sg26
F0.5
sa(dp752
g3
g722
sS'N'
I100
sg8
F0.98999999999999999
sg9
F0
sS'T'
I100
sg10
g13
sg14
g15
sg16
I1000
sg17
I2
sg18
I4
sg19
g20
sg21
g4
(g6
S'\xb9\x1e\x85\xebQ\xb8\xee?'
tRp753
sg23
g24
sg25
I13
sg26
F0.5
sa(dp754
g3
g722
sS'N'
I100
sg8
F0.98999999999999999
sg9
F0
sS'T'
I100
sg10
g13
sg14
g15
sg16
I1000
sg17
I2
sg18
I4
sg19
g20
sg21
g4
(g6
S'\x0b\xd7\xa3p=\n\xef?'
tRp755
sg23
g24
sg25
I13
sg26
F0.5
sa(dp756
g3
g722
sS'N'
I100
sg8
F0.98999999999999999
sg9
F0
sS'T'
I100
sg10
g13
sg14
g15
sg16
I1000
sg17
I2
sg18
I4
sg19
g20
sg21
g4
(g6
S']\x8f\xc2\xf5(\\\xef?'
tRp757
sg23
g24
sg25
I13
sg26
F0.5
sa(dp758
g3
g722
sS'N'
I100
sg8
F0.98999999999999999
sg9
F0
sS'T'
I100
sg10
g13
sg14
g15
sg16
I1000
sg17
I2
sg18
I4
sg19
g20
sg21
g4
(g6
S'\xafG\xe1z\x14\xae\xef?'
tRp759
sg23
g24
sg25
I13
sg26
F0.5
sa(dp760
g3
g722
sS'N'
I100
sg8
F0.98999999999999999
sg9
F0
sS'T'
I100
sg10
g13
sg14
g15
sg16
I1000
sg17
I2
sg18
I4
sg19
g20
sg21
g4
(g6
S'\x00\x00\x00\x00\x00\x00\xf0?'
tRp761
sg23
g24
sg25
I13
sg26
F0.5
sa(dp762
g3
g4
(g6
S'"nR\x1f<\xd9\x0f@'
tRp763
sS'N'
I100
sg8
F0.98999999999999999
sg9
F0
sS'T'
I100
sg10
g13
sg14
g15
sg16
I1000
sg17
I2
sg18
I4
sg19
g20
sg21
g4
(g6
S'\x00\x00\x00\x00\x00\x00\x00\x00'
tRp764
sg23
g24
sg25
I13
sg26
F0.5
sa(dp765
g3
g763
sS'N'
I100
sg8
F0.98999999999999999
sg9
F0
sS'T'
I100
sg10
g13
sg14
g15
sg16
I1000
sg17
I2
sg18
I4
sg19
g20
sg21
g4
(g6
S'\x9a\x99\x99\x99\x99\x99\xb9?'
tRp766
sg23
g24
sg25
I13
sg26
F0.5
sa(dp767
g3
g763
sS'N'
I100
sg8
F0.98999999999999999
sg9
F0
sS'T'
I100
sg10
g13
sg14
g15
sg16
I1000
sg17
I2
sg18
I4
sg19
g20
sg21
g4
(g6
S'\x9a\x99\x99\x99\x99\x99\xc9?'
tRp768
sg23
g24
sg25
I13
sg26
F0.5
sa(dp769
g3
g763
sS'N'
I100
sg8
F0.98999999999999999
sg9
F0
sS'T'
I100
sg10
g13
sg14
g15
sg16
I1000
sg17
I2
sg18
I4
sg19
g20
sg21
g4
(g6
S'433333\xd3?'
tRp770
sg23
g24
sg25
I13
sg26
F0.5
sa(dp771
g3
g763
sS'N'
I100
sg8
F0.98999999999999999
sg9
F0
sS'T'
I100
sg10
g13
sg14
g15
sg16
I1000
sg17
I2
sg18
I4
sg19
g20
sg21
g4
(g6
S'\x9a\x99\x99\x99\x99\x99\xd9?'
tRp772
sg23
g24
sg25
I13
sg26
F0.5
sa(dp773
g3
g763
sS'N'
I100
sg8
F0.98999999999999999
sg9
F0
sS'T'
I100
sg10
g13
sg14
g15
sg16
I1000
sg17
I2
sg18
I4
sg19
g20
sg21
g4
(g6
S'\x00\x00\x00\x00\x00\x00\xe0?'
tRp774
sg23
g24
sg25
I13
sg26
F0.5
sa(dp775
g3
g763
sS'N'
I100
sg8
F0.98999999999999999
sg9
F0
sS'T'
I100
sg10
g13
sg14
g15
sg16
I1000
sg17
I2
sg18
I4
sg19
g20
sg21
g4
(g6
S'433333\xe3?'
tRp776
sg23
g24
sg25
I13
sg26
F0.5
sa(dp777
g3
g763
sS'N'
I100
sg8
F0.98999999999999999
sg9
F0
sS'T'
I100
sg10
g13
sg14
g15
sg16
I1000
sg17
I2
sg18
I4
sg19
g20
sg21
g4
(g6
S'gfffff\xe6?'
tRp778
sg23
g24
sg25
I13
sg26
F0.5
sa(dp779
g3
g763
sS'N'
I100
sg8
F0.98999999999999999
sg9
F0
sS'T'
I100
sg10
g13
sg14
g15
sg16
I1000
sg17
I2
sg18
I4
sg19
g20
sg21
g4
(g6
S'\x9a\x99\x99\x99\x99\x99\xe9?'
tRp780
sg23
g24
sg25
I13
sg26
F0.5
sa(dp781
g3
g763
sS'N'
I100
sg8
F0.98999999999999999
sg9
F0
sS'T'
I100
sg10
g13
sg14
g15
sg16
I1000
sg17
I2
sg18
I4
sg19
g20
sg21
g4
(g6
S'\xcd\xcc\xcc\xcc\xcc\xcc\xec?'
tRp782
sg23
g24
sg25
I13
sg26
F0.5
sa(dp783
g3
g763
sS'N'
I100
sg8
F0.98999999999999999
sg9
F0
sS'T'
I100
sg10
g13
sg14
g15
sg16
I1000
sg17
I2
sg18
I4
sg19
g20
sg21
g4
(g6
S'\x1f\x85\xebQ\xb8\x1e\xed?'
tRp784
sg23
g24
sg25
I13
sg26
F0.5
sa(dp785
g3
g763
sS'N'
I100
sg8
F0.98999999999999999
sg9
F0
sS'T'
I100
sg10
g13
sg14
g15
sg16
I1000
sg17
I2
sg18
I4
sg19
g20
sg21
g4
(g6
S'q=\n\xd7\xa3p\xed?'
tRp786
sg23
g24
sg25
I13
sg26
F0.5
sa(dp787
g3
g763
sS'N'
I100
sg8
F0.98999999999999999
sg9
F0
sS'T'
I100
sg10
g13
sg14
g15
sg16
I1000
sg17
I2
sg18
I4
sg19
g20
sg21
g4
(g6
S'\xc3\xf5(\\\x8f\xc2\xed?'
tRp788
sg23
g24
sg25
I13
sg26
F0.5
sa(dp789
g3
g763
sS'N'
I100
sg8
F0.98999999999999999
sg9
F0
sS'T'
I100
sg10
g13
sg14
g15
sg16
I1000
sg17
I2
sg18
I4
sg19
g20
sg21
g4
(g6
S'\x15\xaeG\xe1z\x14\xee?'
tRp790
sg23
g24
sg25
I13
sg26
F0.5
sa(dp791
g3
g763
sS'N'
I100
sg8
F0.98999999999999999
sg9
F0
sS'T'
I100
sg10
g13
sg14
g15
sg16
I1000
sg17
I2
sg18
I4
sg19
g20
sg21
g4
(g6
S'gfffff\xee?'
tRp792
sg23
g24
sg25
I13
sg26
F0.5
sa(dp793
g3
g763
sS'N'
I100
sg8
F0.98999999999999999
sg9
F0
sS'T'
I100
sg10
g13
sg14
g15
sg16
I1000
sg17
I2
sg18
I4
sg19
g20
sg21
g4
(g6
S'\xb9\x1e\x85\xebQ\xb8\xee?'
tRp794
sg23
g24
sg25
I13
sg26
F0.5
sa(dp795
g3
g763
sS'N'
I100
sg8
F0.98999999999999999
sg9
F0
sS'T'
I100
sg10
g13
sg14
g15
sg16
I1000
sg17
I2
sg18
I4
sg19
g20
sg21
g4
(g6
S'\x0b\xd7\xa3p=\n\xef?'
tRp796
sg23
g24
sg25
I13
sg26
F0.5
sa(dp797
g3
g763
sS'N'
I100
sg8
F0.98999999999999999
sg9
F0
sS'T'
I100
sg10
g13
sg14
g15
sg16
I1000
sg17
I2
sg18
I4
sg19
g20
sg21
g4
(g6
S']\x8f\xc2\xf5(\\\xef?'
tRp798
sg23
g24
sg25
I13
sg26
F0.5
sa(dp799
g3
g763
sS'N'
I100
sg8
F0.98999999999999999
sg9
F0
sS'T'
I100
sg10
g13
sg14
g15
sg16
I1000
sg17
I2
sg18
I4
sg19
g20
sg21
g4
(g6
S'\xafG\xe1z\x14\xae\xef?'
tRp800
sg23
g24
sg25
I13
sg26
F0.5
sa(dp801
g3
g763
sS'N'
I100
sg8
F0.98999999999999999
sg9
F0
sS'T'
I100
sg10
g13
sg14
g15
sg16
I1000
sg17
I2
sg18
I4
sg19
g20
sg21
g4
(g6
S'\x00\x00\x00\x00\x00\x00\xf0?'
tRp802
sg23
g24
sg25
I13
sg26
F0.5
sa(dp803
g3
g4
(g6
S'\xcd\x894\xd2\x00=\x19@'
tRp804
sS'N'
I100
sg8
F0.98999999999999999
sg9
F0
sS'T'
I100
sg10
g13
sg14
g15
sg16
I1000
sg17
I2
sg18
I4
sg19
g20
sg21
g4
(g6
S'\x00\x00\x00\x00\x00\x00\x00\x00'
tRp805
sg23
g24
sg25
I13
sg26
F0.5
sa(dp806
g3
g804
sS'N'
I100
sg8
F0.98999999999999999
sg9
F0
sS'T'
I100
sg10
g13
sg14
g15
sg16
I1000
sg17
I2
sg18
I4
sg19
g20
sg21
g4
(g6
S'\x9a\x99\x99\x99\x99\x99\xb9?'
tRp807
sg23
g24
sg25
I13
sg26
F0.5
sa(dp808
g3
g804
sS'N'
I100
sg8
F0.98999999999999999
sg9
F0
sS'T'
I100
sg10
g13
sg14
g15
sg16
I1000
sg17
I2
sg18
I4
sg19
g20
sg21
g4
(g6
S'\x9a\x99\x99\x99\x99\x99\xc9?'
tRp809
sg23
g24
sg25
I13
sg26
F0.5
sa(dp810
g3
g804
sS'N'
I100
sg8
F0.98999999999999999
sg9
F0
sS'T'
I100
sg10
g13
sg14
g15
sg16
I1000
sg17
I2
sg18
I4
sg19
g20
sg21
g4
(g6
S'433333\xd3?'
tRp811
sg23
g24
sg25
I13
sg26
F0.5
sa(dp812
g3
g804
sS'N'
I100
sg8
F0.98999999999999999
sg9
F0
sS'T'
I100
sg10
g13
sg14
g15
sg16
I1000
sg17
I2
sg18
I4
sg19
g20
sg21
g4
(g6
S'\x9a\x99\x99\x99\x99\x99\xd9?'
tRp813
sg23
g24
sg25
I13
sg26
F0.5
sa(dp814
g3
g804
sS'N'
I100
sg8
F0.98999999999999999
sg9
F0
sS'T'
I100
sg10
g13
sg14
g15
sg16
I1000
sg17
I2
sg18
I4
sg19
g20
sg21
g4
(g6
S'\x00\x00\x00\x00\x00\x00\xe0?'
tRp815
sg23
g24
sg25
I13
sg26
F0.5
sa(dp816
g3
g804
sS'N'
I100
sg8
F0.98999999999999999
sg9
F0
sS'T'
I100
sg10
g13
sg14
g15
sg16
I1000
sg17
I2
sg18
I4
sg19
g20
sg21
g4
(g6
S'433333\xe3?'
tRp817
sg23
g24
sg25
I13
sg26
F0.5
sa(dp818
g3
g804
sS'N'
I100
sg8
F0.98999999999999999
sg9
F0
sS'T'
I100
sg10
g13
sg14
g15
sg16
I1000
sg17
I2
sg18
I4
sg19
g20
sg21
g4
(g6
S'gfffff\xe6?'
tRp819
sg23
g24
sg25
I13
sg26
F0.5
sa(dp820
g3
g804
sS'N'
I100
sg8
F0.98999999999999999
sg9
F0
sS'T'
I100
sg10
g13
sg14
g15
sg16
I1000
sg17
I2
sg18
I4
sg19
g20
sg21
g4
(g6
S'\x9a\x99\x99\x99\x99\x99\xe9?'
tRp821
sg23
g24
sg25
I13
sg26
F0.5
sa(dp822
g3
g804
sS'N'
I100
sg8
F0.98999999999999999
sg9
F0
sS'T'
I100
sg10
g13
sg14
g15
sg16
I1000
sg17
I2
sg18
I4
sg19
g20
sg21
g4
(g6
S'\xcd\xcc\xcc\xcc\xcc\xcc\xec?'
tRp823
sg23
g24
sg25
I13
sg26
F0.5
sa(dp824
g3
g804
sS'N'
I100
sg8
F0.98999999999999999
sg9
F0
sS'T'
I100
sg10
g13
sg14
g15
sg16
I1000
sg17
I2
sg18
I4
sg19
g20
sg21
g4
(g6
S'\x1f\x85\xebQ\xb8\x1e\xed?'
tRp825
sg23
g24
sg25
I13
sg26
F0.5
sa(dp826
g3
g804
sS'N'
I100
sg8
F0.98999999999999999
sg9
F0
sS'T'
I100
sg10
g13
sg14
g15
sg16
I1000
sg17
I2
sg18
I4
sg19
g20
sg21
g4
(g6
S'q=\n\xd7\xa3p\xed?'
tRp827
sg23
g24
sg25
I13
sg26
F0.5
sa(dp828
g3
g804
sS'N'
I100
sg8
F0.98999999999999999
sg9
F0
sS'T'
I100
sg10
g13
sg14
g15
sg16
I1000
sg17
I2
sg18
I4
sg19
g20
sg21
g4
(g6
S'\xc3\xf5(\\\x8f\xc2\xed?'
tRp829
sg23
g24
sg25
I13
sg26
F0.5
sa(dp830
g3
g804
sS'N'
I100
sg8
F0.98999999999999999
sg9
F0
sS'T'
I100
sg10
g13
sg14
g15
sg16
I1000
sg17
I2
sg18
I4
sg19
g20
sg21
g4
(g6
S'\x15\xaeG\xe1z\x14\xee?'
tRp831
sg23
g24
sg25
I13
sg26
F0.5
sa(dp832
g3
g804
sS'N'
I100
sg8
F0.98999999999999999
sg9
F0
sS'T'
I100
sg10
g13
sg14
g15
sg16
I1000
sg17
I2
sg18
I4
sg19
g20
sg21
g4
(g6
S'gfffff\xee?'
tRp833
sg23
g24
sg25
I13
sg26
F0.5
sa(dp834
g3
g804
sS'N'
I100
sg8
F0.98999999999999999
sg9
F0
sS'T'
I100
sg10
g13
sg14
g15
sg16
I1000
sg17
I2
sg18
I4
sg19
g20
sg21
g4
(g6
S'\xb9\x1e\x85\xebQ\xb8\xee?'
tRp835
sg23
g24
sg25
I13
sg26
F0.5
sa(dp836
g3
g804
sS'N'
I100
sg8
F0.98999999999999999
sg9
F0
sS'T'
I100
sg10
g13
sg14
g15
sg16
I1000
sg17
I2
sg18
I4
sg19
g20
sg21
g4
(g6
S'\x0b\xd7\xa3p=\n\xef?'
tRp837
sg23
g24
sg25
I13
sg26
F0.5
sa(dp838
g3
g804
sS'N'
I100
sg8
F0.98999999999999999
sg9
F0
sS'T'
I100
sg10
g13
sg14
g15
sg16
I1000
sg17
I2
sg18
I4
sg19
g20
sg21
g4
(g6
S']\x8f\xc2\xf5(\\\xef?'
tRp839
sg23
g24
sg25
I13
sg26
F0.5
sa(dp840
g3
g804
sS'N'
I100
sg8
F0.98999999999999999
sg9
F0
sS'T'
I100
sg10
g13
sg14
g15
sg16
I1000
sg17
I2
sg18
I4
sg19
g20
sg21
g4
(g6
S'\xafG\xe1z\x14\xae\xef?'
tRp841
sg23
g24
sg25
I13
sg26
F0.5
sa(dp842
g3
g804
sS'N'
I100
sg8
F0.98999999999999999
sg9
F0
sS'T'
I100
sg10
g13
sg14
g15
sg16
I1000
sg17
I2
sg18
I4
sg19
g20
sg21
g4
(g6
S'\x00\x00\x00\x00\x00\x00\xf0?'
tRp843
sg23
g24
sg25
I13
sg26
F0.5
sa(dp844
g3
g4
(g6
S'.\x00\x00\x00\x00\x00$@'
tRp845
sS'N'
I100
sg8
F0.98999999999999999
sg9
F0
sS'T'
I100
sg10
g13
sg14
g15
sg16
I1000
sg17
I2
sg18
I4
sg19
g20
sg21
g4
(g6
S'\x00\x00\x00\x00\x00\x00\x00\x00'
tRp846
sg23
g24
sg25
I13
sg26
F0.5
sa(dp847
g3
g845
sS'N'
I100
sg8
F0.98999999999999999
sg9
F0
sS'T'
I100
sg10
g13
sg14
g15
sg16
I1000
sg17
I2
sg18
I4
sg19
g20
sg21
g4
(g6
S'\x9a\x99\x99\x99\x99\x99\xb9?'
tRp848
sg23
g24
sg25
I13
sg26
F0.5
sa(dp849
g3
g845
sS'N'
I100
sg8
F0.98999999999999999
sg9
F0
sS'T'
I100
sg10
g13
sg14
g15
sg16
I1000
sg17
I2
sg18
I4
sg19
g20
sg21
g4
(g6
S'\x9a\x99\x99\x99\x99\x99\xc9?'
tRp850
sg23
g24
sg25
I13
sg26
F0.5
sa(dp851
g3
g845
sS'N'
I100
sg8
F0.98999999999999999
sg9
F0
sS'T'
I100
sg10
g13
sg14
g15
sg16
I1000
sg17
I2
sg18
I4
sg19
g20
sg21
g4
(g6
S'433333\xd3?'
tRp852
sg23
g24
sg25
I13
sg26
F0.5
sa(dp853
g3
g845
sS'N'
I100
sg8
F0.98999999999999999
sg9
F0
sS'T'
I100
sg10
g13
sg14
g15
sg16
I1000
sg17
I2
sg18
I4
sg19
g20
sg21
g4
(g6
S'\x9a\x99\x99\x99\x99\x99\xd9?'
tRp854
sg23
g24
sg25
I13
sg26
F0.5
sa(dp855
g3
g845
sS'N'
I100
sg8
F0.98999999999999999
sg9
F0
sS'T'
I100
sg10
g13
sg14
g15
sg16
I1000
sg17
I2
sg18
I4
sg19
g20
sg21
g4
(g6
S'\x00\x00\x00\x00\x00\x00\xe0?'
tRp856
sg23
g24
sg25
I13
sg26
F0.5
sa(dp857
g3
g845
sS'N'
I100
sg8
F0.98999999999999999
sg9
F0
sS'T'
I100
sg10
g13
sg14
g15
sg16
I1000
sg17
I2
sg18
I4
sg19
g20
sg21
g4
(g6
S'433333\xe3?'
tRp858
sg23
g24
sg25
I13
sg26
F0.5
sa(dp859
g3
g845
sS'N'
I100
sg8
F0.98999999999999999
sg9
F0
sS'T'
I100
sg10
g13
sg14
g15
sg16
I1000
sg17
I2
sg18
I4
sg19
g20
sg21
g4
(g6
S'gfffff\xe6?'
tRp860
sg23
g24
sg25
I13
sg26
F0.5
sa(dp861
g3
g845
sS'N'
I100
sg8
F0.98999999999999999
sg9
F0
sS'T'
I100
sg10
g13
sg14
g15
sg16
I1000
sg17
I2
sg18
I4
sg19
g20
sg21
g4
(g6
S'\x9a\x99\x99\x99\x99\x99\xe9?'
tRp862
sg23
g24
sg25
I13
sg26
F0.5
sa(dp863
g3
g845
sS'N'
I100
sg8
F0.98999999999999999
sg9
F0
sS'T'
I100
sg10
g13
sg14
g15
sg16
I1000
sg17
I2
sg18
I4
sg19
g20
sg21
g4
(g6
S'\xcd\xcc\xcc\xcc\xcc\xcc\xec?'
tRp864
sg23
g24
sg25
I13
sg26
F0.5
sa(dp865
g3
g845
sS'N'
I100
sg8
F0.98999999999999999
sg9
F0
sS'T'
I100
sg10
g13
sg14
g15
sg16
I1000
sg17
I2
sg18
I4
sg19
g20
sg21
g4
(g6
S'\x1f\x85\xebQ\xb8\x1e\xed?'
tRp866
sg23
g24
sg25
I13
sg26
F0.5
sa(dp867
g3
g845
sS'N'
I100
sg8
F0.98999999999999999
sg9
F0
sS'T'
I100
sg10
g13
sg14
g15
sg16
I1000
sg17
I2
sg18
I4
sg19
g20
sg21
g4
(g6
S'q=\n\xd7\xa3p\xed?'
tRp868
sg23
g24
sg25
I13
sg26
F0.5
sa(dp869
g3
g845
sS'N'
I100
sg8
F0.98999999999999999
sg9
F0
sS'T'
I100
sg10
g13
sg14
g15
sg16
I1000
sg17
I2
sg18
I4
sg19
g20
sg21
g4
(g6
S'\xc3\xf5(\\\x8f\xc2\xed?'
tRp870
sg23
g24
sg25
I13
sg26
F0.5
sa(dp871
g3
g845
sS'N'
I100
sg8
F0.98999999999999999
sg9
F0
sS'T'
I100
sg10
g13
sg14
g15
sg16
I1000
sg17
I2
sg18
I4
sg19
g20
sg21
g4
(g6
S'\x15\xaeG\xe1z\x14\xee?'
tRp872
sg23
g24
sg25
I13
sg26
F0.5
sa(dp873
g3
g845
sS'N'
I100
sg8
F0.98999999999999999
sg9
F0
sS'T'
I100
sg10
g13
sg14
g15
sg16
I1000
sg17
I2
sg18
I4
sg19
g20
sg21
g4
(g6
S'gfffff\xee?'
tRp874
sg23
g24
sg25
I13
sg26
F0.5
sa(dp875
g3
g845
sS'N'
I100
sg8
F0.98999999999999999
sg9
F0
sS'T'
I100
sg10
g13
sg14
g15
sg16
I1000
sg17
I2
sg18
I4
sg19
g20
sg21
g4
(g6
S'\xb9\x1e\x85\xebQ\xb8\xee?'
tRp876
sg23
g24
sg25
I13
sg26
F0.5
sa(dp877
g3
g845
sS'N'
I100
sg8
F0.98999999999999999
sg9
F0
sS'T'
I100
sg10
g13
sg14
g15
sg16
I1000
sg17
I2
sg18
I4
sg19
g20
sg21
g4
(g6
S'\x0b\xd7\xa3p=\n\xef?'
tRp878
sg23
g24
sg25
I13
sg26
F0.5
sa(dp879
g3
g845
sS'N'
I100
sg8
F0.98999999999999999
sg9
F0
sS'T'
I100
sg10
g13
sg14
g15
sg16
I1000
sg17
I2
sg18
I4
sg19
g20
sg21
g4
(g6
S']\x8f\xc2\xf5(\\\xef?'
tRp880
sg23
g24
sg25
I13
sg26
F0.5
sa(dp881
g3
g845
sS'N'
I100
sg8
F0.98999999999999999
sg9
F0
sS'T'
I100
sg10
g13
sg14
g15
sg16
I1000
sg17
I2
sg18
I4
sg19
g20
sg21
g4
(g6
S'\xafG\xe1z\x14\xae\xef?'
tRp882
sg23
g24
sg25
I13
sg26
F0.5
sa(dp883
g3
g845
sS'N'
I100
sg8
F0.98999999999999999
sg9
F0
sS'T'
I100
sg10
g13
sg14
g15
sg16
I1000
sg17
I2
sg18
I4
sg19
g20
sg21
g4
(g6
S'\x00\x00\x00\x00\x00\x00\xf0?'
tRp884
sg23
g24
sg25
I13
sg26
F0.5
sa(dp885
g3
g4
(g6
S'\xb4x\x894\xa7\xb2/@'
tRp886
sS'N'
I100
sg8
F0.98999999999999999
sg9
F0
sS'T'
I100
sg10
g13
sg14
g15
sg16
I1000
sg17
I2
sg18
I4
sg19
g20
sg21
g4
(g6
S'\x00\x00\x00\x00\x00\x00\x00\x00'
tRp887
sg23
g24
sg25
I13
sg26
F0.5
sa(dp888
g3
g886
sS'N'
I100
sg8
F0.98999999999999999
sg9
F0
sS'T'
I100
sg10
g13
sg14
g15
sg16
I1000
sg17
I2
sg18
I4
sg19
g20
sg21
g4
(g6
S'\x9a\x99\x99\x99\x99\x99\xb9?'
tRp889
sg23
g24
sg25
I13
sg26
F0.5
sa(dp890
g3
g886
sS'N'
I100
sg8
F0.98999999999999999
sg9
F0
sS'T'
I100
sg10
g13
sg14
g15
sg16
I1000
sg17
I2
sg18
I4
sg19
g20
sg21
g4
(g6
S'\x9a\x99\x99\x99\x99\x99\xc9?'
tRp891
sg23
g24
sg25
I13
sg26
F0.5
sa(dp892
g3
g886
sS'N'
I100
sg8
F0.98999999999999999
sg9
F0
sS'T'
I100
sg10
g13
sg14
g15
sg16
I1000
sg17
I2
sg18
I4
sg19
g20
sg21
g4
(g6
S'433333\xd3?'
tRp893
sg23
g24
sg25
I13
sg26
F0.5
sa(dp894
g3
g886
sS'N'
I100
sg8
F0.98999999999999999
sg9
F0
sS'T'
I100
sg10
g13
sg14
g15
sg16
I1000
sg17
I2
sg18
I4
sg19
g20
sg21
g4
(g6
S'\x9a\x99\x99\x99\x99\x99\xd9?'
tRp895
sg23
g24
sg25
I13
sg26
F0.5
sa(dp896
g3
g886
sS'N'
I100
sg8
F0.98999999999999999
sg9
F0
sS'T'
I100
sg10
g13
sg14
g15
sg16
I1000
sg17
I2
sg18
I4
sg19
g20
sg21
g4
(g6
S'\x00\x00\x00\x00\x00\x00\xe0?'
tRp897
sg23
g24
sg25
I13
sg26
F0.5
sa(dp898
g3
g886
sS'N'
I100
sg8
F0.98999999999999999
sg9
F0
sS'T'
I100
sg10
g13
sg14
g15
sg16
I1000
sg17
I2
sg18
I4
sg19
g20
sg21
g4
(g6
S'433333\xe3?'
tRp899
sg23
g24
sg25
I13
sg26
F0.5
sa(dp900
g3
g886
sS'N'
I100
sg8
F0.98999999999999999
sg9
F0
sS'T'
I100
sg10
g13
sg14
g15
sg16
I1000
sg17
I2
sg18
I4
sg19
g20
sg21
g4
(g6
S'gfffff\xe6?'
tRp901
sg23
g24
sg25
I13
sg26
F0.5
sa(dp902
g3
g886
sS'N'
I100
sg8
F0.98999999999999999
sg9
F0
sS'T'
I100
sg10
g13
sg14
g15
sg16
I1000
sg17
I2
sg18
I4
sg19
g20
sg21
g4
(g6
S'\x9a\x99\x99\x99\x99\x99\xe9?'
tRp903
sg23
g24
sg25
I13
sg26
F0.5
sa(dp904
g3
g886
sS'N'
I100
sg8
F0.98999999999999999
sg9
F0
sS'T'
I100
sg10
g13
sg14
g15
sg16
I1000
sg17
I2
sg18
I4
sg19
g20
sg21
g4
(g6
S'\xcd\xcc\xcc\xcc\xcc\xcc\xec?'
tRp905
sg23
g24
sg25
I13
sg26
F0.5
sa(dp906
g3
g886
sS'N'
I100
sg8
F0.98999999999999999
sg9
F0
sS'T'
I100
sg10
g13
sg14
g15
sg16
I1000
sg17
I2
sg18
I4
sg19
g20
sg21
g4
(g6
S'\x1f\x85\xebQ\xb8\x1e\xed?'
tRp907
sg23
g24
sg25
I13
sg26
F0.5
sa(dp908
g3
g886
sS'N'
I100
sg8
F0.98999999999999999
sg9
F0
sS'T'
I100
sg10
g13
sg14
g15
sg16
I1000
sg17
I2
sg18
I4
sg19
g20
sg21
g4
(g6
S'q=\n\xd7\xa3p\xed?'
tRp909
sg23
g24
sg25
I13
sg26
F0.5
sa(dp910
g3
g886
sS'N'
I100
sg8
F0.98999999999999999
sg9
F0
sS'T'
I100
sg10
g13
sg14
g15
sg16
I1000
sg17
I2
sg18
I4
sg19
g20
sg21
g4
(g6
S'\xc3\xf5(\\\x8f\xc2\xed?'
tRp911
sg23
g24
sg25
I13
sg26
F0.5
sa(dp912
g3
g886
sS'N'
I100
sg8
F0.98999999999999999
sg9
F0
sS'T'
I100
sg10
g13
sg14
g15
sg16
I1000
sg17
I2
sg18
I4
sg19
g20
sg21
g4
(g6
S'\x15\xaeG\xe1z\x14\xee?'
tRp913
sg23
g24
sg25
I13
sg26
F0.5
sa(dp914
g3
g886
sS'N'
I100
sg8
F0.98999999999999999
sg9
F0
sS'T'
I100
sg10
g13
sg14
g15
sg16
I1000
sg17
I2
sg18
I4
sg19
g20
sg21
g4
(g6
S'gfffff\xee?'
tRp915
sg23
g24
sg25
I13
sg26
F0.5
sa(dp916
g3
g886
sS'N'
I100
sg8
F0.98999999999999999
sg9
F0
sS'T'
I100
sg10
g13
sg14
g15
sg16
I1000
sg17
I2
sg18
I4
sg19
g20
sg21
g4
(g6
S'\xb9\x1e\x85\xebQ\xb8\xee?'
tRp917
sg23
g24
sg25
I13
sg26
F0.5
sa(dp918
g3
g886
sS'N'
I100
sg8
F0.98999999999999999
sg9
F0
sS'T'
I100
sg10
g13
sg14
g15
sg16
I1000
sg17
I2
sg18
I4
sg19
g20
sg21
g4
(g6
S'\x0b\xd7\xa3p=\n\xef?'
tRp919
sg23
g24
sg25
I13
sg26
F0.5
sa(dp920
g3
g886
sS'N'
I100
sg8
F0.98999999999999999
sg9
F0
sS'T'
I100
sg10
g13
sg14
g15
sg16
I1000
sg17
I2
sg18
I4
sg19
g20
sg21
g4
(g6
S']\x8f\xc2\xf5(\\\xef?'
tRp921
sg23
g24
sg25
I13
sg26
F0.5
sa(dp922
g3
g886
sS'N'
I100
sg8
F0.98999999999999999
sg9
F0
sS'T'
I100
sg10
g13
sg14
g15
sg16
I1000
sg17
I2
sg18
I4
sg19
g20
sg21
g4
(g6
S'\xafG\xe1z\x14\xae\xef?'
tRp923
sg23
g24
sg25
I13
sg26
F0.5
sa(dp924
g3
g886
sS'N'
I100
sg8
F0.98999999999999999
sg9
F0
sS'T'
I100
sg10
g13
sg14
g15
sg16
I1000
sg17
I2
sg18
I4
sg19
g20
sg21
g4
(g6
S'\x00\x00\x00\x00\x00\x00\xf0?'
tRp925
sg23
g24
sg25
I13
sg26
F0.5
sa(dp926
g3
g4
(g6
S'\xb6\xffI\xe4m\x1e9@'
tRp927
sS'N'
I100
sg8
F0.98999999999999999
sg9
F0
sS'T'
I100
sg10
g13
sg14
g15
sg16
I1000
sg17
I2
sg18
I4
sg19
g20
sg21
g4
(g6
S'\x00\x00\x00\x00\x00\x00\x00\x00'
tRp928
sg23
g24
sg25
I13
sg26
F0.5
sa(dp929
g3
g927
sS'N'
I100
sg8
F0.98999999999999999
sg9
F0
sS'T'
I100
sg10
g13
sg14
g15
sg16
I1000
sg17
I2
sg18
I4
sg19
g20
sg21
g4
(g6
S'\x9a\x99\x99\x99\x99\x99\xb9?'
tRp930
sg23
g24
sg25
I13
sg26
F0.5
sa(dp931
g3
g927
sS'N'
I100
sg8
F0.98999999999999999
sg9
F0
sS'T'
I100
sg10
g13
sg14
g15
sg16
I1000
sg17
I2
sg18
I4
sg19
g20
sg21
g4
(g6
S'\x9a\x99\x99\x99\x99\x99\xc9?'
tRp932
sg23
g24
sg25
I13
sg26
F0.5
sa(dp933
g3
g927
sS'N'
I100
sg8
F0.98999999999999999
sg9
F0
sS'T'
I100
sg10
g13
sg14
g15
sg16
I1000
sg17
I2
sg18
I4
sg19
g20
sg21
g4
(g6
S'433333\xd3?'
tRp934
sg23
g24
sg25
I13
sg26
F0.5
sa(dp935
g3
g927
sS'N'
I100
sg8
F0.98999999999999999
sg9
F0
sS'T'
I100
sg10
g13
sg14
g15
sg16
I1000
sg17
I2
sg18
I4
sg19
g20
sg21
g4
(g6
S'\x9a\x99\x99\x99\x99\x99\xd9?'
tRp936
sg23
g24
sg25
I13
sg26
F0.5
sa(dp937
g3
g927
sS'N'
I100
sg8
F0.98999999999999999
sg9
F0
sS'T'
I100
sg10
g13
sg14
g15
sg16
I1000
sg17
I2
sg18
I4
sg19
g20
sg21
g4
(g6
S'\x00\x00\x00\x00\x00\x00\xe0?'
tRp938
sg23
g24
sg25
I13
sg26
F0.5
sa(dp939
g3
g927
sS'N'
I100
sg8
F0.98999999999999999
sg9
F0
sS'T'
I100
sg10
g13
sg14
g15
sg16
I1000
sg17
I2
sg18
I4
sg19
g20
sg21
g4
(g6
S'433333\xe3?'
tRp940
sg23
g24
sg25
I13
sg26
F0.5
sa(dp941
g3
g927
sS'N'
I100
sg8
F0.98999999999999999
sg9
F0
sS'T'
I100
sg10
g13
sg14
g15
sg16
I1000
sg17
I2
sg18
I4
sg19
g20
sg21
g4
(g6
S'gfffff\xe6?'
tRp942
sg23
g24
sg25
I13
sg26
F0.5
sa(dp943
g3
g927
sS'N'
I100
sg8
F0.98999999999999999
sg9
F0
sS'T'
I100
sg10
g13
sg14
g15
sg16
I1000
sg17
I2
sg18
I4
sg19
g20
sg21
g4
(g6
S'\x9a\x99\x99\x99\x99\x99\xe9?'
tRp944
sg23
g24
sg25
I13
sg26
F0.5
sa(dp945
g3
g927
sS'N'
I100
sg8
F0.98999999999999999
sg9
F0
sS'T'
I100
sg10
g13
sg14
g15
sg16
I1000
sg17
I2
sg18
I4
sg19
g20
sg21
g4
(g6
S'\xcd\xcc\xcc\xcc\xcc\xcc\xec?'
tRp946
sg23
g24
sg25
I13
sg26
F0.5
sa(dp947
g3
g927
sS'N'
I100
sg8
F0.98999999999999999
sg9
F0
sS'T'
I100
sg10
g13
sg14
g15
sg16
I1000
sg17
I2
sg18
I4
sg19
g20
sg21
g4
(g6
S'\x1f\x85\xebQ\xb8\x1e\xed?'
tRp948
sg23
g24
sg25
I13
sg26
F0.5
sa(dp949
g3
g927
sS'N'
I100
sg8
F0.98999999999999999
sg9
F0
sS'T'
I100
sg10
g13
sg14
g15
sg16
I1000
sg17
I2
sg18
I4
sg19
g20
sg21
g4
(g6
S'q=\n\xd7\xa3p\xed?'
tRp950
sg23
g24
sg25
I13
sg26
F0.5
sa(dp951
g3
g927
sS'N'
I100
sg8
F0.98999999999999999
sg9
F0
sS'T'
I100
sg10
g13
sg14
g15
sg16
I1000
sg17
I2
sg18
I4
sg19
g20
sg21
g4
(g6
S'\xc3\xf5(\\\x8f\xc2\xed?'
tRp952
sg23
g24
sg25
I13
sg26
F0.5
sa(dp953
g3
g927
sS'N'
I100
sg8
F0.98999999999999999
sg9
F0
sS'T'
I100
sg10
g13
sg14
g15
sg16
I1000
sg17
I2
sg18
I4
sg19
g20
sg21
g4
(g6
S'\x15\xaeG\xe1z\x14\xee?'
tRp954
sg23
g24
sg25
I13
sg26
F0.5
sa(dp955
g3
g927
sS'N'
I100
sg8
F0.98999999999999999
sg9
F0
sS'T'
I100
sg10
g13
sg14
g15
sg16
I1000
sg17
I2
sg18
I4
sg19
g20
sg21
g4
(g6
S'gfffff\xee?'
tRp956
sg23
g24
sg25
I13
sg26
F0.5
sa(dp957
g3
g927
sS'N'
I100
sg8
F0.98999999999999999
sg9
F0
sS'T'
I100
sg10
g13
sg14
g15
sg16
I1000
sg17
I2
sg18
I4
sg19
g20
sg21
g4
(g6
S'\xb9\x1e\x85\xebQ\xb8\xee?'
tRp958
sg23
g24
sg25
I13
sg26
F0.5
sa(dp959
g3
g927
sS'N'
I100
sg8
F0.98999999999999999
sg9
F0
sS'T'
I100
sg10
g13
sg14
g15
sg16
I1000
sg17
I2
sg18
I4
sg19
g20
sg21
g4
(g6
S'\x0b\xd7\xa3p=\n\xef?'
tRp960
sg23
g24
sg25
I13
sg26
F0.5
sa(dp961
g3
g927
sS'N'
I100
sg8
F0.98999999999999999
sg9
F0
sS'T'
I100
sg10
g13
sg14
g15
sg16
I1000
sg17
I2
sg18
I4
sg19
g20
sg21
g4
(g6
S']\x8f\xc2\xf5(\\\xef?'
tRp962
sg23
g24
sg25
I13
sg26
F0.5
sa(dp963
g3
g927
sS'N'
I100
sg8
F0.98999999999999999
sg9
F0
sS'T'
I100
sg10
g13
sg14
g15
sg16
I1000
sg17
I2
sg18
I4
sg19
g20
sg21
g4
(g6
S'\xafG\xe1z\x14\xae\xef?'
tRp964
sg23
g24
sg25
I13
sg26
F0.5
sa(dp965
g3
g927
sS'N'
I100
sg8
F0.98999999999999999
sg9
F0
sS'T'
I100
sg10
g13
sg14
g15
sg16
I1000
sg17
I2
sg18
I4
sg19
g20
sg21
g4
(g6
S'\x00\x00\x00\x00\x00\x00\xf0?'
tRp966
sg23
g24
sg25
I13
sg26
F0.5
sa(dp967
g3
g4
(g6
S'\xe0\x84\x93\x93\xc5\xe7C@'
tRp968
sS'N'
I100
sg8
F0.98999999999999999
sg9
F0
sS'T'
I100
sg10
g13
sg14
g15
sg16
I1000
sg17
I2
sg18
I4
sg19
g20
sg21
g4
(g6
S'\x00\x00\x00\x00\x00\x00\x00\x00'
tRp969
sg23
g24
sg25
I13
sg26
F0.5
sa(dp970
g3
g968
sS'N'
I100
sg8
F0.98999999999999999
sg9
F0
sS'T'
I100
sg10
g13
sg14
g15
sg16
I1000
sg17
I2
sg18
I4
sg19
g20
sg21
g4
(g6
S'\x9a\x99\x99\x99\x99\x99\xb9?'
tRp971
sg23
g24
sg25
I13
sg26
F0.5
sa(dp972
g3
g968
sS'N'
I100
sg8
F0.98999999999999999
sg9
F0
sS'T'
I100
sg10
g13
sg14
g15
sg16
I1000
sg17
I2
sg18
I4
sg19
g20
sg21
g4
(g6
S'\x9a\x99\x99\x99\x99\x99\xc9?'
tRp973
sg23
g24
sg25
I13
sg26
F0.5
sa(dp974
g3
g968
sS'N'
I100
sg8
F0.98999999999999999
sg9
F0
sS'T'
I100
sg10
g13
sg14
g15
sg16
I1000
sg17
I2
sg18
I4
sg19
g20
sg21
g4
(g6
S'433333\xd3?'
tRp975
sg23
g24
sg25
I13
sg26
F0.5
sa(dp976
g3
g968
sS'N'
I100
sg8
F0.98999999999999999
sg9
F0
sS'T'
I100
sg10
g13
sg14
g15
sg16
I1000
sg17
I2
sg18
I4
sg19
g20
sg21
g4
(g6
S'\x9a\x99\x99\x99\x99\x99\xd9?'
tRp977
sg23
g24
sg25
I13
sg26
F0.5
sa(dp978
g3
g968
sS'N'
I100
sg8
F0.98999999999999999
sg9
F0
sS'T'
I100
sg10
g13
sg14
g15
sg16
I1000
sg17
I2
sg18
I4
sg19
g20
sg21
g4
(g6
S'\x00\x00\x00\x00\x00\x00\xe0?'
tRp979
sg23
g24
sg25
I13
sg26
F0.5
sa(dp980
g3
g968
sS'N'
I100
sg8
F0.98999999999999999
sg9
F0
sS'T'
I100
sg10
g13
sg14
g15
sg16
I1000
sg17
I2
sg18
I4
sg19
g20
sg21
g4
(g6
S'433333\xe3?'
tRp981
sg23
g24
sg25
I13
sg26
F0.5
sa(dp982
g3
g968
sS'N'
I100
sg8
F0.98999999999999999
sg9
F0
sS'T'
I100
sg10
g13
sg14
g15
sg16
I1000
sg17
I2
sg18
I4
sg19
g20
sg21
g4
(g6
S'gfffff\xe6?'
tRp983
sg23
g24
sg25
I13
sg26
F0.5
sa(dp984
g3
g968
sS'N'
I100
sg8
F0.98999999999999999
sg9
F0
sS'T'
I100
sg10
g13
sg14
g15
sg16
I1000
sg17
I2
sg18
I4
sg19
g20
sg21
g4
(g6
S'\x9a\x99\x99\x99\x99\x99\xe9?'
tRp985
sg23
g24
sg25
I13
sg26
F0.5
sa(dp986
g3
g968
sS'N'
I100
sg8
F0.98999999999999999
sg9
F0
sS'T'
I100
sg10
g13
sg14
g15
sg16
I1000
sg17
I2
sg18
I4
sg19
g20
sg21
g4
(g6
S'\xcd\xcc\xcc\xcc\xcc\xcc\xec?'
tRp987
sg23
g24
sg25
I13
sg26
F0.5
sa(dp988
g3
g968
sS'N'
I100
sg8
F0.98999999999999999
sg9
F0
sS'T'
I100
sg10
g13
sg14
g15
sg16
I1000
sg17
I2
sg18
I4
sg19
g20
sg21
g4
(g6
S'\x1f\x85\xebQ\xb8\x1e\xed?'
tRp989
sg23
g24
sg25
I13
sg26
F0.5
sa(dp990
g3
g968
sS'N'
I100
sg8
F0.98999999999999999
sg9
F0
sS'T'
I100
sg10
g13
sg14
g15
sg16
I1000
sg17
I2
sg18
I4
sg19
g20
sg21
g4
(g6
S'q=\n\xd7\xa3p\xed?'
tRp991
sg23
g24
sg25
I13
sg26
F0.5
sa(dp992
g3
g968
sS'N'
I100
sg8
F0.98999999999999999
sg9
F0
sS'T'
I100
sg10
g13
sg14
g15
sg16
I1000
sg17
I2
sg18
I4
sg19
g20
sg21
g4
(g6
S'\xc3\xf5(\\\x8f\xc2\xed?'
tRp993
sg23
g24
sg25
I13
sg26
F0.5
sa(dp994
g3
g968
sS'N'
I100
sg8
F0.98999999999999999
sg9
F0
sS'T'
I100
sg10
g13
sg14
g15
sg16
I1000
sg17
I2
sg18
I4
sg19
g20
sg21
g4
(g6
S'\x15\xaeG\xe1z\x14\xee?'
tRp995
sg23
g24
sg25
I13
sg26
F0.5
sa(dp996
g3
g968
sS'N'
I100
sg8
F0.98999999999999999
sg9
F0
sS'T'
I100
sg10
g13
sg14
g15
sg16
I1000
sg17
I2
sg18
I4
sg19
g20
sg21
g4
(g6
S'gfffff\xee?'
tRp997
sg23
g24
sg25
I13
sg26
F0.5
sa(dp998
g3
g968
sS'N'
I100
sg8
F0.98999999999999999
sg9
F0
sS'T'
I100
sg10
g13
sg14
g15
sg16
I1000
sg17
I2
sg18
I4
sg19
g20
sg21
g4
(g6
S'\xb9\x1e\x85\xebQ\xb8\xee?'
tRp999
sg23
g24
sg25
I13
sg26
F0.5
sa(dp1000
g3
g968
sS'N'
I100
sg8
F0.98999999999999999
sg9
F0
sS'T'
I100
sg10
g13
sg14
g15
sg16
I1000
sg17
I2
sg18
I4
sg19
g20
sg21
g4
(g6
S'\x0b\xd7\xa3p=\n\xef?'
tRp1001
sg23
g24
sg25
I13
sg26
F0.5
sa(dp1002
g3
g968
sS'N'
I100
sg8
F0.98999999999999999
sg9
F0
sS'T'
I100
sg10
g13
sg14
g15
sg16
I1000
sg17
I2
sg18
I4
sg19
g20
sg21
g4
(g6
S']\x8f\xc2\xf5(\\\xef?'
tRp1003
sg23
g24
sg25
I13
sg26
F0.5
sa(dp1004
g3
g968
sS'N'
I100
sg8
F0.98999999999999999
sg9
F0
sS'T'
I100
sg10
g13
sg14
g15
sg16
I1000
sg17
I2
sg18
I4
sg19
g20
sg21
g4
(g6
S'\xafG\xe1z\x14\xae\xef?'
tRp1005
sg23
g24
sg25
I13
sg26
F0.5
sa(dp1006
g3
g968
sS'N'
I100
sg8
F0.98999999999999999
sg9
F0
sS'T'
I100
sg10
g13
sg14
g15
sg16
I1000
sg17
I2
sg18
I4
sg19
g20
sg21
g4
(g6
S'\x00\x00\x00\x00\x00\x00\xf0?'
tRp1007
sg23
g24
sg25
I13
sg26
F0.5
sa(dp1008
g3
g4
(g6
S'S\xac\xc1\x06A\x8cO@'
tRp1009
sS'N'
I100
sg8
F0.98999999999999999
sg9
F0
sS'T'
I100
sg10
g13
sg14
g15
sg16
I1000
sg17
I2
sg18
I4
sg19
g20
sg21
g4
(g6
S'\x00\x00\x00\x00\x00\x00\x00\x00'
tRp1010
sg23
g24
sg25
I13
sg26
F0.5
sa(dp1011
g3
g1009
sS'N'
I100
sg8
F0.98999999999999999
sg9
F0
sS'T'
I100
sg10
g13
sg14
g15
sg16
I1000
sg17
I2
sg18
I4
sg19
g20
sg21
g4
(g6
S'\x9a\x99\x99\x99\x99\x99\xb9?'
tRp1012
sg23
g24
sg25
I13
sg26
F0.5
sa(dp1013
g3
g1009
sS'N'
I100
sg8
F0.98999999999999999
sg9
F0
sS'T'
I100
sg10
g13
sg14
g15
sg16
I1000
sg17
I2
sg18
I4
sg19
g20
sg21
g4
(g6
S'\x9a\x99\x99\x99\x99\x99\xc9?'
tRp1014
sg23
g24
sg25
I13
sg26
F0.5
sa(dp1015
g3
g1009
sS'N'
I100
sg8
F0.98999999999999999
sg9
F0
sS'T'
I100
sg10
g13
sg14
g15
sg16
I1000
sg17
I2
sg18
I4
sg19
g20
sg21
g4
(g6
S'433333\xd3?'
tRp1016
sg23
g24
sg25
I13
sg26
F0.5
sa(dp1017
g3
g1009
sS'N'
I100
sg8
F0.98999999999999999
sg9
F0
sS'T'
I100
sg10
g13
sg14
g15
sg16
I1000
sg17
I2
sg18
I4
sg19
g20
sg21
g4
(g6
S'\x9a\x99\x99\x99\x99\x99\xd9?'
tRp1018
sg23
g24
sg25
I13
sg26
F0.5
sa(dp1019
g3
g1009
sS'N'
I100
sg8
F0.98999999999999999
sg9
F0
sS'T'
I100
sg10
g13
sg14
g15
sg16
I1000
sg17
I2
sg18
I4
sg19
g20
sg21
g4
(g6
S'\x00\x00\x00\x00\x00\x00\xe0?'
tRp1020
sg23
g24
sg25
I13
sg26
F0.5
sa(dp1021
g3
g1009
sS'N'
I100
sg8
F0.98999999999999999
sg9
F0
sS'T'
I100
sg10
g13
sg14
g15
sg16
I1000
sg17
I2
sg18
I4
sg19
g20
sg21
g4
(g6
S'433333\xe3?'
tRp1022
sg23
g24
sg25
I13
sg26
F0.5
sa(dp1023
g3
g1009
sS'N'
I100
sg8
F0.98999999999999999
sg9
F0
sS'T'
I100
sg10
g13
sg14
g15
sg16
I1000
sg17
I2
sg18
I4
sg19
g20
sg21
g4
(g6
S'gfffff\xe6?'
tRp1024
sg23
g24
sg25
I13
sg26
F0.5
sa(dp1025
g3
g1009
sS'N'
I100
sg8
F0.98999999999999999
sg9
F0
sS'T'
I100
sg10
g13
sg14
g15
sg16
I1000
sg17
I2
sg18
I4
sg19
g20
sg21
g4
(g6
S'\x9a\x99\x99\x99\x99\x99\xe9?'
tRp1026
sg23
g24
sg25
I13
sg26
F0.5
sa(dp1027
g3
g1009
sS'N'
I100
sg8
F0.98999999999999999
sg9
F0
sS'T'
I100
sg10
g13
sg14
g15
sg16
I1000
sg17
I2
sg18
I4
sg19
g20
sg21
g4
(g6
S'\xcd\xcc\xcc\xcc\xcc\xcc\xec?'
tRp1028
sg23
g24
sg25
I13
sg26
F0.5
sa(dp1029
g3
g1009
sS'N'
I100
sg8
F0.98999999999999999
sg9
F0
sS'T'
I100
sg10
g13
sg14
g15
sg16
I1000
sg17
I2
sg18
I4
sg19
g20
sg21
g4
(g6
S'\x1f\x85\xebQ\xb8\x1e\xed?'
tRp1030
sg23
g24
sg25
I13
sg26
F0.5
sa(dp1031
g3
g1009
sS'N'
I100
sg8
F0.98999999999999999
sg9
F0
sS'T'
I100
sg10
g13
sg14
g15
sg16
I1000
sg17
I2
sg18
I4
sg19
g20
sg21
g4
(g6
S'q=\n\xd7\xa3p\xed?'
tRp1032
sg23
g24
sg25
I13
sg26
F0.5
sa(dp1033
g3
g1009
sS'N'
I100
sg8
F0.98999999999999999
sg9
F0
sS'T'
I100
sg10
g13
sg14
g15
sg16
I1000
sg17
I2
sg18
I4
sg19
g20
sg21
g4
(g6
S'\xc3\xf5(\\\x8f\xc2\xed?'
tRp1034
sg23
g24
sg25
I13
sg26
F0.5
sa(dp1035
g3
g1009
sS'N'
I100
sg8
F0.98999999999999999
sg9
F0
sS'T'
I100
sg10
g13
sg14
g15
sg16
I1000
sg17
I2
sg18
I4
sg19
g20
sg21
g4
(g6
S'\x15\xaeG\xe1z\x14\xee?'
tRp1036
sg23
g24
sg25
I13
sg26
F0.5
sa(dp1037
g3
g1009
sS'N'
I100
sg8
F0.98999999999999999
sg9
F0
sS'T'
I100
sg10
g13
sg14
g15
sg16
I1000
sg17
I2
sg18
I4
sg19
g20
sg21
g4
(g6
S'gfffff\xee?'
tRp1038
sg23
g24
sg25
I13
sg26
F0.5
sa(dp1039
g3
g1009
sS'N'
I100
sg8
F0.98999999999999999
sg9
F0
sS'T'
I100
sg10
g13
sg14
g15
sg16
I1000
sg17
I2
sg18
I4
sg19
g20
sg21
g4
(g6
S'\xb9\x1e\x85\xebQ\xb8\xee?'
tRp1040
sg23
g24
sg25
I13
sg26
F0.5
sa(dp1041
g3
g1009
sS'N'
I100
sg8
F0.98999999999999999
sg9
F0
sS'T'
I100
sg10
g13
sg14
g15
sg16
I1000
sg17
I2
sg18
I4
sg19
g20
sg21
g4
(g6
S'\x0b\xd7\xa3p=\n\xef?'
tRp1042
sg23
g24
sg25
I13
sg26
F0.5
sa(dp1043
g3
g1009
sS'N'
I100
sg8
F0.98999999999999999
sg9
F0
sS'T'
I100
sg10
g13
sg14
g15
sg16
I1000
sg17
I2
sg18
I4
sg19
g20
sg21
g4
(g6
S']\x8f\xc2\xf5(\\\xef?'
tRp1044
sg23
g24
sg25
I13
sg26
F0.5
sa(dp1045
g3
g1009
sS'N'
I100
sg8
F0.98999999999999999
sg9
F0
sS'T'
I100
sg10
g13
sg14
g15
sg16
I1000
sg17
I2
sg18
I4
sg19
g20
sg21
g4
(g6
S'\xafG\xe1z\x14\xae\xef?'
tRp1046
sg23
g24
sg25
I13
sg26
F0.5
sa(dp1047
g3
g1009
sS'N'
I100
sg8
F0.98999999999999999
sg9
F0
sS'T'
I100
sg10
g13
sg14
g15
sg16
I1000
sg17
I2
sg18
I4
sg19
g20
sg21
g4
(g6
S'\x00\x00\x00\x00\x00\x00\xf0?'
tRp1048
sg23
g24
sg25
I13
sg26
F0.5
sa(dp1049
g3
g4
(g6
S'H\x00\x00\x00\x00\x00Y@'
tRp1050
sS'N'
I100
sg8
F0.98999999999999999
sg9
F0
sS'T'
I100
sg10
g13
sg14
g15
sg16
I1000
sg17
I2
sg18
I4
sg19
g20
sg21
g4
(g6
S'\x00\x00\x00\x00\x00\x00\x00\x00'
tRp1051
sg23
g24
sg25
I13
sg26
F0.5
sa(dp1052
g3
g1050
sS'N'
I100
sg8
F0.98999999999999999
sg9
F0
sS'T'
I100
sg10
g13
sg14
g15
sg16
I1000
sg17
I2
sg18
I4
sg19
g20
sg21
g4
(g6
S'\x9a\x99\x99\x99\x99\x99\xb9?'
tRp1053
sg23
g24
sg25
I13
sg26
F0.5
sa(dp1054
g3
g1050
sS'N'
I100
sg8
F0.98999999999999999
sg9
F0
sS'T'
I100
sg10
g13
sg14
g15
sg16
I1000
sg17
I2
sg18
I4
sg19
g20
sg21
g4
(g6
S'\x9a\x99\x99\x99\x99\x99\xc9?'
tRp1055
sg23
g24
sg25
I13
sg26
F0.5
sa(dp1056
g3
g1050
sS'N'
I100
sg8
F0.98999999999999999
sg9
F0
sS'T'
I100
sg10
g13
sg14
g15
sg16
I1000
sg17
I2
sg18
I4
sg19
g20
sg21
g4
(g6
S'433333\xd3?'
tRp1057
sg23
g24
sg25
I13
sg26
F0.5
sa(dp1058
g3
g1050
sS'N'
I100
sg8
F0.98999999999999999
sg9
F0
sS'T'
I100
sg10
g13
sg14
g15
sg16
I1000
sg17
I2
sg18
I4
sg19
g20
sg21
g4
(g6
S'\x9a\x99\x99\x99\x99\x99\xd9?'
tRp1059
sg23
g24
sg25
I13
sg26
F0.5
sa(dp1060
g3
g1050
sS'N'
I100
sg8
F0.98999999999999999
sg9
F0
sS'T'
I100
sg10
g13
sg14
g15
sg16
I1000
sg17
I2
sg18
I4
sg19
g20
sg21
g4
(g6
S'\x00\x00\x00\x00\x00\x00\xe0?'
tRp1061
sg23
g24
sg25
I13
sg26
F0.5
sa(dp1062
g3
g1050
sS'N'
I100
sg8
F0.98999999999999999
sg9
F0
sS'T'
I100
sg10
g13
sg14
g15
sg16
I1000
sg17
I2
sg18
I4
sg19
g20
sg21
g4
(g6
S'433333\xe3?'
tRp1063
sg23
g24
sg25
I13
sg26
F0.5
sa(dp1064
g3
g1050
sS'N'
I100
sg8
F0.98999999999999999
sg9
F0
sS'T'
I100
sg10
g13
sg14
g15
sg16
I1000
sg17
I2
sg18
I4
sg19
g20
sg21
g4
(g6
S'gfffff\xe6?'
tRp1065
sg23
g24
sg25
I13
sg26
F0.5
sa(dp1066
g3
g1050
sS'N'
I100
sg8
F0.98999999999999999
sg9
F0
sS'T'
I100
sg10
g13
sg14
g15
sg16
I1000
sg17
I2
sg18
I4
sg19
g20
sg21
g4
(g6
S'\x9a\x99\x99\x99\x99\x99\xe9?'
tRp1067
sg23
g24
sg25
I13
sg26
F0.5
sa(dp1068
g3
g1050
sS'N'
I100
sg8
F0.98999999999999999
sg9
F0
sS'T'
I100
sg10
g13
sg14
g15
sg16
I1000
sg17
I2
sg18
I4
sg19
g20
sg21
g4
(g6
S'\xcd\xcc\xcc\xcc\xcc\xcc\xec?'
tRp1069
sg23
g24
sg25
I13
sg26
F0.5
sa(dp1070
g3
g1050
sS'N'
I100
sg8
F0.98999999999999999
sg9
F0
sS'T'
I100
sg10
g13
sg14
g15
sg16
I1000
sg17
I2
sg18
I4
sg19
g20
sg21
g4
(g6
S'\x1f\x85\xebQ\xb8\x1e\xed?'
tRp1071
sg23
g24
sg25
I13
sg26
F0.5
sa(dp1072
g3
g1050
sS'N'
I100
sg8
F0.98999999999999999
sg9
F0
sS'T'
I100
sg10
g13
sg14
g15
sg16
I1000
sg17
I2
sg18
I4
sg19
g20
sg21
g4
(g6
S'q=\n\xd7\xa3p\xed?'
tRp1073
sg23
g24
sg25
I13
sg26
F0.5
sa(dp1074
g3
g1050
sS'N'
I100
sg8
F0.98999999999999999
sg9
F0
sS'T'
I100
sg10
g13
sg14
g15
sg16
I1000
sg17
I2
sg18
I4
sg19
g20
sg21
g4
(g6
S'\xc3\xf5(\\\x8f\xc2\xed?'
tRp1075
sg23
g24
sg25
I13
sg26
F0.5
sa(dp1076
g3
g1050
sS'N'
I100
sg8
F0.98999999999999999
sg9
F0
sS'T'
I100
sg10
g13
sg14
g15
sg16
I1000
sg17
I2
sg18
I4
sg19
g20
sg21
g4
(g6
S'\x15\xaeG\xe1z\x14\xee?'
tRp1077
sg23
g24
sg25
I13
sg26
F0.5
sa(dp1078
g3
g1050
sS'N'
I100
sg8
F0.98999999999999999
sg9
F0
sS'T'
I100
sg10
g13
sg14
g15
sg16
I1000
sg17
I2
sg18
I4
sg19
g20
sg21
g4
(g6
S'gfffff\xee?'
tRp1079
sg23
g24
sg25
I13
sg26
F0.5
sa(dp1080
g3
g1050
sS'N'
I100
sg8
F0.98999999999999999
sg9
F0
sS'T'
I100
sg10
g13
sg14
g15
sg16
I1000
sg17
I2
sg18
I4
sg19
g20
sg21
g4
(g6
S'\xb9\x1e\x85\xebQ\xb8\xee?'
tRp1081
sg23
g24
sg25
I13
sg26
F0.5
sa(dp1082
g3
g1050
sS'N'
I100
sg8
F0.98999999999999999
sg9
F0
sS'T'
I100
sg10
g13
sg14
g15
sg16
I1000
sg17
I2
sg18
I4
sg19
g20
sg21
g4
(g6
S'\x0b\xd7\xa3p=\n\xef?'
tRp1083
sg23
g24
sg25
I13
sg26
F0.5
sa(dp1084
g3
g1050
sS'N'
I100
sg8
F0.98999999999999999
sg9
F0
sS'T'
I100
sg10
g13
sg14
g15
sg16
I1000
sg17
I2
sg18
I4
sg19
g20
sg21
g4
(g6
S']\x8f\xc2\xf5(\\\xef?'
tRp1085
sg23
g24
sg25
I13
sg26
F0.5
sa(dp1086
g3
g1050
sS'N'
I100
sg8
F0.98999999999999999
sg9
F0
sS'T'
I100
sg10
g13
sg14
g15
sg16
I1000
sg17
I2
sg18
I4
sg19
g20
sg21
g4
(g6
S'\xafG\xe1z\x14\xae\xef?'
tRp1087
sg23
g24
sg25
I13
sg26
F0.5
sa(dp1088
g3
g1050
sS'N'
I100
sg8
F0.98999999999999999
sg9
F0
sS'T'
I100
sg10
g13
sg14
g15
sg16
I1000
sg17
I2
sg18
I4
sg19
g20
sg21
g4
(g6
S'\x00\x00\x00\x00\x00\x00\xf0?'
tRp1089
sg23
g24
sg25
I13
sg26
F0.5
sa(dp1090
g3
g4
(g6
S'|\xeb\xd5\x80\xa8\xcfc@'
tRp1091
sS'N'
I100
sg8
F0.98999999999999999
sg9
F0
sS'T'
I100
sg10
g13
sg14
g15
sg16
I1000
sg17
I2
sg18
I4
sg19
g20
sg21
g4
(g6
S'\x00\x00\x00\x00\x00\x00\x00\x00'
tRp1092
sg23
g24
sg25
I13
sg26
F0.5
sa(dp1093
g3
g1091
sS'N'
I100
sg8
F0.98999999999999999
sg9
F0
sS'T'
I100
sg10
g13
sg14
g15
sg16
I1000
sg17
I2
sg18
I4
sg19
g20
sg21
g4
(g6
S'\x9a\x99\x99\x99\x99\x99\xb9?'
tRp1094
sg23
g24
sg25
I13
sg26
F0.5
sa(dp1095
g3
g1091
sS'N'
I100
sg8
F0.98999999999999999
sg9
F0
sS'T'
I100
sg10
g13
sg14
g15
sg16
I1000
sg17
I2
sg18
I4
sg19
g20
sg21
g4
(g6
S'\x9a\x99\x99\x99\x99\x99\xc9?'
tRp1096
sg23
g24
sg25
I13
sg26
F0.5
sa(dp1097
g3
g1091
sS'N'
I100
sg8
F0.98999999999999999
sg9
F0
sS'T'
I100
sg10
g13
sg14
g15
sg16
I1000
sg17
I2
sg18
I4
sg19
g20
sg21
g4
(g6
S'433333\xd3?'
tRp1098
sg23
g24
sg25
I13
sg26
F0.5
sa(dp1099
g3
g1091
sS'N'
I100
sg8
F0.98999999999999999
sg9
F0
sS'T'
I100
sg10
g13
sg14
g15
sg16
I1000
sg17
I2
sg18
I4
sg19
g20
sg21
g4
(g6
S'\x9a\x99\x99\x99\x99\x99\xd9?'
tRp1100
sg23
g24
sg25
I13
sg26
F0.5
sa(dp1101
g3
g1091
sS'N'
I100
sg8
F0.98999999999999999
sg9
F0
sS'T'
I100
sg10
g13
sg14
g15
sg16
I1000
sg17
I2
sg18
I4
sg19
g20
sg21
g4
(g6
S'\x00\x00\x00\x00\x00\x00\xe0?'
tRp1102
sg23
g24
sg25
I13
sg26
F0.5
sa(dp1103
g3
g1091
sS'N'
I100
sg8
F0.98999999999999999
sg9
F0
sS'T'
I100
sg10
g13
sg14
g15
sg16
I1000
sg17
I2
sg18
I4
sg19
g20
sg21
g4
(g6
S'433333\xe3?'
tRp1104
sg23
g24
sg25
I13
sg26
F0.5
sa(dp1105
g3
g1091
sS'N'
I100
sg8
F0.98999999999999999
sg9
F0
sS'T'
I100
sg10
g13
sg14
g15
sg16
I1000
sg17
I2
sg18
I4
sg19
g20
sg21
g4
(g6
S'gfffff\xe6?'
tRp1106
sg23
g24
sg25
I13
sg26
F0.5
sa(dp1107
g3
g1091
sS'N'
I100
sg8
F0.98999999999999999
sg9
F0
sS'T'
I100
sg10
g13
sg14
g15
sg16
I1000
sg17
I2
sg18
I4
sg19
g20
sg21
g4
(g6
S'\x9a\x99\x99\x99\x99\x99\xe9?'
tRp1108
sg23
g24
sg25
I13
sg26
F0.5
sa(dp1109
g3
g1091
sS'N'
I100
sg8
F0.98999999999999999
sg9
F0
sS'T'
I100
sg10
g13
sg14
g15
sg16
I1000
sg17
I2
sg18
I4
sg19
g20
sg21
g4
(g6
S'\xcd\xcc\xcc\xcc\xcc\xcc\xec?'
tRp1110
sg23
g24
sg25
I13
sg26
F0.5
sa(dp1111
g3
g1091
sS'N'
I100
sg8
F0.98999999999999999
sg9
F0
sS'T'
I100
sg10
g13
sg14
g15
sg16
I1000
sg17
I2
sg18
I4
sg19
g20
sg21
g4
(g6
S'\x1f\x85\xebQ\xb8\x1e\xed?'
tRp1112
sg23
g24
sg25
I13
sg26
F0.5
sa(dp1113
g3
g1091
sS'N'
I100
sg8
F0.98999999999999999
sg9
F0
sS'T'
I100
sg10
g13
sg14
g15
sg16
I1000
sg17
I2
sg18
I4
sg19
g20
sg21
g4
(g6
S'q=\n\xd7\xa3p\xed?'
tRp1114
sg23
g24
sg25
I13
sg26
F0.5
sa(dp1115
g3
g1091
sS'N'
I100
sg8
F0.98999999999999999
sg9
F0
sS'T'
I100
sg10
g13
sg14
g15
sg16
I1000
sg17
I2
sg18
I4
sg19
g20
sg21
g4
(g6
S'\xc3\xf5(\\\x8f\xc2\xed?'
tRp1116
sg23
g24
sg25
I13
sg26
F0.5
sa(dp1117
g3
g1091
sS'N'
I100
sg8
F0.98999999999999999
sg9
F0
sS'T'
I100
sg10
g13
sg14
g15
sg16
I1000
sg17
I2
sg18
I4
sg19
g20
sg21
g4
(g6
S'\x15\xaeG\xe1z\x14\xee?'
tRp1118
sg23
g24
sg25
I13
sg26
F0.5
sa(dp1119
g3
g1091
sS'N'
I100
sg8
F0.98999999999999999
sg9
F0
sS'T'
I100
sg10
g13
sg14
g15
sg16
I1000
sg17
I2
sg18
I4
sg19
g20
sg21
g4
(g6
S'gfffff\xee?'
tRp1120
sg23
g24
sg25
I13
sg26
F0.5
sa(dp1121
g3
g1091
sS'N'
I100
sg8
F0.98999999999999999
sg9
F0
sS'T'
I100
sg10
g13
sg14
g15
sg16
I1000
sg17
I2
sg18
I4
sg19
g20
sg21
g4
(g6
S'\xb9\x1e\x85\xebQ\xb8\xee?'
tRp1122
sg23
g24
sg25
I13
sg26
F0.5
sa(dp1123
g3
g1091
sS'N'
I100
sg8
F0.98999999999999999
sg9
F0
sS'T'
I100
sg10
g13
sg14
g15
sg16
I1000
sg17
I2
sg18
I4
sg19
g20
sg21
g4
(g6
S'\x0b\xd7\xa3p=\n\xef?'
tRp1124
sg23
g24
sg25
I13
sg26
F0.5
sa(dp1125
g3
g1091
sS'N'
I100
sg8
F0.98999999999999999
sg9
F0
sS'T'
I100
sg10
g13
sg14
g15
sg16
I1000
sg17
I2
sg18
I4
sg19
g20
sg21
g4
(g6
S']\x8f\xc2\xf5(\\\xef?'
tRp1126
sg23
g24
sg25
I13
sg26
F0.5
sa(dp1127
g3
g1091
sS'N'
I100
sg8
F0.98999999999999999
sg9
F0
sS'T'
I100
sg10
g13
sg14
g15
sg16
I1000
sg17
I2
sg18
I4
sg19
g20
sg21
g4
(g6
S'\xafG\xe1z\x14\xae\xef?'
tRp1128
sg23
g24
sg25
I13
sg26
F0.5
sa(dp1129
g3
g1091
sS'N'
I100
sg8
F0.98999999999999999
sg9
F0
sS'T'
I100
sg10
g13
sg14
g15
sg16
I1000
sg17
I2
sg18
I4
sg19
g20
sg21
g4
(g6
S'\x00\x00\x00\x00\x00\x00\xf0?'
tRp1130
sg23
g24
sg25
I13
sg26
F0.5
sa(dp1131
g3
g4
(g6
S'\xb6\x7f\\]\tfo@'
tRp1132
sS'N'
I100
sg8
F0.98999999999999999
sg9
F0
sS'T'
I100
sg10
g13
sg14
g15
sg16
I1000
sg17
I2
sg18
I4
sg19
g20
sg21
g4
(g6
S'\x00\x00\x00\x00\x00\x00\x00\x00'
tRp1133
sg23
g24
sg25
I13
sg26
F0.5
sa(dp1134
g3
g1132
sS'N'
I100
sg8
F0.98999999999999999
sg9
F0
sS'T'
I100
sg10
g13
sg14
g15
sg16
I1000
sg17
I2
sg18
I4
sg19
g20
sg21
g4
(g6
S'\x9a\x99\x99\x99\x99\x99\xb9?'
tRp1135
sg23
g24
sg25
I13
sg26
F0.5
sa(dp1136
g3
g1132
sS'N'
I100
sg8
F0.98999999999999999
sg9
F0
sS'T'
I100
sg10
g13
sg14
g15
sg16
I1000
sg17
I2
sg18
I4
sg19
g20
sg21
g4
(g6
S'\x9a\x99\x99\x99\x99\x99\xc9?'
tRp1137
sg23
g24
sg25
I13
sg26
F0.5
sa(dp1138
g3
g1132
sS'N'
I100
sg8
F0.98999999999999999
sg9
F0
sS'T'
I100
sg10
g13
sg14
g15
sg16
I1000
sg17
I2
sg18
I4
sg19
g20
sg21
g4
(g6
S'433333\xd3?'
tRp1139
sg23
g24
sg25
I13
sg26
F0.5
sa(dp1140
g3
g1132
sS'N'
I100
sg8
F0.98999999999999999
sg9
F0
sS'T'
I100
sg10
g13
sg14
g15
sg16
I1000
sg17
I2
sg18
I4
sg19
g20
sg21
g4
(g6
S'\x9a\x99\x99\x99\x99\x99\xd9?'
tRp1141
sg23
g24
sg25
I13
sg26
F0.5
sa(dp1142
g3
g1132
sS'N'
I100
sg8
F0.98999999999999999
sg9
F0
sS'T'
I100
sg10
g13
sg14
g15
sg16
I1000
sg17
I2
sg18
I4
sg19
g20
sg21
g4
(g6
S'\x00\x00\x00\x00\x00\x00\xe0?'
tRp1143
sg23
g24
sg25
I13
sg26
F0.5
sa(dp1144
g3
g1132
sS'N'
I100
sg8
F0.98999999999999999
sg9
F0
sS'T'
I100
sg10
g13
sg14
g15
sg16
I1000
sg17
I2
sg18
I4
sg19
g20
sg21
g4
(g6
S'433333\xe3?'
tRp1145
sg23
g24
sg25
I13
sg26
F0.5
sa(dp1146
g3
g1132
sS'N'
I100
sg8
F0.98999999999999999
sg9
F0
sS'T'
I100
sg10
g13
sg14
g15
sg16
I1000
sg17
I2
sg18
I4
sg19
g20
sg21
g4
(g6
S'gfffff\xe6?'
tRp1147
sg23
g24
sg25
I13
sg26
F0.5
sa(dp1148
g3
g1132
sS'N'
I100
sg8
F0.98999999999999999
sg9
F0
sS'T'
I100
sg10
g13
sg14
g15
sg16
I1000
sg17
I2
sg18
I4
sg19
g20
sg21
g4
(g6
S'\x9a\x99\x99\x99\x99\x99\xe9?'
tRp1149
sg23
g24
sg25
I13
sg26
F0.5
sa(dp1150
g3
g1132
sS'N'
I100
sg8
F0.98999999999999999
sg9
F0
sS'T'
I100
sg10
g13
sg14
g15
sg16
I1000
sg17
I2
sg18
I4
sg19
g20
sg21
g4
(g6
S'\xcd\xcc\xcc\xcc\xcc\xcc\xec?'
tRp1151
sg23
g24
sg25
I13
sg26
F0.5
sa(dp1152
g3
g1132
sS'N'
I100
sg8
F0.98999999999999999
sg9
F0
sS'T'
I100
sg10
g13
sg14
g15
sg16
I1000
sg17
I2
sg18
I4
sg19
g20
sg21
g4
(g6
S'\x1f\x85\xebQ\xb8\x1e\xed?'
tRp1153
sg23
g24
sg25
I13
sg26
F0.5
sa(dp1154
g3
g1132
sS'N'
I100
sg8
F0.98999999999999999
sg9
F0
sS'T'
I100
sg10
g13
sg14
g15
sg16
I1000
sg17
I2
sg18
I4
sg19
g20
sg21
g4
(g6
S'q=\n\xd7\xa3p\xed?'
tRp1155
sg23
g24
sg25
I13
sg26
F0.5
sa(dp1156
g3
g1132
sS'N'
I100
sg8
F0.98999999999999999
sg9
F0
sS'T'
I100
sg10
g13
sg14
g15
sg16
I1000
sg17
I2
sg18
I4
sg19
g20
sg21
g4
(g6
S'\xc3\xf5(\\\x8f\xc2\xed?'
tRp1157
sg23
g24
sg25
I13
sg26
F0.5
sa(dp1158
g3
g1132
sS'N'
I100
sg8
F0.98999999999999999
sg9
F0
sS'T'
I100
sg10
g13
sg14
g15
sg16
I1000
sg17
I2
sg18
I4
sg19
g20
sg21
g4
(g6
S'\x15\xaeG\xe1z\x14\xee?'
tRp1159
sg23
g24
sg25
I13
sg26
F0.5
sa(dp1160
g3
g1132
sS'N'
I100
sg8
F0.98999999999999999
sg9
F0
sS'T'
I100
sg10
g13
sg14
g15
sg16
I1000
sg17
I2
sg18
I4
sg19
g20
sg21
g4
(g6
S'gfffff\xee?'
tRp1161
sg23
g24
sg25
I13
sg26
F0.5
sa(dp1162
g3
g1132
sS'N'
I100
sg8
F0.98999999999999999
sg9
F0
sS'T'
I100
sg10
g13
sg14
g15
sg16
I1000
sg17
I2
sg18
I4
sg19
g20
sg21
g4
(g6
S'\xb9\x1e\x85\xebQ\xb8\xee?'
tRp1163
sg23
g24
sg25
I13
sg26
F0.5
sa(dp1164
g3
g1132
sS'N'
I100
sg8
F0.98999999999999999
sg9
F0
sS'T'
I100
sg10
g13
sg14
g15
sg16
I1000
sg17
I2
sg18
I4
sg19
g20
sg21
g4
(g6
S'\x0b\xd7\xa3p=\n\xef?'
tRp1165
sg23
g24
sg25
I13
sg26
F0.5
sa(dp1166
g3
g1132
sS'N'
I100
sg8
F0.98999999999999999
sg9
F0
sS'T'
I100
sg10
g13
sg14
g15
sg16
I1000
sg17
I2
sg18
I4
sg19
g20
sg21
g4
(g6
S']\x8f\xc2\xf5(\\\xef?'
tRp1167
sg23
g24
sg25
I13
sg26
F0.5
sa(dp1168
g3
g1132
sS'N'
I100
sg8
F0.98999999999999999
sg9
F0
sS'T'
I100
sg10
g13
sg14
g15
sg16
I1000
sg17
I2
sg18
I4
sg19
g20
sg21
g4
(g6
S'\xafG\xe1z\x14\xae\xef?'
tRp1169
sg23
g24
sg25
I13
sg26
F0.5
sa(dp1170
g3
g1132
sS'N'
I100
sg8
F0.98999999999999999
sg9
F0
sS'T'
I100
sg10
g13
sg14
g15
sg16
I1000
sg17
I2
sg18
I4
sg19
g20
sg21
g4
(g6
S'\x00\x00\x00\x00\x00\x00\xf0?'
tRp1171
sg23
g24
sg25
I13
sg26
F0.5
sa(dp1172
g3
g4
(g6
S"'fx\xf8\xb6\xe1x@"
tRp1173
sS'N'
I100
sg8
F0.98999999999999999
sg9
F0
sS'T'
I100
sg10
g13
sg14
g15
sg16
I1000
sg17
I2
sg18
I4
sg19
g20
sg21
g4
(g6
S'\x00\x00\x00\x00\x00\x00\x00\x00'
tRp1174
sg23
g24
sg25
I13
sg26
F0.5
sa(dp1175
g3
g1173
sS'N'
I100
sg8
F0.98999999999999999
sg9
F0
sS'T'
I100
sg10
g13
sg14
g15
sg16
I1000
sg17
I2
sg18
I4
sg19
g20
sg21
g4
(g6
S'\x9a\x99\x99\x99\x99\x99\xb9?'
tRp1176
sg23
g24
sg25
I13
sg26
F0.5
sa(dp1177
g3
g1173
sS'N'
I100
sg8
F0.98999999999999999
sg9
F0
sS'T'
I100
sg10
g13
sg14
g15
sg16
I1000
sg17
I2
sg18
I4
sg19
g20
sg21
g4
(g6
S'\x9a\x99\x99\x99\x99\x99\xc9?'
tRp1178
sg23
g24
sg25
I13
sg26
F0.5
sa(dp1179
g3
g1173
sS'N'
I100
sg8
F0.98999999999999999
sg9
F0
sS'T'
I100
sg10
g13
sg14
g15
sg16
I1000
sg17
I2
sg18
I4
sg19
g20
sg21
g4
(g6
S'433333\xd3?'
tRp1180
sg23
g24
sg25
I13
sg26
F0.5
sa(dp1181
g3
g1173
sS'N'
I100
sg8
F0.98999999999999999
sg9
F0
sS'T'
I100
sg10
g13
sg14
g15
sg16
I1000
sg17
I2
sg18
I4
sg19
g20
sg21
g4
(g6
S'\x9a\x99\x99\x99\x99\x99\xd9?'
tRp1182
sg23
g24
sg25
I13
sg26
F0.5
sa(dp1183
g3
g1173
sS'N'
I100
sg8
F0.98999999999999999
sg9
F0
sS'T'
I100
sg10
g13
sg14
g15
sg16
I1000
sg17
I2
sg18
I4
sg19
g20
sg21
g4
(g6
S'\x00\x00\x00\x00\x00\x00\xe0?'
tRp1184
sg23
g24
sg25
I13
sg26
F0.5
sa(dp1185
g3
g1173
sS'N'
I100
sg8
F0.98999999999999999
sg9
F0
sS'T'
I100
sg10
g13
sg14
g15
sg16
I1000
sg17
I2
sg18
I4
sg19
g20
sg21
g4
(g6
S'433333\xe3?'
tRp1186
sg23
g24
sg25
I13
sg26
F0.5
sa(dp1187
g3
g1173
sS'N'
I100
sg8
F0.98999999999999999
sg9
F0
sS'T'
I100
sg10
g13
sg14
g15
sg16
I1000
sg17
I2
sg18
I4
sg19
g20
sg21
g4
(g6
S'gfffff\xe6?'
tRp1188
sg23
g24
sg25
I13
sg26
F0.5
sa(dp1189
g3
g1173
sS'N'
I100
sg8
F0.98999999999999999
sg9
F0
sS'T'
I100
sg10
g13
sg14
g15
sg16
I1000
sg17
I2
sg18
I4
sg19
g20
sg21
g4
(g6
S'\x9a\x99\x99\x99\x99\x99\xe9?'
tRp1190
sg23
g24
sg25
I13
sg26
F0.5
sa(dp1191
g3
g1173
sS'N'
I100
sg8
F0.98999999999999999
sg9
F0
sS'T'
I100
sg10
g13
sg14
g15
sg16
I1000
sg17
I2
sg18
I4
sg19
g20
sg21
g4
(g6
S'\xcd\xcc\xcc\xcc\xcc\xcc\xec?'
tRp1192
sg23
g24
sg25
I13
sg26
F0.5
sa(dp1193
g3
g1173
sS'N'
I100
sg8
F0.98999999999999999
sg9
F0
sS'T'
I100
sg10
g13
sg14
g15
sg16
I1000
sg17
I2
sg18
I4
sg19
g20
sg21
g4
(g6
S'\x1f\x85\xebQ\xb8\x1e\xed?'
tRp1194
sg23
g24
sg25
I13
sg26
F0.5
sa(dp1195
g3
g1173
sS'N'
I100
sg8
F0.98999999999999999
sg9
F0
sS'T'
I100
sg10
g13
sg14
g15
sg16
I1000
sg17
I2
sg18
I4
sg19
g20
sg21
g4
(g6
S'q=\n\xd7\xa3p\xed?'
tRp1196
sg23
g24
sg25
I13
sg26
F0.5
sa(dp1197
g3
g1173
sS'N'
I100
sg8
F0.98999999999999999
sg9
F0
sS'T'
I100
sg10
g13
sg14
g15
sg16
I1000
sg17
I2
sg18
I4
sg19
g20
sg21
g4
(g6
S'\xc3\xf5(\\\x8f\xc2\xed?'
tRp1198
sg23
g24
sg25
I13
sg26
F0.5
sa(dp1199
g3
g1173
sS'N'
I100
sg8
F0.98999999999999999
sg9
F0
sS'T'
I100
sg10
g13
sg14
g15
sg16
I1000
sg17
I2
sg18
I4
sg19
g20
sg21
g4
(g6
S'\x15\xaeG\xe1z\x14\xee?'
tRp1200
sg23
g24
sg25
I13
sg26
F0.5
sa(dp1201
g3
g1173
sS'N'
I100
sg8
F0.98999999999999999
sg9
F0
sS'T'
I100
sg10
g13
sg14
g15
sg16
I1000
sg17
I2
sg18
I4
sg19
g20
sg21
g4
(g6
S'gfffff\xee?'
tRp1202
sg23
g24
sg25
I13
sg26
F0.5
sa(dp1203
g3
g1173
sS'N'
I100
sg8
F0.98999999999999999
sg9
F0
sS'T'
I100
sg10
g13
sg14
g15
sg16
I1000
sg17
I2
sg18
I4
sg19
g20
sg21
g4
(g6
S'\xb9\x1e\x85\xebQ\xb8\xee?'
tRp1204
sg23
g24
sg25
I13
sg26
F0.5
sa(dp1205
g3
g1173
sS'N'
I100
sg8
F0.98999999999999999
sg9
F0
sS'T'
I100
sg10
g13
sg14
g15
sg16
I1000
sg17
I2
sg18
I4
sg19
g20
sg21
g4
(g6
S'\x0b\xd7\xa3p=\n\xef?'
tRp1206
sg23
g24
sg25
I13
sg26
F0.5
sa(dp1207
g3
g1173
sS'N'
I100
sg8
F0.98999999999999999
sg9
F0
sS'T'
I100
sg10
g13
sg14
g15
sg16
I1000
sg17
I2
sg18
I4
sg19
g20
sg21
g4
(g6
S']\x8f\xc2\xf5(\\\xef?'
tRp1208
sg23
g24
sg25
I13
sg26
F0.5
sa(dp1209
g3
g1173
sS'N'
I100
sg8
F0.98999999999999999
sg9
F0
sS'T'
I100
sg10
g13
sg14
g15
sg16
I1000
sg17
I2
sg18
I4
sg19
g20
sg21
g4
(g6
S'\xafG\xe1z\x14\xae\xef?'
tRp1210
sg23
g24
sg25
I13
sg26
F0.5
sa(dp1211
g3
g1173
sS'N'
I100
sg8
F0.98999999999999999
sg9
F0
sS'T'
I100
sg10
g13
sg14
g15
sg16
I1000
sg17
I2
sg18
I4
sg19
g20
sg21
g4
(g6
S'\x00\x00\x00\x00\x00\x00\xf0?'
tRp1212
sg23
g24
sg25
I13
sg26
F0.5
sa(dp1213
g3
g4
(g6
S'\xbf\x0b9\xa4\xa8\xb7\x83@'
tRp1214
sS'N'
I100
sg8
F0.98999999999999999
sg9
F0
sS'T'
I100
sg10
g13
sg14
g15
sg16
I1000
sg17
I2
sg18
I4
sg19
g20
sg21
g4
(g6
S'\x00\x00\x00\x00\x00\x00\x00\x00'
tRp1215
sg23
g24
sg25
I13
sg26
F0.5
sa(dp1216
g3
g1214
sS'N'
I100
sg8
F0.98999999999999999
sg9
F0
sS'T'
I100
sg10
g13
sg14
g15
sg16
I1000
sg17
I2
sg18
I4
sg19
g20
sg21
g4
(g6
S'\x9a\x99\x99\x99\x99\x99\xb9?'
tRp1217
sg23
g24
sg25
I13
sg26
F0.5
sa(dp1218
g3
g1214
sS'N'
I100
sg8
F0.98999999999999999
sg9
F0
sS'T'
I100
sg10
g13
sg14
g15
sg16
I1000
sg17
I2
sg18
I4
sg19
g20
sg21
g4
(g6
S'\x9a\x99\x99\x99\x99\x99\xc9?'
tRp1219
sg23
g24
sg25
I13
sg26
F0.5
sa(dp1220
g3
g1214
sS'N'
I100
sg8
F0.98999999999999999
sg9
F0
sS'T'
I100
sg10
g13
sg14
g15
sg16
I1000
sg17
I2
sg18
I4
sg19
g20
sg21
g4
(g6
S'433333\xd3?'
tRp1221
sg23
g24
sg25
I13
sg26
F0.5
sa(dp1222
g3
g1214
sS'N'
I100
sg8
F0.98999999999999999
sg9
F0
sS'T'
I100
sg10
g13
sg14
g15
sg16
I1000
sg17
I2
sg18
I4
sg19
g20
sg21
g4
(g6
S'\x9a\x99\x99\x99\x99\x99\xd9?'
tRp1223
sg23
g24
sg25
I13
sg26
F0.5
sa(dp1224
g3
g1214
sS'N'
I100
sg8
F0.98999999999999999
sg9
F0
sS'T'
I100
sg10
g13
sg14
g15
sg16
I1000
sg17
I2
sg18
I4
sg19
g20
sg21
g4
(g6
S'\x00\x00\x00\x00\x00\x00\xe0?'
tRp1225
sg23
g24
sg25
I13
sg26
F0.5
sa(dp1226
g3
g1214
sS'N'
I100
sg8
F0.98999999999999999
sg9
F0
sS'T'
I100
sg10
g13
sg14
g15
sg16
I1000
sg17
I2
sg18
I4
sg19
g20
sg21
g4
(g6
S'433333\xe3?'
tRp1227
sg23
g24
sg25
I13
sg26
F0.5
sa(dp1228
g3
g1214
sS'N'
I100
sg8
F0.98999999999999999
sg9
F0
sS'T'
I100
sg10
g13
sg14
g15
sg16
I1000
sg17
I2
sg18
I4
sg19
g20
sg21
g4
(g6
S'gfffff\xe6?'
tRp1229
sg23
g24
sg25
I13
sg26
F0.5
sa(dp1230
g3
g1214
sS'N'
I100
sg8
F0.98999999999999999
sg9
F0
sS'T'
I100
sg10
g13
sg14
g15
sg16
I1000
sg17
I2
sg18
I4
sg19
g20
sg21
g4
(g6
S'\x9a\x99\x99\x99\x99\x99\xe9?'
tRp1231
sg23
g24
sg25
I13
sg26
F0.5
sa(dp1232
g3
g1214
sS'N'
I100
sg8
F0.98999999999999999
sg9
F0
sS'T'
I100
sg10
g13
sg14
g15
sg16
I1000
sg17
I2
sg18
I4
sg19
g20
sg21
g4
(g6
S'\xcd\xcc\xcc\xcc\xcc\xcc\xec?'
tRp1233
sg23
g24
sg25
I13
sg26
F0.5
sa(dp1234
g3
g1214
sS'N'
I100
sg8
F0.98999999999999999
sg9
F0
sS'T'
I100
sg10
g13
sg14
g15
sg16
I1000
sg17
I2
sg18
I4
sg19
g20
sg21
g4
(g6
S'\x1f\x85\xebQ\xb8\x1e\xed?'
tRp1235
sg23
g24
sg25
I13
sg26
F0.5
sa(dp1236
g3
g1214
sS'N'
I100
sg8
F0.98999999999999999
sg9
F0
sS'T'
I100
sg10
g13
sg14
g15
sg16
I1000
sg17
I2
sg18
I4
sg19
g20
sg21
g4
(g6
S'q=\n\xd7\xa3p\xed?'
tRp1237
sg23
g24
sg25
I13
sg26
F0.5
sa(dp1238
g3
g1214
sS'N'
I100
sg8
F0.98999999999999999
sg9
F0
sS'T'
I100
sg10
g13
sg14
g15
sg16
I1000
sg17
I2
sg18
I4
sg19
g20
sg21
g4
(g6
S'\xc3\xf5(\\\x8f\xc2\xed?'
tRp1239
sg23
g24
sg25
I13
sg26
F0.5
sa(dp1240
g3
g1214
sS'N'
I100
sg8
F0.98999999999999999
sg9
F0
sS'T'
I100
sg10
g13
sg14
g15
sg16
I1000
sg17
I2
sg18
I4
sg19
g20
sg21
g4
(g6
S'\x15\xaeG\xe1z\x14\xee?'
tRp1241
sg23
g24
sg25
I13
sg26
F0.5
sa(dp1242
g3
g1214
sS'N'
I100
sg8
F0.98999999999999999
sg9
F0
sS'T'
I100
sg10
g13
sg14
g15
sg16
I1000
sg17
I2
sg18
I4
sg19
g20
sg21
g4
(g6
S'gfffff\xee?'
tRp1243
sg23
g24
sg25
I13
sg26
F0.5
sa(dp1244
g3
g1214
sS'N'
I100
sg8
F0.98999999999999999
sg9
F0
sS'T'
I100
sg10
g13
sg14
g15
sg16
I1000
sg17
I2
sg18
I4
sg19
g20
sg21
g4
(g6
S'\xb9\x1e\x85\xebQ\xb8\xee?'
tRp1245
sg23
g24
sg25
I13
sg26
F0.5
sa(dp1246
g3
g1214
sS'N'
I100
sg8
F0.98999999999999999
sg9
F0
sS'T'
I100
sg10
g13
sg14
g15
sg16
I1000
sg17
I2
sg18
I4
sg19
g20
sg21
g4
(g6
S'\x0b\xd7\xa3p=\n\xef?'
tRp1247
sg23
g24
sg25
I13
sg26
F0.5
sa(dp1248
g3
g1214
sS'N'
I100
sg8
F0.98999999999999999
sg9
F0
sS'T'
I100
sg10
g13
sg14
g15
sg16
I1000
sg17
I2
sg18
I4
sg19
g20
sg21
g4
(g6
S']\x8f\xc2\xf5(\\\xef?'
tRp1249
sg23
g24
sg25
I13
sg26
F0.5
sa(dp1250
g3
g1214
sS'N'
I100
sg8
F0.98999999999999999
sg9
F0
sS'T'
I100
sg10
g13
sg14
g15
sg16
I1000
sg17
I2
sg18
I4
sg19
g20
sg21
g4
(g6
S'\xafG\xe1z\x14\xae\xef?'
tRp1251
sg23
g24
sg25
I13
sg26
F0.5
sa(dp1252
g3
g1214
sS'N'
I100
sg8
F0.98999999999999999
sg9
F0
sS'T'
I100
sg10
g13
sg14
g15
sg16
I1000
sg17
I2
sg18
I4
sg19
g20
sg21
g4
(g6
S'\x00\x00\x00\x00\x00\x00\xf0?'
tRp1253
sg23
g24
sg25
I13
sg26
F0.5
sa(dp1254
g3
g4
(g6
S'l\x00\x00\x00\x00@\x8f@'
tRp1255
sS'N'
I100
sg8
F0.98999999999999999
sg9
F0
sS'T'
I100
sg10
g13
sg14
g15
sg16
I1000
sg17
I2
sg18
I4
sg19
g20
sg21
g4
(g6
S'\x00\x00\x00\x00\x00\x00\x00\x00'
tRp1256
sg23
g24
sg25
I13
sg26
F0.5
sa(dp1257
g3
g1255
sS'N'
I100
sg8
F0.98999999999999999
sg9
F0
sS'T'
I100
sg10
g13
sg14
g15
sg16
I1000
sg17
I2
sg18
I4
sg19
g20
sg21
g4
(g6
S'\x9a\x99\x99\x99\x99\x99\xb9?'
tRp1258
sg23
g24
sg25
I13
sg26
F0.5
sa(dp1259
g3
g1255
sS'N'
I100
sg8
F0.98999999999999999
sg9
F0
sS'T'
I100
sg10
g13
sg14
g15
sg16
I1000
sg17
I2
sg18
I4
sg19
g20
sg21
g4
(g6
S'\x9a\x99\x99\x99\x99\x99\xc9?'
tRp1260
sg23
g24
sg25
I13
sg26
F0.5
sa(dp1261
g3
g1255
sS'N'
I100
sg8
F0.98999999999999999
sg9
F0
sS'T'
I100
sg10
g13
sg14
g15
sg16
I1000
sg17
I2
sg18
I4
sg19
g20
sg21
g4
(g6
S'433333\xd3?'
tRp1262
sg23
g24
sg25
I13
sg26
F0.5
sa(dp1263
g3
g1255
sS'N'
I100
sg8
F0.98999999999999999
sg9
F0
sS'T'
I100
sg10
g13
sg14
g15
sg16
I1000
sg17
I2
sg18
I4
sg19
g20
sg21
g4
(g6
S'\x9a\x99\x99\x99\x99\x99\xd9?'
tRp1264
sg23
g24
sg25
I13
sg26
F0.5
sa(dp1265
g3
g1255
sS'N'
I100
sg8
F0.98999999999999999
sg9
F0
sS'T'
I100
sg10
g13
sg14
g15
sg16
I1000
sg17
I2
sg18
I4
sg19
g20
sg21
g4
(g6
S'\x00\x00\x00\x00\x00\x00\xe0?'
tRp1266
sg23
g24
sg25
I13
sg26
F0.5
sa(dp1267
g3
g1255
sS'N'
I100
sg8
F0.98999999999999999
sg9
F0
sS'T'
I100
sg10
g13
sg14
g15
sg16
I1000
sg17
I2
sg18
I4
sg19
g20
sg21
g4
(g6
S'433333\xe3?'
tRp1268
sg23
g24
sg25
I13
sg26
F0.5
sa(dp1269
g3
g1255
sS'N'
I100
sg8
F0.98999999999999999
sg9
F0
sS'T'
I100
sg10
g13
sg14
g15
sg16
I1000
sg17
I2
sg18
I4
sg19
g20
sg21
g4
(g6
S'gfffff\xe6?'
tRp1270
sg23
g24
sg25
I13
sg26
F0.5
sa(dp1271
g3
g1255
sS'N'
I100
sg8
F0.98999999999999999
sg9
F0
sS'T'
I100
sg10
g13
sg14
g15
sg16
I1000
sg17
I2
sg18
I4
sg19
g20
sg21
g4
(g6
S'\x9a\x99\x99\x99\x99\x99\xe9?'
tRp1272
sg23
g24
sg25
I13
sg26
F0.5
sa(dp1273
g3
g1255
sS'N'
I100
sg8
F0.98999999999999999
sg9
F0
sS'T'
I100
sg10
g13
sg14
g15
sg16
I1000
sg17
I2
sg18
I4
sg19
g20
sg21
g4
(g6
S'\xcd\xcc\xcc\xcc\xcc\xcc\xec?'
tRp1274
sg23
g24
sg25
I13
sg26
F0.5
sa(dp1275
g3
g1255
sS'N'
I100
sg8
F0.98999999999999999
sg9
F0
sS'T'
I100
sg10
g13
sg14
g15
sg16
I1000
sg17
I2
sg18
I4
sg19
g20
sg21
g4
(g6
S'\x1f\x85\xebQ\xb8\x1e\xed?'
tRp1276
sg23
g24
sg25
I13
sg26
F0.5
sa(dp1277
g3
g1255
sS'N'
I100
sg8
F0.98999999999999999
sg9
F0
sS'T'
I100
sg10
g13
sg14
g15
sg16
I1000
sg17
I2
sg18
I4
sg19
g20
sg21
g4
(g6
S'q=\n\xd7\xa3p\xed?'
tRp1278
sg23
g24
sg25
I13
sg26
F0.5
sa(dp1279
g3
g1255
sS'N'
I100
sg8
F0.98999999999999999
sg9
F0
sS'T'
I100
sg10
g13
sg14
g15
sg16
I1000
sg17
I2
sg18
I4
sg19
g20
sg21
g4
(g6
S'\xc3\xf5(\\\x8f\xc2\xed?'
tRp1280
sg23
g24
sg25
I13
sg26
F0.5
sa(dp1281
g3
g1255
sS'N'
I100
sg8
F0.98999999999999999
sg9
F0
sS'T'
I100
sg10
g13
sg14
g15
sg16
I1000
sg17
I2
sg18
I4
sg19
g20
sg21
g4
(g6
S'\x15\xaeG\xe1z\x14\xee?'
tRp1282
sg23
g24
sg25
I13
sg26
F0.5
sa(dp1283
g3
g1255
sS'N'
I100
sg8
F0.98999999999999999
sg9
F0
sS'T'
I100
sg10
g13
sg14
g15
sg16
I1000
sg17
I2
sg18
I4
sg19
g20
sg21
g4
(g6
S'gfffff\xee?'
tRp1284
sg23
g24
sg25
I13
sg26
F0.5
sa(dp1285
g3
g1255
sS'N'
I100
sg8
F0.98999999999999999
sg9
F0
sS'T'
I100
sg10
g13
sg14
g15
sg16
I1000
sg17
I2
sg18
I4
sg19
g20
sg21
g4
(g6
S'\xb9\x1e\x85\xebQ\xb8\xee?'
tRp1286
sg23
g24
sg25
I13
sg26
F0.5
sa(dp1287
g3
g1255
sS'N'
I100
sg8
F0.98999999999999999
sg9
F0
sS'T'
I100
sg10
g13
sg14
g15
sg16
I1000
sg17
I2
sg18
I4
sg19
g20
sg21
g4
(g6
S'\x0b\xd7\xa3p=\n\xef?'
tRp1288
sg23
g24
sg25
I13
sg26
F0.5
sa(dp1289
g3
g1255
sS'N'
I100
sg8
F0.98999999999999999
sg9
F0
sS'T'
I100
sg10
g13
sg14
g15
sg16
I1000
sg17
I2
sg18
I4
sg19
g20
sg21
g4
(g6
S']\x8f\xc2\xf5(\\\xef?'
tRp1290
sg23
g24
sg25
I13
sg26
F0.5
sa(dp1291
g3
g1255
sS'N'
I100
sg8
F0.98999999999999999
sg9
F0
sS'T'
I100
sg10
g13
sg14
g15
sg16
I1000
sg17
I2
sg18
I4
sg19
g20
sg21
g4
(g6
S'\xafG\xe1z\x14\xae\xef?'
tRp1292
sg23
g24
sg25
I13
sg26
F0.5
sa(dp1293
g3
g1255
sS'N'
I100
sg8
F0.98999999999999999
sg9
F0
sS'T'
I100
sg10
g13
sg14
g15
sg16
I1000
sg17
I2
sg18
I4
sg19
g20
sg21
g4
(g6
S'\x00\x00\x00\x00\x00\x00\xf0?'
tRp1294
sg23
g24
sg25
I13
sg26
F0.5
sa.