(lp1
(dp2
S'mright'
p3
F0.5
sS'N'
I10
sS'pright'
p4
F0.98999999999999999
sS'beta'
p5
cnumpy.core.multiarray
scalar
p6
(cnumpy
dtype
p7
(S'f8'
I0
I1
tRp8
(I3
S'<'
NNNI-1
I-1
I0
tbS'\x00\x00\x00\x00\x00\x00\x00\x00'
tRp9
sS'inits'
p10
I6
sS'algname'
p11
S'gtd'
p12
sS'alpha'
p13
g6
(g8
S'\x00\x00\x00\x00\x00\x00\x00\x00'
tRp14
sS'nf'
p15
I11
sS'ftype'
p16
S'tabular'
p17
sS'ns'
p18
I13
sS'gamma'
p19
F1
sS'lambda'
p20
g6
(g8
S'\x00\x00\x00\x00\x00\x00\x00\x00'
tRp21
sa(dp22
g3
F0.5
sS'N'
I10
sg4
F0.98999999999999999
sg5
g9
sg10
I6
sg11
g12
sg13
g14
sg15
I11
sg16
g17
sg18
I13
sg19
F1
sg20
g6
(g8
S'\x9a\x99\x99\x99\x99\x99\xb9?'
tRp23
sa(dp24
g3
F0.5
sS'N'
I10
sg4
F0.98999999999999999
sg5
g6
(g8
S'\x9a\x99\x99\x99\x99\x99\xb9?'
tRp25
sg10
I6
sg11
g12
sg13
g14
sg15
I11
sg16
g17
sg18
I13
sg19
F1
sg20
g6
(g8
S'\x00\x00\x00\x00\x00\x00\x00\x00'
tRp26
sa(dp27
g3
F0.5
sS'N'
I10
sg4
F0.98999999999999999
sg5
g25
sg10
I6
sg11
g12
sg13
g14
sg15
I11
sg16
g17
sg18
I13
sg19
F1
sg20
g6
(g8
S'\x9a\x99\x99\x99\x99\x99\xb9?'
tRp28
sa(dp29
g3
F0.5
sS'N'
I10
sg4
F0.98999999999999999
sg5
g6
(g8
S'\x00\x00\x00\x00\x00\x00\xf0?'
tRp30
sg10
I6
sg11
g12
sg13
g14
sg15
I11
sg16
g17
sg18
I13
sg19
F1
sg20
g6
(g8
S'\x00\x00\x00\x00\x00\x00\x00\x00'
tRp31
sa(dp32
g3
F0.5
sS'N'
I10
sg4
F0.98999999999999999
sg5
g30
sg10
I6
sg11
g12
sg13
g14
sg15
I11
sg16
g17
sg18
I13
sg19
F1
sg20
g6
(g8
S'\x9a\x99\x99\x99\x99\x99\xb9?'
tRp33
sa(dp34
g3
F0.5
sS'N'
I10
sg4
F0.98999999999999999
sg5
g6
(g8
S'\x00\x00\x00\x00\x00\x00\x00\x00'
tRp35
sg10
I6
sg11
g12
sg13
g6
(g8
S'\x9a\x99\x99\x99\x99\x99\xb9?'
tRp36
sg15
I11
sg16
g17
sg18
I13
sg19
F1
sg20
g6
(g8
S'\x00\x00\x00\x00\x00\x00\x00\x00'
tRp37
sa(dp38
g3
F0.5
sS'N'
I10
sg4
F0.98999999999999999
sg5
g35
sg10
I6
sg11
g12
sg13
g36
sg15
I11
sg16
g17
sg18
I13
sg19
F1
sg20
g6
(g8
S'\x9a\x99\x99\x99\x99\x99\xb9?'
tRp39
sa(dp40
g3
F0.5
sS'N'
I10
sg4
F0.98999999999999999
sg5
g6
(g8
S'\x9a\x99\x99\x99\x99\x99\xb9?'
tRp41
sg10
I6
sg11
g12
sg13
g36
sg15
I11
sg16
g17
sg18
I13
sg19
F1
sg20
g6
(g8
S'\x00\x00\x00\x00\x00\x00\x00\x00'
tRp42
sa(dp43
g3
F0.5
sS'N'
I10
sg4
F0.98999999999999999
sg5
g41
sg10
I6
sg11
g12
sg13
g36
sg15
I11
sg16
g17
sg18
I13
sg19
F1
sg20
g6
(g8
S'\x9a\x99\x99\x99\x99\x99\xb9?'
tRp44
sa(dp45
g3
F0.5
sS'N'
I10
sg4
F0.98999999999999999
sg5
g6
(g8
S'\x00\x00\x00\x00\x00\x00\xf0?'
tRp46
sg10
I6
sg11
g12
sg13
g36
sg15
I11
sg16
g17
sg18
I13
sg19
F1
sg20
g6
(g8
S'\x00\x00\x00\x00\x00\x00\x00\x00'
tRp47
sa(dp48
g3
F0.5
sS'N'
I10
sg4
F0.98999999999999999
sg5
g46
sg10
I6
sg11
g12
sg13
g36
sg15
I11
sg16
g17
sg18
I13
sg19
F1
sg20
g6
(g8
S'\x9a\x99\x99\x99\x99\x99\xb9?'
tRp49
sa.