(dp1
S'bpoltype'
p2
S'random'
p3
sS'numzerogs'
p4
I20
sS'N'
I5000
sS'Rstd'
p5
F0
sS'T'
I5000
sS'initsdist'
p6
S'statezero'
p7
sS'tpoltype'
p8
S'skewed'
p9
sS'Gamma'
p10
F0.98999999999999999
sS'b'
I10
sS'rtype'
p11
S'uniform'
p12
sS'na'
p13
I3
sS'rparam'
p14
I1
sS'nf'
p15
I7
sS'ftype'
p16
S'binary'
p17
sS'ns'
p18
I100
s.