(lp1
(dp2
S'inita'
p3
cnumpy.core.multiarray
scalar
p4
(cnumpy
dtype
p5
(S'f8'
I0
I1
tRp6
(I3
S'<'
NNNI-1
I-1
I0
tbS'\xfc\xa9\xf1\xd2MbP?'
tRp7
sS'mright'
p8
F0.5
sS'N'
I100
sS'pright'
p9
F0.98999999999999999
sS'inits'
p10
I2
sS'algname'
p11
S'wislstd'
p12
sS'nf'
p13
I2
sS'ftype'
p14
S'binary'
p15
sS'ns'
p16
I5
sS'gamma'
p17
F1
sS'lambda'
p18
g4
(g6
S'\x00\x00\x00\x00\x00\x00\x00\x00'
tRp19
sa(dp20
g3
g7
sg8
F0.5
sS'N'
I100
sg9
F0.98999999999999999
sg10
I2
sg11
g12
sg13
I2
sg14
g15
sg16
I5
sg17
F1
sg18
g4
(g6
S'\x00\x00\x00\x00\x00\x00\xe0?'
tRp21
sa(dp22
g3
g7
sg8
F0.5
sS'N'
I100
sg9
F0.98999999999999999
sg10
I2
sg11
g12
sg13
I2
sg14
g15
sg16
I5
sg17
F1
sg18
g4
(g6
S'\xcd\xcc\xcc\xcc\xcc\xcc\xec?'
tRp23
sa(dp24
g3
g7
sg8
F0.5
sS'N'
I100
sg9
F0.98999999999999999
sg10
I2
sg11
g12
sg13
I2
sg14
g15
sg16
I5
sg17
F1
sg18
g4
(g6
S'ffffff\xee?'
tRp25
sa(dp26
g3
g7
sg8
F0.5
sS'N'
I100
sg9
F0.98999999999999999
sg10
I2
sg11
g12
sg13
I2
sg14
g15
sg16
I5
sg17
F1
sg18
g4
(g6
S'\xaeG\xe1z\x14\xae\xef?'
tRp27
sa(dp28
g3
g7
sg8
F0.5
sS'N'
I100
sg9
F0.98999999999999999
sg10
I2
sg11
g12
sg13
I2
sg14
g15
sg16
I5
sg17
F1
sg18
g4
(g6
S'\x00\x00\x00\x00\x00\x00\xf0?'
tRp29
sa(dp30
g3
g4
(g6
S'{\x14\xaeG\xe1z\x84?'
tRp31
sg8
F0.5
sS'N'
I100
sg9
F0.98999999999999999
sg10
I2
sg11
g12
sg13
I2
sg14
g15
sg16
I5
sg17
F1
sg18
g4
(g6
S'\x00\x00\x00\x00\x00\x00\x00\x00'
tRp32
sa(dp33
g3
g31
sg8
F0.5
sS'N'
I100
sg9
F0.98999999999999999
sg10
I2
sg11
g12
sg13
I2
sg14
g15
sg16
I5
sg17
F1
sg18
g4
(g6
S'\x00\x00\x00\x00\x00\x00\xe0?'
tRp34
sa(dp35
g3
g31
sg8
F0.5
sS'N'
I100
sg9
F0.98999999999999999
sg10
I2
sg11
g12
sg13
I2
sg14
g15
sg16
I5
sg17
F1
sg18
g4
(g6
S'\xcd\xcc\xcc\xcc\xcc\xcc\xec?'
tRp36
sa(dp37
g3
g31
sg8
F0.5
sS'N'
I100
sg9
F0.98999999999999999
sg10
I2
sg11
g12
sg13
I2
sg14
g15
sg16
I5
sg17
F1
sg18
g4
(g6
S'ffffff\xee?'
tRp38
sa(dp39
g3
g31
sg8
F0.5
sS'N'
I100
sg9
F0.98999999999999999
sg10
I2
sg11
g12
sg13
I2
sg14
g15
sg16
I5
sg17
F1
sg18
g4
(g6
S'\xaeG\xe1z\x14\xae\xef?'
tRp40
sa(dp41
g3
g31
sg8
F0.5
sS'N'
I100
sg9
F0.98999999999999999
sg10
I2
sg11
g12
sg13
I2
sg14
g15
sg16
I5
sg17
F1
sg18
g4
(g6
S'\x00\x00\x00\x00\x00\x00\xf0?'
tRp42
sa(dp43
g3
g4
(g6
S'\x9a\x99\x99\x99\x99\x99\xb9?'
tRp44
sg8
F0.5
sS'N'
I100
sg9
F0.98999999999999999
sg10
I2
sg11
g12
sg13
I2
sg14
g15
sg16
I5
sg17
F1
sg18
g4
(g6
S'\x00\x00\x00\x00\x00\x00\x00\x00'
tRp45
sa(dp46
g3
g44
sg8
F0.5
sS'N'
I100
sg9
F0.98999999999999999
sg10
I2
sg11
g12
sg13
I2
sg14
g15
sg16
I5
sg17
F1
sg18
g4
(g6
S'\x00\x00\x00\x00\x00\x00\xe0?'
tRp47
sa(dp48
g3
g44
sg8
F0.5
sS'N'
I100
sg9
F0.98999999999999999
sg10
I2
sg11
g12
sg13
I2
sg14
g15
sg16
I5
sg17
F1
sg18
g4
(g6
S'\xcd\xcc\xcc\xcc\xcc\xcc\xec?'
tRp49
sa(dp50
g3
g44
sg8
F0.5
sS'N'
I100
sg9
F0.98999999999999999
sg10
I2
sg11
g12
sg13
I2
sg14
g15
sg16
I5
sg17
F1
sg18
g4
(g6
S'ffffff\xee?'
tRp51
sa(dp52
g3
g44
sg8
F0.5
sS'N'
I100
sg9
F0.98999999999999999
sg10
I2
sg11
g12
sg13
I2
sg14
g15
sg16
I5
sg17
F1
sg18
g4
(g6
S'\xaeG\xe1z\x14\xae\xef?'
tRp53
sa(dp54
g3
g44
sg8
F0.5
sS'N'
I100
sg9
F0.98999999999999999
sg10
I2
sg11
g12
sg13
I2
sg14
g15
sg16
I5
sg17
F1
sg18
g4
(g6
S'\x00\x00\x00\x00\x00\x00\xf0?'
tRp55
sa(dp56
g3
g4
(g6
S'\x00\x00\x00\x00\x00\x00\xf0?'
tRp57
sg8
F0.5
sS'N'
I100
sg9
F0.98999999999999999
sg10
I2
sg11
g12
sg13
I2
sg14
g15
sg16
I5
sg17
F1
sg18
g4
(g6
S'\x00\x00\x00\x00\x00\x00\x00\x00'
tRp58
sa(dp59
g3
g57
sg8
F0.5
sS'N'
I100
sg9
F0.98999999999999999
sg10
I2
sg11
g12
sg13
I2
sg14
g15
sg16
I5
sg17
F1
sg18
g4
(g6
S'\x00\x00\x00\x00\x00\x00\xe0?'
tRp60
sa(dp61
g3
g57
sg8
F0.5
sS'N'
I100
sg9
F0.98999999999999999
sg10
I2
sg11
g12
sg13
I2
sg14
g15
sg16
I5
sg17
F1
sg18
g4
(g6
S'\xcd\xcc\xcc\xcc\xcc\xcc\xec?'
tRp62
sa(dp63
g3
g57
sg8
F0.5
sS'N'
I100
sg9
F0.98999999999999999
sg10
I2
sg11
g12
sg13
I2
sg14
g15
sg16
I5
sg17
F1
sg18
g4
(g6
S'ffffff\xee?'
tRp64
sa(dp65
g3
g57
sg8
F0.5
sS'N'
I100
sg9
F0.98999999999999999
sg10
I2
sg11
g12
sg13
I2
sg14
g15
sg16
I5
sg17
F1
sg18
g4
(g6
S'\xaeG\xe1z\x14\xae\xef?'
tRp66
sa(dp67
g3
g57
sg8
F0.5
sS'N'
I100
sg9
F0.98999999999999999
sg10
I2
sg11
g12
sg13
I2
sg14
g15
sg16
I5
sg17
F1
sg18
g4
(g6
S'\x00\x00\x00\x00\x00\x00\xf0?'
tRp68
sa(dp69
g3
g4
(g6
S'\x00\x00\x00\x00\x00\x00$@'
tRp70
sg8
F0.5
sS'N'
I100
sg9
F0.98999999999999999
sg10
I2
sg11
g12
sg13
I2
sg14
g15
sg16
I5
sg17
F1
sg18
g4
(g6
S'\x00\x00\x00\x00\x00\x00\x00\x00'
tRp71
sa(dp72
g3
g70
sg8
F0.5
sS'N'
I100
sg9
F0.98999999999999999
sg10
I2
sg11
g12
sg13
I2
sg14
g15
sg16
I5
sg17
F1
sg18
g4
(g6
S'\x00\x00\x00\x00\x00\x00\xe0?'
tRp73
sa(dp74
g3
g70
sg8
F0.5
sS'N'
I100
sg9
F0.98999999999999999
sg10
I2
sg11
g12
sg13
I2
sg14
g15
sg16
I5
sg17
F1
sg18
g4
(g6
S'\xcd\xcc\xcc\xcc\xcc\xcc\xec?'
tRp75
sa(dp76
g3
g70
sg8
F0.5
sS'N'
I100
sg9
F0.98999999999999999
sg10
I2
sg11
g12
sg13
I2
sg14
g15
sg16
I5
sg17
F1
sg18
g4
(g6
S'ffffff\xee?'
tRp77
sa(dp78
g3
g70
sg8
F0.5
sS'N'
I100
sg9
F0.98999999999999999
sg10
I2
sg11
g12
sg13
I2
sg14
g15
sg16
I5
sg17
F1
sg18
g4
(g6
S'\xaeG\xe1z\x14\xae\xef?'
tRp79
sa(dp80
g3
g70
sg8
F0.5
sS'N'
I100
sg9
F0.98999999999999999
sg10
I2
sg11
g12
sg13
I2
sg14
g15
sg16
I5
sg17
F1
sg18
g4
(g6
S'\x00\x00\x00\x00\x00\x00\xf0?'
tRp81
sa(dp82
g3
g4
(g6
S'\x00\x00\x00\x00\x00\x00Y@'
tRp83
sg8
F0.5
sS'N'
I100
sg9
F0.98999999999999999
sg10
I2
sg11
g12
sg13
I2
sg14
g15
sg16
I5
sg17
F1
sg18
g4
(g6
S'\x00\x00\x00\x00\x00\x00\x00\x00'
tRp84
sa(dp85
g3
g83
sg8
F0.5
sS'N'
I100
sg9
F0.98999999999999999
sg10
I2
sg11
g12
sg13
I2
sg14
g15
sg16
I5
sg17
F1
sg18
g4
(g6
S'\x00\x00\x00\x00\x00\x00\xe0?'
tRp86
sa(dp87
g3
g83
sg8
F0.5
sS'N'
I100
sg9
F0.98999999999999999
sg10
I2
sg11
g12
sg13
I2
sg14
g15
sg16
I5
sg17
F1
sg18
g4
(g6
S'\xcd\xcc\xcc\xcc\xcc\xcc\xec?'
tRp88
sa(dp89
g3
g83
sg8
F0.5
sS'N'
I100
sg9
F0.98999999999999999
sg10
I2
sg11
g12
sg13
I2
sg14
g15
sg16
I5
sg17
F1
sg18
g4
(g6
S'ffffff\xee?'
tRp90
sa(dp91
g3
g83
sg8
F0.5
sS'N'
I100
sg9
F0.98999999999999999
sg10
I2
sg11
g12
sg13
I2
sg14
g15
sg16
I5
sg17
F1
sg18
g4
(g6
S'\xaeG\xe1z\x14\xae\xef?'
tRp92
sa(dp93
g3
g83
sg8
F0.5
sS'N'
I100
sg9
F0.98999999999999999
sg10
I2
sg11
g12
sg13
I2
sg14
g15
sg16
I5
sg17
F1
sg18
g4
(g6
S'\x00\x00\x00\x00\x00\x00\xf0?'
tRp94
sa(dp95
g3
g4
(g6
S'\x00\x00\x00\x00\x00@\x8f@'
tRp96
sg8
F0.5
sS'N'
I100
sg9
F0.98999999999999999
sg10
I2
sg11
g12
sg13
I2
sg14
g15
sg16
I5
sg17
F1
sg18
g4
(g6
S'\x00\x00\x00\x00\x00\x00\x00\x00'
tRp97
sa(dp98
g3
g96
sg8
F0.5
sS'N'
I100
sg9
F0.98999999999999999
sg10
I2
sg11
g12
sg13
I2
sg14
g15
sg16
I5
sg17
F1
sg18
g4
(g6
S'\x00\x00\x00\x00\x00\x00\xe0?'
tRp99
sa(dp100
g3
g96
sg8
F0.5
sS'N'
I100
sg9
F0.98999999999999999
sg10
I2
sg11
g12
sg13
I2
sg14
g15
sg16
I5
sg17
F1
sg18
g4
(g6
S'\xcd\xcc\xcc\xcc\xcc\xcc\xec?'
tRp101
sa(dp102
g3
g96
sg8
F0.5
sS'N'
I100
sg9
F0.98999999999999999
sg10
I2
sg11
g12
sg13
I2
sg14
g15
sg16
I5
sg17
F1
sg18
g4
(g6
S'ffffff\xee?'
tRp103
sa(dp104
g3
g96
sg8
F0.5
sS'N'
I100
sg9
F0.98999999999999999
sg10
I2
sg11
g12
sg13
I2
sg14
g15
sg16
I5
sg17
F1
sg18
g4
(g6
S'\xaeG\xe1z\x14\xae\xef?'
tRp105
sa(dp106
g3
g96
sg8
F0.5
sS'N'
I100
sg9
F0.98999999999999999
sg10
I2
sg11
g12
sg13
I2
sg14
g15
sg16
I5
sg17
F1
sg18
g4
(g6
S'\x00\x00\x00\x00\x00\x00\xf0?'
tRp107
sa.