(dp1
S'bpoltype'
p2
S'skewed'
p3
sS'numzerogs'
p4
I2
sS'N'
I500
sS'Rstd'
p5
F0
sS'T'
I500
sS'initsdist'
p6
S'statezero'
p7
sS'tpoltype'
p8
g3
sS'Gamma'
p9
F0.98999999999999999
sS'b'
I3
sS'rtype'
p10
S'uniform'
p11
sS'na'
p12
I3
sS'rparam'
p13
I1
sS'nf'
p14
I5
sS'ftype'
p15
S'normal'
p16
sS'ns'
p17
I10
s.