(lp1
(dp2
S'inita'
p3
cnumpy.core.multiarray
scalar
p4
(cnumpy
dtype
p5
(S'f8'
I0
I1
tRp6
(I3
S'<'
NNNI-1
I-1
I0
tbS'\xfc\xa9\xf1\xd2MbP?'
tRp7
sS'mright'
p8
F0.5
sS'N'
I200
sS'pright'
p9
F0.98999999999999999
sS'inits'
p10
I11
sS'algname'
p11
S'oislstd'
p12
sS'nstates'
p13
I23
sS'nf'
p14
I5
sS'ftype'
p15
S'binary'
p16
sS'ns'
p17
I23
sS'gamma'
p18
F1
sS'lambda'
p19
g4
(g6
S'\x00\x00\x00\x00\x00\x00\x00\x00'
tRp20
sa(dp21
g3
g7
sg8
F0.5
sS'N'
I200
sg9
F0.98999999999999999
sg10
I11
sg11
g12
sg13
I23
sg14
I5
sg15
g16
sg17
I23
sg18
F1
sg19
g4
(g6
S'\x9a\x99\x99\x99\x99\x99\xb9?'
tRp22
sa(dp23
g3
g7
sg8
F0.5
sS'N'
I200
sg9
F0.98999999999999999
sg10
I11
sg11
g12
sg13
I23
sg14
I5
sg15
g16
sg17
I23
sg18
F1
sg19
g4
(g6
S'\x9a\x99\x99\x99\x99\x99\xc9?'
tRp24
sa(dp25
g3
g7
sg8
F0.5
sS'N'
I200
sg9
F0.98999999999999999
sg10
I11
sg11
g12
sg13
I23
sg14
I5
sg15
g16
sg17
I23
sg18
F1
sg19
g4
(g6
S'433333\xd3?'
tRp26
sa(dp27
g3
g7
sg8
F0.5
sS'N'
I200
sg9
F0.98999999999999999
sg10
I11
sg11
g12
sg13
I23
sg14
I5
sg15
g16
sg17
I23
sg18
F1
sg19
g4
(g6
S'\x9a\x99\x99\x99\x99\x99\xd9?'
tRp28
sa(dp29
g3
g7
sg8
F0.5
sS'N'
I200
sg9
F0.98999999999999999
sg10
I11
sg11
g12
sg13
I23
sg14
I5
sg15
g16
sg17
I23
sg18
F1
sg19
g4
(g6
S'\x00\x00\x00\x00\x00\x00\xe0?'
tRp30
sa(dp31
g3
g7
sg8
F0.5
sS'N'
I200
sg9
F0.98999999999999999
sg10
I11
sg11
g12
sg13
I23
sg14
I5
sg15
g16
sg17
I23
sg18
F1
sg19
g4
(g6
S'433333\xe3?'
tRp32
sa(dp33
g3
g7
sg8
F0.5
sS'N'
I200
sg9
F0.98999999999999999
sg10
I11
sg11
g12
sg13
I23
sg14
I5
sg15
g16
sg17
I23
sg18
F1
sg19
g4
(g6
S'gfffff\xe6?'
tRp34
sa(dp35
g3
g7
sg8
F0.5
sS'N'
I200
sg9
F0.98999999999999999
sg10
I11
sg11
g12
sg13
I23
sg14
I5
sg15
g16
sg17
I23
sg18
F1
sg19
g4
(g6
S'\x9a\x99\x99\x99\x99\x99\xe9?'
tRp36
sa(dp37
g3
g7
sg8
F0.5
sS'N'
I200
sg9
F0.98999999999999999
sg10
I11
sg11
g12
sg13
I23
sg14
I5
sg15
g16
sg17
I23
sg18
F1
sg19
g4
(g6
S'\xcd\xcc\xcc\xcc\xcc\xcc\xec?'
tRp38
sa(dp39
g3
g7
sg8
F0.5
sS'N'
I200
sg9
F0.98999999999999999
sg10
I11
sg11
g12
sg13
I23
sg14
I5
sg15
g16
sg17
I23
sg18
F1
sg19
g4
(g6
S'\x1f\x85\xebQ\xb8\x1e\xed?'
tRp40
sa(dp41
g3
g7
sg8
F0.5
sS'N'
I200
sg9
F0.98999999999999999
sg10
I11
sg11
g12
sg13
I23
sg14
I5
sg15
g16
sg17
I23
sg18
F1
sg19
g4
(g6
S'q=\n\xd7\xa3p\xed?'
tRp42
sa(dp43
g3
g7
sg8
F0.5
sS'N'
I200
sg9
F0.98999999999999999
sg10
I11
sg11
g12
sg13
I23
sg14
I5
sg15
g16
sg17
I23
sg18
F1
sg19
g4
(g6
S'\xc3\xf5(\\\x8f\xc2\xed?'
tRp44
sa(dp45
g3
g7
sg8
F0.5
sS'N'
I200
sg9
F0.98999999999999999
sg10
I11
sg11
g12
sg13
I23
sg14
I5
sg15
g16
sg17
I23
sg18
F1
sg19
g4
(g6
S'\x15\xaeG\xe1z\x14\xee?'
tRp46
sa(dp47
g3
g7
sg8
F0.5
sS'N'
I200
sg9
F0.98999999999999999
sg10
I11
sg11
g12
sg13
I23
sg14
I5
sg15
g16
sg17
I23
sg18
F1
sg19
g4
(g6
S'gfffff\xee?'
tRp48
sa(dp49
g3
g7
sg8
F0.5
sS'N'
I200
sg9
F0.98999999999999999
sg10
I11
sg11
g12
sg13
I23
sg14
I5
sg15
g16
sg17
I23
sg18
F1
sg19
g4
(g6
S'\xb9\x1e\x85\xebQ\xb8\xee?'
tRp50
sa(dp51
g3
g7
sg8
F0.5
sS'N'
I200
sg9
F0.98999999999999999
sg10
I11
sg11
g12
sg13
I23
sg14
I5
sg15
g16
sg17
I23
sg18
F1
sg19
g4
(g6
S'\x0b\xd7\xa3p=\n\xef?'
tRp52
sa(dp53
g3
g7
sg8
F0.5
sS'N'
I200
sg9
F0.98999999999999999
sg10
I11
sg11
g12
sg13
I23
sg14
I5
sg15
g16
sg17
I23
sg18
F1
sg19
g4
(g6
S']\x8f\xc2\xf5(\\\xef?'
tRp54
sa(dp55
g3
g7
sg8
F0.5
sS'N'
I200
sg9
F0.98999999999999999
sg10
I11
sg11
g12
sg13
I23
sg14
I5
sg15
g16
sg17
I23
sg18
F1
sg19
g4
(g6
S'\xafG\xe1z\x14\xae\xef?'
tRp56
sa(dp57
g3
g7
sg8
F0.5
sS'N'
I200
sg9
F0.98999999999999999
sg10
I11
sg11
g12
sg13
I23
sg14
I5
sg15
g16
sg17
I23
sg18
F1
sg19
g4
(g6
S'\x00\x00\x00\x00\x00\x00\xf0?'
tRp58
sa(dp59
g3
g4
(g6
S'\xa37y\x1b\x86\xf7Y?'
tRp60
sg8
F0.5
sS'N'
I200
sg9
F0.98999999999999999
sg10
I11
sg11
g12
sg13
I23
sg14
I5
sg15
g16
sg17
I23
sg18
F1
sg19
g4
(g6
S'\x00\x00\x00\x00\x00\x00\x00\x00'
tRp61
sa(dp62
g3
g60
sg8
F0.5
sS'N'
I200
sg9
F0.98999999999999999
sg10
I11
sg11
g12
sg13
I23
sg14
I5
sg15
g16
sg17
I23
sg18
F1
sg19
g4
(g6
S'\x9a\x99\x99\x99\x99\x99\xb9?'
tRp63
sa(dp64
g3
g60
sg8
F0.5
sS'N'
I200
sg9
F0.98999999999999999
sg10
I11
sg11
g12
sg13
I23
sg14
I5
sg15
g16
sg17
I23
sg18
F1
sg19
g4
(g6
S'\x9a\x99\x99\x99\x99\x99\xc9?'
tRp65
sa(dp66
g3
g60
sg8
F0.5
sS'N'
I200
sg9
F0.98999999999999999
sg10
I11
sg11
g12
sg13
I23
sg14
I5
sg15
g16
sg17
I23
sg18
F1
sg19
g4
(g6
S'433333\xd3?'
tRp67
sa(dp68
g3
g60
sg8
F0.5
sS'N'
I200
sg9
F0.98999999999999999
sg10
I11
sg11
g12
sg13
I23
sg14
I5
sg15
g16
sg17
I23
sg18
F1
sg19
g4
(g6
S'\x9a\x99\x99\x99\x99\x99\xd9?'
tRp69
sa(dp70
g3
g60
sg8
F0.5
sS'N'
I200
sg9
F0.98999999999999999
sg10
I11
sg11
g12
sg13
I23
sg14
I5
sg15
g16
sg17
I23
sg18
F1
sg19
g4
(g6
S'\x00\x00\x00\x00\x00\x00\xe0?'
tRp71
sa(dp72
g3
g60
sg8
F0.5
sS'N'
I200
sg9
F0.98999999999999999
sg10
I11
sg11
g12
sg13
I23
sg14
I5
sg15
g16
sg17
I23
sg18
F1
sg19
g4
(g6
S'433333\xe3?'
tRp73
sa(dp74
g3
g60
sg8
F0.5
sS'N'
I200
sg9
F0.98999999999999999
sg10
I11
sg11
g12
sg13
I23
sg14
I5
sg15
g16
sg17
I23
sg18
F1
sg19
g4
(g6
S'gfffff\xe6?'
tRp75
sa(dp76
g3
g60
sg8
F0.5
sS'N'
I200
sg9
F0.98999999999999999
sg10
I11
sg11
g12
sg13
I23
sg14
I5
sg15
g16
sg17
I23
sg18
F1
sg19
g4
(g6
S'\x9a\x99\x99\x99\x99\x99\xe9?'
tRp77
sa(dp78
g3
g60
sg8
F0.5
sS'N'
I200
sg9
F0.98999999999999999
sg10
I11
sg11
g12
sg13
I23
sg14
I5
sg15
g16
sg17
I23
sg18
F1
sg19
g4
(g6
S'\xcd\xcc\xcc\xcc\xcc\xcc\xec?'
tRp79
sa(dp80
g3
g60
sg8
F0.5
sS'N'
I200
sg9
F0.98999999999999999
sg10
I11
sg11
g12
sg13
I23
sg14
I5
sg15
g16
sg17
I23
sg18
F1
sg19
g4
(g6
S'\x1f\x85\xebQ\xb8\x1e\xed?'
tRp81
sa(dp82
g3
g60
sg8
F0.5
sS'N'
I200
sg9
F0.98999999999999999
sg10
I11
sg11
g12
sg13
I23
sg14
I5
sg15
g16
sg17
I23
sg18
F1
sg19
g4
(g6
S'q=\n\xd7\xa3p\xed?'
tRp83
sa(dp84
g3
g60
sg8
F0.5
sS'N'
I200
sg9
F0.98999999999999999
sg10
I11
sg11
g12
sg13
I23
sg14
I5
sg15
g16
sg17
I23
sg18
F1
sg19
g4
(g6
S'\xc3\xf5(\\\x8f\xc2\xed?'
tRp85
sa(dp86
g3
g60
sg8
F0.5
sS'N'
I200
sg9
F0.98999999999999999
sg10
I11
sg11
g12
sg13
I23
sg14
I5
sg15
g16
sg17
I23
sg18
F1
sg19
g4
(g6
S'\x15\xaeG\xe1z\x14\xee?'
tRp87
sa(dp88
g3
g60
sg8
F0.5
sS'N'
I200
sg9
F0.98999999999999999
sg10
I11
sg11
g12
sg13
I23
sg14
I5
sg15
g16
sg17
I23
sg18
F1
sg19
g4
(g6
S'gfffff\xee?'
tRp89
sa(dp90
g3
g60
sg8
F0.5
sS'N'
I200
sg9
F0.98999999999999999
sg10
I11
sg11
g12
sg13
I23
sg14
I5
sg15
g16
sg17
I23
sg18
F1
sg19
g4
(g6
S'\xb9\x1e\x85\xebQ\xb8\xee?'
tRp91
sa(dp92
g3
g60
sg8
F0.5
sS'N'
I200
sg9
F0.98999999999999999
sg10
I11
sg11
g12
sg13
I23
sg14
I5
sg15
g16
sg17
I23
sg18
F1
sg19
g4
(g6
S'\x0b\xd7\xa3p=\n\xef?'
tRp93
sa(dp94
g3
g60
sg8
F0.5
sS'N'
I200
sg9
F0.98999999999999999
sg10
I11
sg11
g12
sg13
I23
sg14
I5
sg15
g16
sg17
I23
sg18
F1
sg19
g4
(g6
S']\x8f\xc2\xf5(\\\xef?'
tRp95
sa(dp96
g3
g60
sg8
F0.5
sS'N'
I200
sg9
F0.98999999999999999
sg10
I11
sg11
g12
sg13
I23
sg14
I5
sg15
g16
sg17
I23
sg18
F1
sg19
g4
(g6
S'\xafG\xe1z\x14\xae\xef?'
tRp97
sa(dp98
g3
g60
sg8
F0.5
sS'N'
I200
sg9
F0.98999999999999999
sg10
I11
sg11
g12
sg13
I23
sg14
I5
sg15
g16
sg17
I23
sg18
F1
sg19
g4
(g6
S'\x00\x00\x00\x00\x00\x00\xf0?'
tRp99
sa(dp100
g3
g4
(g6
S'\x1e\x1fc\xc2\xce\x93d?'
tRp101
sg8
F0.5
sS'N'
I200
sg9
F0.98999999999999999
sg10
I11
sg11
g12
sg13
I23
sg14
I5
sg15
g16
sg17
I23
sg18
F1
sg19
g4
(g6
S'\x00\x00\x00\x00\x00\x00\x00\x00'
tRp102
sa(dp103
g3
g101
sg8
F0.5
sS'N'
I200
sg9
F0.98999999999999999
sg10
I11
sg11
g12
sg13
I23
sg14
I5
sg15
g16
sg17
I23
sg18
F1
sg19
g4
(g6
S'\x9a\x99\x99\x99\x99\x99\xb9?'
tRp104
sa(dp105
g3
g101
sg8
F0.5
sS'N'
I200
sg9
F0.98999999999999999
sg10
I11
sg11
g12
sg13
I23
sg14
I5
sg15
g16
sg17
I23
sg18
F1
sg19
g4
(g6
S'\x9a\x99\x99\x99\x99\x99\xc9?'
tRp106
sa(dp107
g3
g101
sg8
F0.5
sS'N'
I200
sg9
F0.98999999999999999
sg10
I11
sg11
g12
sg13
I23
sg14
I5
sg15
g16
sg17
I23
sg18
F1
sg19
g4
(g6
S'433333\xd3?'
tRp108
sa(dp109
g3
g101
sg8
F0.5
sS'N'
I200
sg9
F0.98999999999999999
sg10
I11
sg11
g12
sg13
I23
sg14
I5
sg15
g16
sg17
I23
sg18
F1
sg19
g4
(g6
S'\x9a\x99\x99\x99\x99\x99\xd9?'
tRp110
sa(dp111
g3
g101
sg8
F0.5
sS'N'
I200
sg9
F0.98999999999999999
sg10
I11
sg11
g12
sg13
I23
sg14
I5
sg15
g16
sg17
I23
sg18
F1
sg19
g4
(g6
S'\x00\x00\x00\x00\x00\x00\xe0?'
tRp112
sa(dp113
g3
g101
sg8
F0.5
sS'N'
I200
sg9
F0.98999999999999999
sg10
I11
sg11
g12
sg13
I23
sg14
I5
sg15
g16
sg17
I23
sg18
F1
sg19
g4
(g6
S'433333\xe3?'
tRp114
sa(dp115
g3
g101
sg8
F0.5
sS'N'
I200
sg9
F0.98999999999999999
sg10
I11
sg11
g12
sg13
I23
sg14
I5
sg15
g16
sg17
I23
sg18
F1
sg19
g4
(g6
S'gfffff\xe6?'
tRp116
sa(dp117
g3
g101
sg8
F0.5
sS'N'
I200
sg9
F0.98999999999999999
sg10
I11
sg11
g12
sg13
I23
sg14
I5
sg15
g16
sg17
I23
sg18
F1
sg19
g4
(g6
S'\x9a\x99\x99\x99\x99\x99\xe9?'
tRp118
sa(dp119
g3
g101
sg8
F0.5
sS'N'
I200
sg9
F0.98999999999999999
sg10
I11
sg11
g12
sg13
I23
sg14
I5
sg15
g16
sg17
I23
sg18
F1
sg19
g4
(g6
S'\xcd\xcc\xcc\xcc\xcc\xcc\xec?'
tRp120
sa(dp121
g3
g101
sg8
F0.5
sS'N'
I200
sg9
F0.98999999999999999
sg10
I11
sg11
g12
sg13
I23
sg14
I5
sg15
g16
sg17
I23
sg18
F1
sg19
g4
(g6
S'\x1f\x85\xebQ\xb8\x1e\xed?'
tRp122
sa(dp123
g3
g101
sg8
F0.5
sS'N'
I200
sg9
F0.98999999999999999
sg10
I11
sg11
g12
sg13
I23
sg14
I5
sg15
g16
sg17
I23
sg18
F1
sg19
g4
(g6
S'q=\n\xd7\xa3p\xed?'
tRp124
sa(dp125
g3
g101
sg8
F0.5
sS'N'
I200
sg9
F0.98999999999999999
sg10
I11
sg11
g12
sg13
I23
sg14
I5
sg15
g16
sg17
I23
sg18
F1
sg19
g4
(g6
S'\xc3\xf5(\\\x8f\xc2\xed?'
tRp126
sa(dp127
g3
g101
sg8
F0.5
sS'N'
I200
sg9
F0.98999999999999999
sg10
I11
sg11
g12
sg13
I23
sg14
I5
sg15
g16
sg17
I23
sg18
F1
sg19
g4
(g6
S'\x15\xaeG\xe1z\x14\xee?'
tRp128
sa(dp129
g3
g101
sg8
F0.5
sS'N'
I200
sg9
F0.98999999999999999
sg10
I11
sg11
g12
sg13
I23
sg14
I5
sg15
g16
sg17
I23
sg18
F1
sg19
g4
(g6
S'gfffff\xee?'
tRp130
sa(dp131
g3
g101
sg8
F0.5
sS'N'
I200
sg9
F0.98999999999999999
sg10
I11
sg11
g12
sg13
I23
sg14
I5
sg15
g16
sg17
I23
sg18
F1
sg19
g4
(g6
S'\xb9\x1e\x85\xebQ\xb8\xee?'
tRp132
sa(dp133
g3
g101
sg8
F0.5
sS'N'
I200
sg9
F0.98999999999999999
sg10
I11
sg11
g12
sg13
I23
sg14
I5
sg15
g16
sg17
I23
sg18
F1
sg19
g4
(g6
S'\x0b\xd7\xa3p=\n\xef?'
tRp134
sa(dp135
g3
g101
sg8
F0.5
sS'N'
I200
sg9
F0.98999999999999999
sg10
I11
sg11
g12
sg13
I23
sg14
I5
sg15
g16
sg17
I23
sg18
F1
sg19
g4
(g6
S']\x8f\xc2\xf5(\\\xef?'
tRp136
sa(dp137
g3
g101
sg8
F0.5
sS'N'
I200
sg9
F0.98999999999999999
sg10
I11
sg11
g12
sg13
I23
sg14
I5
sg15
g16
sg17
I23
sg18
F1
sg19
g4
(g6
S'\xafG\xe1z\x14\xae\xef?'
tRp138
sa(dp139
g3
g101
sg8
F0.5
sS'N'
I200
sg9
F0.98999999999999999
sg10
I11
sg11
g12
sg13
I23
sg14
I5
sg15
g16
sg17
I23
sg18
F1
sg19
g4
(g6
S'\x00\x00\x00\x00\x00\x00\xf0?'
tRp140
sa(dp141
g3
g4
(g6
S'\x8d\xees\xcctNp?'
tRp142
sg8
F0.5
sS'N'
I200
sg9
F0.98999999999999999
sg10
I11
sg11
g12
sg13
I23
sg14
I5
sg15
g16
sg17
I23
sg18
F1
sg19
g4
(g6
S'\x00\x00\x00\x00\x00\x00\x00\x00'
tRp143
sa(dp144
g3
g142
sg8
F0.5
sS'N'
I200
sg9
F0.98999999999999999
sg10
I11
sg11
g12
sg13
I23
sg14
I5
sg15
g16
sg17
I23
sg18
F1
sg19
g4
(g6
S'\x9a\x99\x99\x99\x99\x99\xb9?'
tRp145
sa(dp146
g3
g142
sg8
F0.5
sS'N'
I200
sg9
F0.98999999999999999
sg10
I11
sg11
g12
sg13
I23
sg14
I5
sg15
g16
sg17
I23
sg18
F1
sg19
g4
(g6
S'\x9a\x99\x99\x99\x99\x99\xc9?'
tRp147
sa(dp148
g3
g142
sg8
F0.5
sS'N'
I200
sg9
F0.98999999999999999
sg10
I11
sg11
g12
sg13
I23
sg14
I5
sg15
g16
sg17
I23
sg18
F1
sg19
g4
(g6
S'433333\xd3?'
tRp149
sa(dp150
g3
g142
sg8
F0.5
sS'N'
I200
sg9
F0.98999999999999999
sg10
I11
sg11
g12
sg13
I23
sg14
I5
sg15
g16
sg17
I23
sg18
F1
sg19
g4
(g6
S'\x9a\x99\x99\x99\x99\x99\xd9?'
tRp151
sa(dp152
g3
g142
sg8
F0.5
sS'N'
I200
sg9
F0.98999999999999999
sg10
I11
sg11
g12
sg13
I23
sg14
I5
sg15
g16
sg17
I23
sg18
F1
sg19
g4
(g6
S'\x00\x00\x00\x00\x00\x00\xe0?'
tRp153
sa(dp154
g3
g142
sg8
F0.5
sS'N'
I200
sg9
F0.98999999999999999
sg10
I11
sg11
g12
sg13
I23
sg14
I5
sg15
g16
sg17
I23
sg18
F1
sg19
g4
(g6
S'433333\xe3?'
tRp155
sa(dp156
g3
g142
sg8
F0.5
sS'N'
I200
sg9
F0.98999999999999999
sg10
I11
sg11
g12
sg13
I23
sg14
I5
sg15
g16
sg17
I23
sg18
F1
sg19
g4
(g6
S'gfffff\xe6?'
tRp157
sa(dp158
g3
g142
sg8
F0.5
sS'N'
I200
sg9
F0.98999999999999999
sg10
I11
sg11
g12
sg13
I23
sg14
I5
sg15
g16
sg17
I23
sg18
F1
sg19
g4
(g6
S'\x9a\x99\x99\x99\x99\x99\xe9?'
tRp159
sa(dp160
g3
g142
sg8
F0.5
sS'N'
I200
sg9
F0.98999999999999999
sg10
I11
sg11
g12
sg13
I23
sg14
I5
sg15
g16
sg17
I23
sg18
F1
sg19
g4
(g6
S'\xcd\xcc\xcc\xcc\xcc\xcc\xec?'
tRp161
sa(dp162
g3
g142
sg8
F0.5
sS'N'
I200
sg9
F0.98999999999999999
sg10
I11
sg11
g12
sg13
I23
sg14
I5
sg15
g16
sg17
I23
sg18
F1
sg19
g4
(g6
S'\x1f\x85\xebQ\xb8\x1e\xed?'
tRp163
sa(dp164
g3
g142
sg8
F0.5
sS'N'
I200
sg9
F0.98999999999999999
sg10
I11
sg11
g12
sg13
I23
sg14
I5
sg15
g16
sg17
I23
sg18
F1
sg19
g4
(g6
S'q=\n\xd7\xa3p\xed?'
tRp165
sa(dp166
g3
g142
sg8
F0.5
sS'N'
I200
sg9
F0.98999999999999999
sg10
I11
sg11
g12
sg13
I23
sg14
I5
sg15
g16
sg17
I23
sg18
F1
sg19
g4
(g6
S'\xc3\xf5(\\\x8f\xc2\xed?'
tRp167
sa(dp168
g3
g142
sg8
F0.5
sS'N'
I200
sg9
F0.98999999999999999
sg10
I11
sg11
g12
sg13
I23
sg14
I5
sg15
g16
sg17
I23
sg18
F1
sg19
g4
(g6
S'\x15\xaeG\xe1z\x14\xee?'
tRp169
sa(dp170
g3
g142
sg8
F0.5
sS'N'
I200
sg9
F0.98999999999999999
sg10
I11
sg11
g12
sg13
I23
sg14
I5
sg15
g16
sg17
I23
sg18
F1
sg19
g4
(g6
S'gfffff\xee?'
tRp171
sa(dp172
g3
g142
sg8
F0.5
sS'N'
I200
sg9
F0.98999999999999999
sg10
I11
sg11
g12
sg13
I23
sg14
I5
sg15
g16
sg17
I23
sg18
F1
sg19
g4
(g6
S'\xb9\x1e\x85\xebQ\xb8\xee?'
tRp173
sa(dp174
g3
g142
sg8
F0.5
sS'N'
I200
sg9
F0.98999999999999999
sg10
I11
sg11
g12
sg13
I23
sg14
I5
sg15
g16
sg17
I23
sg18
F1
sg19
g4
(g6
S'\x0b\xd7\xa3p=\n\xef?'
tRp175
sa(dp176
g3
g142
sg8
F0.5
sS'N'
I200
sg9
F0.98999999999999999
sg10
I11
sg11
g12
sg13
I23
sg14
I5
sg15
g16
sg17
I23
sg18
F1
sg19
g4
(g6
S']\x8f\xc2\xf5(\\\xef?'
tRp177
sa(dp178
g3
g142
sg8
F0.5
sS'N'
I200
sg9
F0.98999999999999999
sg10
I11
sg11
g12
sg13
I23
sg14
I5
sg15
g16
sg17
I23
sg18
F1
sg19
g4
(g6
S'\xafG\xe1z\x14\xae\xef?'
tRp179
sa(dp180
g3
g142
sg8
F0.5
sS'N'
I200
sg9
F0.98999999999999999
sg10
I11
sg11
g12
sg13
I23
sg14
I5
sg15
g16
sg17
I23
sg18
F1
sg19
g4
(g6
S'\x00\x00\x00\x00\x00\x00\xf0?'
tRp181
sa(dp182
g3
g4
(g6
S'\xce\xdc\x8d9\x11\xd8y?'
tRp183
sg8
F0.5
sS'N'
I200
sg9
F0.98999999999999999
sg10
I11
sg11
g12
sg13
I23
sg14
I5
sg15
g16
sg17
I23
sg18
F1
sg19
g4
(g6
S'\x00\x00\x00\x00\x00\x00\x00\x00'
tRp184
sa(dp185
g3
g183
sg8
F0.5
sS'N'
I200
sg9
F0.98999999999999999
sg10
I11
sg11
g12
sg13
I23
sg14
I5
sg15
g16
sg17
I23
sg18
F1
sg19
g4
(g6
S'\x9a\x99\x99\x99\x99\x99\xb9?'
tRp186
sa(dp187
g3
g183
sg8
F0.5
sS'N'
I200
sg9
F0.98999999999999999
sg10
I11
sg11
g12
sg13
I23
sg14
I5
sg15
g16
sg17
I23
sg18
F1
sg19
g4
(g6
S'\x9a\x99\x99\x99\x99\x99\xc9?'
tRp188
sa(dp189
g3
g183
sg8
F0.5
sS'N'
I200
sg9
F0.98999999999999999
sg10
I11
sg11
g12
sg13
I23
sg14
I5
sg15
g16
sg17
I23
sg18
F1
sg19
g4
(g6
S'433333\xd3?'
tRp190
sa(dp191
g3
g183
sg8
F0.5
sS'N'
I200
sg9
F0.98999999999999999
sg10
I11
sg11
g12
sg13
I23
sg14
I5
sg15
g16
sg17
I23
sg18
F1
sg19
g4
(g6
S'\x9a\x99\x99\x99\x99\x99\xd9?'
tRp192
sa(dp193
g3
g183
sg8
F0.5
sS'N'
I200
sg9
F0.98999999999999999
sg10
I11
sg11
g12
sg13
I23
sg14
I5
sg15
g16
sg17
I23
sg18
F1
sg19
g4
(g6
S'\x00\x00\x00\x00\x00\x00\xe0?'
tRp194
sa(dp195
g3
g183
sg8
F0.5
sS'N'
I200
sg9
F0.98999999999999999
sg10
I11
sg11
g12
sg13
I23
sg14
I5
sg15
g16
sg17
I23
sg18
F1
sg19
g4
(g6
S'433333\xe3?'
tRp196
sa(dp197
g3
g183
sg8
F0.5
sS'N'
I200
sg9
F0.98999999999999999
sg10
I11
sg11
g12
sg13
I23
sg14
I5
sg15
g16
sg17
I23
sg18
F1
sg19
g4
(g6
S'gfffff\xe6?'
tRp198
sa(dp199
g3
g183
sg8
F0.5
sS'N'
I200
sg9
F0.98999999999999999
sg10
I11
sg11
g12
sg13
I23
sg14
I5
sg15
g16
sg17
I23
sg18
F1
sg19
g4
(g6
S'\x9a\x99\x99\x99\x99\x99\xe9?'
tRp200
sa(dp201
g3
g183
sg8
F0.5
sS'N'
I200
sg9
F0.98999999999999999
sg10
I11
sg11
g12
sg13
I23
sg14
I5
sg15
g16
sg17
I23
sg18
F1
sg19
g4
(g6
S'\xcd\xcc\xcc\xcc\xcc\xcc\xec?'
tRp202
sa(dp203
g3
g183
sg8
F0.5
sS'N'
I200
sg9
F0.98999999999999999
sg10
I11
sg11
g12
sg13
I23
sg14
I5
sg15
g16
sg17
I23
sg18
F1
sg19
g4
(g6
S'\x1f\x85\xebQ\xb8\x1e\xed?'
tRp204
sa(dp205
g3
g183
sg8
F0.5
sS'N'
I200
sg9
F0.98999999999999999
sg10
I11
sg11
g12
sg13
I23
sg14
I5
sg15
g16
sg17
I23
sg18
F1
sg19
g4
(g6
S'q=\n\xd7\xa3p\xed?'
tRp206
sa(dp207
g3
g183
sg8
F0.5
sS'N'
I200
sg9
F0.98999999999999999
sg10
I11
sg11
g12
sg13
I23
sg14
I5
sg15
g16
sg17
I23
sg18
F1
sg19
g4
(g6
S'\xc3\xf5(\\\x8f\xc2\xed?'
tRp208
sa(dp209
g3
g183
sg8
F0.5
sS'N'
I200
sg9
F0.98999999999999999
sg10
I11
sg11
g12
sg13
I23
sg14
I5
sg15
g16
sg17
I23
sg18
F1
sg19
g4
(g6
S'\x15\xaeG\xe1z\x14\xee?'
tRp210
sa(dp211
g3
g183
sg8
F0.5
sS'N'
I200
sg9
F0.98999999999999999
sg10
I11
sg11
g12
sg13
I23
sg14
I5
sg15
g16
sg17
I23
sg18
F1
sg19
g4
(g6
S'gfffff\xee?'
tRp212
sa(dp213
g3
g183
sg8
F0.5
sS'N'
I200
sg9
F0.98999999999999999
sg10
I11
sg11
g12
sg13
I23
sg14
I5
sg15
g16
sg17
I23
sg18
F1
sg19
g4
(g6
S'\xb9\x1e\x85\xebQ\xb8\xee?'
tRp214
sa(dp215
g3
g183
sg8
F0.5
sS'N'
I200
sg9
F0.98999999999999999
sg10
I11
sg11
g12
sg13
I23
sg14
I5
sg15
g16
sg17
I23
sg18
F1
sg19
g4
(g6
S'\x0b\xd7\xa3p=\n\xef?'
tRp216
sa(dp217
g3
g183
sg8
F0.5
sS'N'
I200
sg9
F0.98999999999999999
sg10
I11
sg11
g12
sg13
I23
sg14
I5
sg15
g16
sg17
I23
sg18
F1
sg19
g4
(g6
S']\x8f\xc2\xf5(\\\xef?'
tRp218
sa(dp219
g3
g183
sg8
F0.5
sS'N'
I200
sg9
F0.98999999999999999
sg10
I11
sg11
g12
sg13
I23
sg14
I5
sg15
g16
sg17
I23
sg18
F1
sg19
g4
(g6
S'\xafG\xe1z\x14\xae\xef?'
tRp220
sa(dp221
g3
g183
sg8
F0.5
sS'N'
I200
sg9
F0.98999999999999999
sg10
I11
sg11
g12
sg13
I23
sg14
I5
sg15
g16
sg17
I23
sg18
F1
sg19
g4
(g6
S'\x00\x00\x00\x00\x00\x00\xf0?'
tRp222
sa(dp223
g3
g4
(g6
S'\x87\x14\xaeG\xe1z\x84?'
tRp224
sg8
F0.5
sS'N'
I200
sg9
F0.98999999999999999
sg10
I11
sg11
g12
sg13
I23
sg14
I5
sg15
g16
sg17
I23
sg18
F1
sg19
g4
(g6
S'\x00\x00\x00\x00\x00\x00\x00\x00'
tRp225
sa(dp226
g3
g224
sg8
F0.5
sS'N'
I200
sg9
F0.98999999999999999
sg10
I11
sg11
g12
sg13
I23
sg14
I5
sg15
g16
sg17
I23
sg18
F1
sg19
g4
(g6
S'\x9a\x99\x99\x99\x99\x99\xb9?'
tRp227
sa(dp228
g3
g224
sg8
F0.5
sS'N'
I200
sg9
F0.98999999999999999
sg10
I11
sg11
g12
sg13
I23
sg14
I5
sg15
g16
sg17
I23
sg18
F1
sg19
g4
(g6
S'\x9a\x99\x99\x99\x99\x99\xc9?'
tRp229
sa(dp230
g3
g224
sg8
F0.5
sS'N'
I200
sg9
F0.98999999999999999
sg10
I11
sg11
g12
sg13
I23
sg14
I5
sg15
g16
sg17
I23
sg18
F1
sg19
g4
(g6
S'433333\xd3?'
tRp231
sa(dp232
g3
g224
sg8
F0.5
sS'N'
I200
sg9
F0.98999999999999999
sg10
I11
sg11
g12
sg13
I23
sg14
I5
sg15
g16
sg17
I23
sg18
F1
sg19
g4
(g6
S'\x9a\x99\x99\x99\x99\x99\xd9?'
tRp233
sa(dp234
g3
g224
sg8
F0.5
sS'N'
I200
sg9
F0.98999999999999999
sg10
I11
sg11
g12
sg13
I23
sg14
I5
sg15
g16
sg17
I23
sg18
F1
sg19
g4
(g6
S'\x00\x00\x00\x00\x00\x00\xe0?'
tRp235
sa(dp236
g3
g224
sg8
F0.5
sS'N'
I200
sg9
F0.98999999999999999
sg10
I11
sg11
g12
sg13
I23
sg14
I5
sg15
g16
sg17
I23
sg18
F1
sg19
g4
(g6
S'433333\xe3?'
tRp237
sa(dp238
g3
g224
sg8
F0.5
sS'N'
I200
sg9
F0.98999999999999999
sg10
I11
sg11
g12
sg13
I23
sg14
I5
sg15
g16
sg17
I23
sg18
F1
sg19
g4
(g6
S'gfffff\xe6?'
tRp239
sa(dp240
g3
g224
sg8
F0.5
sS'N'
I200
sg9
F0.98999999999999999
sg10
I11
sg11
g12
sg13
I23
sg14
I5
sg15
g16
sg17
I23
sg18
F1
sg19
g4
(g6
S'\x9a\x99\x99\x99\x99\x99\xe9?'
tRp241
sa(dp242
g3
g224
sg8
F0.5
sS'N'
I200
sg9
F0.98999999999999999
sg10
I11
sg11
g12
sg13
I23
sg14
I5
sg15
g16
sg17
I23
sg18
F1
sg19
g4
(g6
S'\xcd\xcc\xcc\xcc\xcc\xcc\xec?'
tRp243
sa(dp244
g3
g224
sg8
F0.5
sS'N'
I200
sg9
F0.98999999999999999
sg10
I11
sg11
g12
sg13
I23
sg14
I5
sg15
g16
sg17
I23
sg18
F1
sg19
g4
(g6
S'\x1f\x85\xebQ\xb8\x1e\xed?'
tRp245
sa(dp246
g3
g224
sg8
F0.5
sS'N'
I200
sg9
F0.98999999999999999
sg10
I11
sg11
g12
sg13
I23
sg14
I5
sg15
g16
sg17
I23
sg18
F1
sg19
g4
(g6
S'q=\n\xd7\xa3p\xed?'
tRp247
sa(dp248
g3
g224
sg8
F0.5
sS'N'
I200
sg9
F0.98999999999999999
sg10
I11
sg11
g12
sg13
I23
sg14
I5
sg15
g16
sg17
I23
sg18
F1
sg19
g4
(g6
S'\xc3\xf5(\\\x8f\xc2\xed?'
tRp249
sa(dp250
g3
g224
sg8
F0.5
sS'N'
I200
sg9
F0.98999999999999999
sg10
I11
sg11
g12
sg13
I23
sg14
I5
sg15
g16
sg17
I23
sg18
F1
sg19
g4
(g6
S'\x15\xaeG\xe1z\x14\xee?'
tRp251
sa(dp252
g3
g224
sg8
F0.5
sS'N'
I200
sg9
F0.98999999999999999
sg10
I11
sg11
g12
sg13
I23
sg14
I5
sg15
g16
sg17
I23
sg18
F1
sg19
g4
(g6
S'gfffff\xee?'
tRp253
sa(dp254
g3
g224
sg8
F0.5
sS'N'
I200
sg9
F0.98999999999999999
sg10
I11
sg11
g12
sg13
I23
sg14
I5
sg15
g16
sg17
I23
sg18
F1
sg19
g4
(g6
S'\xb9\x1e\x85\xebQ\xb8\xee?'
tRp255
sa(dp256
g3
g224
sg8
F0.5
sS'N'
I200
sg9
F0.98999999999999999
sg10
I11
sg11
g12
sg13
I23
sg14
I5
sg15
g16
sg17
I23
sg18
F1
sg19
g4
(g6
S'\x0b\xd7\xa3p=\n\xef?'
tRp257
sa(dp258
g3
g224
sg8
F0.5
sS'N'
I200
sg9
F0.98999999999999999
sg10
I11
sg11
g12
sg13
I23
sg14
I5
sg15
g16
sg17
I23
sg18
F1
sg19
g4
(g6
S']\x8f\xc2\xf5(\\\xef?'
tRp259
sa(dp260
g3
g224
sg8
F0.5
sS'N'
I200
sg9
F0.98999999999999999
sg10
I11
sg11
g12
sg13
I23
sg14
I5
sg15
g16
sg17
I23
sg18
F1
sg19
g4
(g6
S'\xafG\xe1z\x14\xae\xef?'
tRp261
sa(dp262
g3
g224
sg8
F0.5
sS'N'
I200
sg9
F0.98999999999999999
sg10
I11
sg11
g12
sg13
I23
sg14
I5
sg15
g16
sg17
I23
sg18
F1
sg19
g4
(g6
S'\x00\x00\x00\x00\x00\x00\xf0?'
tRp263
sa(dp264
g3
g4
(g6
S'\xcf\xc2+\xd1\xb3:\x90?'
tRp265
sg8
F0.5
sS'N'
I200
sg9
F0.98999999999999999
sg10
I11
sg11
g12
sg13
I23
sg14
I5
sg15
g16
sg17
I23
sg18
F1
sg19
g4
(g6
S'\x00\x00\x00\x00\x00\x00\x00\x00'
tRp266
sa(dp267
g3
g265
sg8
F0.5
sS'N'
I200
sg9
F0.98999999999999999
sg10
I11
sg11
g12
sg13
I23
sg14
I5
sg15
g16
sg17
I23
sg18
F1
sg19
g4
(g6
S'\x9a\x99\x99\x99\x99\x99\xb9?'
tRp268
sa(dp269
g3
g265
sg8
F0.5
sS'N'
I200
sg9
F0.98999999999999999
sg10
I11
sg11
g12
sg13
I23
sg14
I5
sg15
g16
sg17
I23
sg18
F1
sg19
g4
(g6
S'\x9a\x99\x99\x99\x99\x99\xc9?'
tRp270
sa(dp271
g3
g265
sg8
F0.5
sS'N'
I200
sg9
F0.98999999999999999
sg10
I11
sg11
g12
sg13
I23
sg14
I5
sg15
g16
sg17
I23
sg18
F1
sg19
g4
(g6
S'433333\xd3?'
tRp272
sa(dp273
g3
g265
sg8
F0.5
sS'N'
I200
sg9
F0.98999999999999999
sg10
I11
sg11
g12
sg13
I23
sg14
I5
sg15
g16
sg17
I23
sg18
F1
sg19
g4
(g6
S'\x9a\x99\x99\x99\x99\x99\xd9?'
tRp274
sa(dp275
g3
g265
sg8
F0.5
sS'N'
I200
sg9
F0.98999999999999999
sg10
I11
sg11
g12
sg13
I23
sg14
I5
sg15
g16
sg17
I23
sg18
F1
sg19
g4
(g6
S'\x00\x00\x00\x00\x00\x00\xe0?'
tRp276
sa(dp277
g3
g265
sg8
F0.5
sS'N'
I200
sg9
F0.98999999999999999
sg10
I11
sg11
g12
sg13
I23
sg14
I5
sg15
g16
sg17
I23
sg18
F1
sg19
g4
(g6
S'433333\xe3?'
tRp278
sa(dp279
g3
g265
sg8
F0.5
sS'N'
I200
sg9
F0.98999999999999999
sg10
I11
sg11
g12
sg13
I23
sg14
I5
sg15
g16
sg17
I23
sg18
F1
sg19
g4
(g6
S'gfffff\xe6?'
tRp280
sa(dp281
g3
g265
sg8
F0.5
sS'N'
I200
sg9
F0.98999999999999999
sg10
I11
sg11
g12
sg13
I23
sg14
I5
sg15
g16
sg17
I23
sg18
F1
sg19
g4
(g6
S'\x9a\x99\x99\x99\x99\x99\xe9?'
tRp282
sa(dp283
g3
g265
sg8
F0.5
sS'N'
I200
sg9
F0.98999999999999999
sg10
I11
sg11
g12
sg13
I23
sg14
I5
sg15
g16
sg17
I23
sg18
F1
sg19
g4
(g6
S'\xcd\xcc\xcc\xcc\xcc\xcc\xec?'
tRp284
sa(dp285
g3
g265
sg8
F0.5
sS'N'
I200
sg9
F0.98999999999999999
sg10
I11
sg11
g12
sg13
I23
sg14
I5
sg15
g16
sg17
I23
sg18
F1
sg19
g4
(g6
S'\x1f\x85\xebQ\xb8\x1e\xed?'
tRp286
sa(dp287
g3
g265
sg8
F0.5
sS'N'
I200
sg9
F0.98999999999999999
sg10
I11
sg11
g12
sg13
I23
sg14
I5
sg15
g16
sg17
I23
sg18
F1
sg19
g4
(g6
S'q=\n\xd7\xa3p\xed?'
tRp288
sa(dp289
g3
g265
sg8
F0.5
sS'N'
I200
sg9
F0.98999999999999999
sg10
I11
sg11
g12
sg13
I23
sg14
I5
sg15
g16
sg17
I23
sg18
F1
sg19
g4
(g6
S'\xc3\xf5(\\\x8f\xc2\xed?'
tRp290
sa(dp291
g3
g265
sg8
F0.5
sS'N'
I200
sg9
F0.98999999999999999
sg10
I11
sg11
g12
sg13
I23
sg14
I5
sg15
g16
sg17
I23
sg18
F1
sg19
g4
(g6
S'\x15\xaeG\xe1z\x14\xee?'
tRp292
sa(dp293
g3
g265
sg8
F0.5
sS'N'
I200
sg9
F0.98999999999999999
sg10
I11
sg11
g12
sg13
I23
sg14
I5
sg15
g16
sg17
I23
sg18
F1
sg19
g4
(g6
S'gfffff\xee?'
tRp294
sa(dp295
g3
g265
sg8
F0.5
sS'N'
I200
sg9
F0.98999999999999999
sg10
I11
sg11
g12
sg13
I23
sg14
I5
sg15
g16
sg17
I23
sg18
F1
sg19
g4
(g6
S'\xb9\x1e\x85\xebQ\xb8\xee?'
tRp296
sa(dp297
g3
g265
sg8
F0.5
sS'N'
I200
sg9
F0.98999999999999999
sg10
I11
sg11
g12
sg13
I23
sg14
I5
sg15
g16
sg17
I23
sg18
F1
sg19
g4
(g6
S'\x0b\xd7\xa3p=\n\xef?'
tRp298
sa(dp299
g3
g265
sg8
F0.5
sS'N'
I200
sg9
F0.98999999999999999
sg10
I11
sg11
g12
sg13
I23
sg14
I5
sg15
g16
sg17
I23
sg18
F1
sg19
g4
(g6
S']\x8f\xc2\xf5(\\\xef?'
tRp300
sa(dp301
g3
g265
sg8
F0.5
sS'N'
I200
sg9
F0.98999999999999999
sg10
I11
sg11
g12
sg13
I23
sg14
I5
sg15
g16
sg17
I23
sg18
F1
sg19
g4
(g6
S'\xafG\xe1z\x14\xae\xef?'
tRp302
sa(dp303
g3
g265
sg8
F0.5
sS'N'
I200
sg9
F0.98999999999999999
sg10
I11
sg11
g12
sg13
I23
sg14
I5
sg15
g16
sg17
I23
sg18
F1
sg19
g4
(g6
S'\x00\x00\x00\x00\x00\x00\xf0?'
tRp304
sa(dp305
g3
g4
(g6
S'\xf5\xe6\xfbr\xc2\xb8\x99?'
tRp306
sg8
F0.5
sS'N'
I200
sg9
F0.98999999999999999
sg10
I11
sg11
g12
sg13
I23
sg14
I5
sg15
g16
sg17
I23
sg18
F1
sg19
g4
(g6
S'\x00\x00\x00\x00\x00\x00\x00\x00'
tRp307
sa(dp308
g3
g306
sg8
F0.5
sS'N'
I200
sg9
F0.98999999999999999
sg10
I11
sg11
g12
sg13
I23
sg14
I5
sg15
g16
sg17
I23
sg18
F1
sg19
g4
(g6
S'\x9a\x99\x99\x99\x99\x99\xb9?'
tRp309
sa(dp310
g3
g306
sg8
F0.5
sS'N'
I200
sg9
F0.98999999999999999
sg10
I11
sg11
g12
sg13
I23
sg14
I5
sg15
g16
sg17
I23
sg18
F1
sg19
g4
(g6
S'\x9a\x99\x99\x99\x99\x99\xc9?'
tRp311
sa(dp312
g3
g306
sg8
F0.5
sS'N'
I200
sg9
F0.98999999999999999
sg10
I11
sg11
g12
sg13
I23
sg14
I5
sg15
g16
sg17
I23
sg18
F1
sg19
g4
(g6
S'433333\xd3?'
tRp313
sa(dp314
g3
g306
sg8
F0.5
sS'N'
I200
sg9
F0.98999999999999999
sg10
I11
sg11
g12
sg13
I23
sg14
I5
sg15
g16
sg17
I23
sg18
F1
sg19
g4
(g6
S'\x9a\x99\x99\x99\x99\x99\xd9?'
tRp315
sa(dp316
g3
g306
sg8
F0.5
sS'N'
I200
sg9
F0.98999999999999999
sg10
I11
sg11
g12
sg13
I23
sg14
I5
sg15
g16
sg17
I23
sg18
F1
sg19
g4
(g6
S'\x00\x00\x00\x00\x00\x00\xe0?'
tRp317
sa(dp318
g3
g306
sg8
F0.5
sS'N'
I200
sg9
F0.98999999999999999
sg10
I11
sg11
g12
sg13
I23
sg14
I5
sg15
g16
sg17
I23
sg18
F1
sg19
g4
(g6
S'433333\xe3?'
tRp319
sa(dp320
g3
g306
sg8
F0.5
sS'N'
I200
sg9
F0.98999999999999999
sg10
I11
sg11
g12
sg13
I23
sg14
I5
sg15
g16
sg17
I23
sg18
F1
sg19
g4
(g6
S'gfffff\xe6?'
tRp321
sa(dp322
g3
g306
sg8
F0.5
sS'N'
I200
sg9
F0.98999999999999999
sg10
I11
sg11
g12
sg13
I23
sg14
I5
sg15
g16
sg17
I23
sg18
F1
sg19
g4
(g6
S'\x9a\x99\x99\x99\x99\x99\xe9?'
tRp323
sa(dp324
g3
g306
sg8
F0.5
sS'N'
I200
sg9
F0.98999999999999999
sg10
I11
sg11
g12
sg13
I23
sg14
I5
sg15
g16
sg17
I23
sg18
F1
sg19
g4
(g6
S'\xcd\xcc\xcc\xcc\xcc\xcc\xec?'
tRp325
sa(dp326
g3
g306
sg8
F0.5
sS'N'
I200
sg9
F0.98999999999999999
sg10
I11
sg11
g12
sg13
I23
sg14
I5
sg15
g16
sg17
I23
sg18
F1
sg19
g4
(g6
S'\x1f\x85\xebQ\xb8\x1e\xed?'
tRp327
sa(dp328
g3
g306
sg8
F0.5
sS'N'
I200
sg9
F0.98999999999999999
sg10
I11
sg11
g12
sg13
I23
sg14
I5
sg15
g16
sg17
I23
sg18
F1
sg19
g4
(g6
S'q=\n\xd7\xa3p\xed?'
tRp329
sa(dp330
g3
g306
sg8
F0.5
sS'N'
I200
sg9
F0.98999999999999999
sg10
I11
sg11
g12
sg13
I23
sg14
I5
sg15
g16
sg17
I23
sg18
F1
sg19
g4
(g6
S'\xc3\xf5(\\\x8f\xc2\xed?'
tRp331
sa(dp332
g3
g306
sg8
F0.5
sS'N'
I200
sg9
F0.98999999999999999
sg10
I11
sg11
g12
sg13
I23
sg14
I5
sg15
g16
sg17
I23
sg18
F1
sg19
g4
(g6
S'\x15\xaeG\xe1z\x14\xee?'
tRp333
sa(dp334
g3
g306
sg8
F0.5
sS'N'
I200
sg9
F0.98999999999999999
sg10
I11
sg11
g12
sg13
I23
sg14
I5
sg15
g16
sg17
I23
sg18
F1
sg19
g4
(g6
S'gfffff\xee?'
tRp335
sa(dp336
g3
g306
sg8
F0.5
sS'N'
I200
sg9
F0.98999999999999999
sg10
I11
sg11
g12
sg13
I23
sg14
I5
sg15
g16
sg17
I23
sg18
F1
sg19
g4
(g6
S'\xb9\x1e\x85\xebQ\xb8\xee?'
tRp337
sa(dp338
g3
g306
sg8
F0.5
sS'N'
I200
sg9
F0.98999999999999999
sg10
I11
sg11
g12
sg13
I23
sg14
I5
sg15
g16
sg17
I23
sg18
F1
sg19
g4
(g6
S'\x0b\xd7\xa3p=\n\xef?'
tRp339
sa(dp340
g3
g306
sg8
F0.5
sS'N'
I200
sg9
F0.98999999999999999
sg10
I11
sg11
g12
sg13
I23
sg14
I5
sg15
g16
sg17
I23
sg18
F1
sg19
g4
(g6
S']\x8f\xc2\xf5(\\\xef?'
tRp341
sa(dp342
g3
g306
sg8
F0.5
sS'N'
I200
sg9
F0.98999999999999999
sg10
I11
sg11
g12
sg13
I23
sg14
I5
sg15
g16
sg17
I23
sg18
F1
sg19
g4
(g6
S'\xafG\xe1z\x14\xae\xef?'
tRp343
sa(dp344
g3
g306
sg8
F0.5
sS'N'
I200
sg9
F0.98999999999999999
sg10
I11
sg11
g12
sg13
I23
sg14
I5
sg15
g16
sg17
I23
sg18
F1
sg19
g4
(g6
S'\x00\x00\x00\x00\x00\x00\xf0?'
tRp345
sa(dp346
g3
g4
(g6
S';\xea\x90\xff\x11b\xa4?'
tRp347
sg8
F0.5
sS'N'
I200
sg9
F0.98999999999999999
sg10
I11
sg11
g12
sg13
I23
sg14
I5
sg15
g16
sg17
I23
sg18
F1
sg19
g4
(g6
S'\x00\x00\x00\x00\x00\x00\x00\x00'
tRp348
sa(dp349
g3
g347
sg8
F0.5
sS'N'
I200
sg9
F0.98999999999999999
sg10
I11
sg11
g12
sg13
I23
sg14
I5
sg15
g16
sg17
I23
sg18
F1
sg19
g4
(g6
S'\x9a\x99\x99\x99\x99\x99\xb9?'
tRp350
sa(dp351
g3
g347
sg8
F0.5
sS'N'
I200
sg9
F0.98999999999999999
sg10
I11
sg11
g12
sg13
I23
sg14
I5
sg15
g16
sg17
I23
sg18
F1
sg19
g4
(g6
S'\x9a\x99\x99\x99\x99\x99\xc9?'
tRp352
sa(dp353
g3
g347
sg8
F0.5
sS'N'
I200
sg9
F0.98999999999999999
sg10
I11
sg11
g12
sg13
I23
sg14
I5
sg15
g16
sg17
I23
sg18
F1
sg19
g4
(g6
S'433333\xd3?'
tRp354
sa(dp355
g3
g347
sg8
F0.5
sS'N'
I200
sg9
F0.98999999999999999
sg10
I11
sg11
g12
sg13
I23
sg14
I5
sg15
g16
sg17
I23
sg18
F1
sg19
g4
(g6
S'\x9a\x99\x99\x99\x99\x99\xd9?'
tRp356
sa(dp357
g3
g347
sg8
F0.5
sS'N'
I200
sg9
F0.98999999999999999
sg10
I11
sg11
g12
sg13
I23
sg14
I5
sg15
g16
sg17
I23
sg18
F1
sg19
g4
(g6
S'\x00\x00\x00\x00\x00\x00\xe0?'
tRp358
sa(dp359
g3
g347
sg8
F0.5
sS'N'
I200
sg9
F0.98999999999999999
sg10
I11
sg11
g12
sg13
I23
sg14
I5
sg15
g16
sg17
I23
sg18
F1
sg19
g4
(g6
S'433333\xe3?'
tRp360
sa(dp361
g3
g347
sg8
F0.5
sS'N'
I200
sg9
F0.98999999999999999
sg10
I11
sg11
g12
sg13
I23
sg14
I5
sg15
g16
sg17
I23
sg18
F1
sg19
g4
(g6
S'gfffff\xe6?'
tRp362
sa(dp363
g3
g347
sg8
F0.5
sS'N'
I200
sg9
F0.98999999999999999
sg10
I11
sg11
g12
sg13
I23
sg14
I5
sg15
g16
sg17
I23
sg18
F1
sg19
g4
(g6
S'\x9a\x99\x99\x99\x99\x99\xe9?'
tRp364
sa(dp365
g3
g347
sg8
F0.5
sS'N'
I200
sg9
F0.98999999999999999
sg10
I11
sg11
g12
sg13
I23
sg14
I5
sg15
g16
sg17
I23
sg18
F1
sg19
g4
(g6
S'\xcd\xcc\xcc\xcc\xcc\xcc\xec?'
tRp366
sa(dp367
g3
g347
sg8
F0.5
sS'N'
I200
sg9
F0.98999999999999999
sg10
I11
sg11
g12
sg13
I23
sg14
I5
sg15
g16
sg17
I23
sg18
F1
sg19
g4
(g6
S'\x1f\x85\xebQ\xb8\x1e\xed?'
tRp368
sa(dp369
g3
g347
sg8
F0.5
sS'N'
I200
sg9
F0.98999999999999999
sg10
I11
sg11
g12
sg13
I23
sg14
I5
sg15
g16
sg17
I23
sg18
F1
sg19
g4
(g6
S'q=\n\xd7\xa3p\xed?'
tRp370
sa(dp371
g3
g347
sg8
F0.5
sS'N'
I200
sg9
F0.98999999999999999
sg10
I11
sg11
g12
sg13
I23
sg14
I5
sg15
g16
sg17
I23
sg18
F1
sg19
g4
(g6
S'\xc3\xf5(\\\x8f\xc2\xed?'
tRp372
sa(dp373
g3
g347
sg8
F0.5
sS'N'
I200
sg9
F0.98999999999999999
sg10
I11
sg11
g12
sg13
I23
sg14
I5
sg15
g16
sg17
I23
sg18
F1
sg19
g4
(g6
S'\x15\xaeG\xe1z\x14\xee?'
tRp374
sa(dp375
g3
g347
sg8
F0.5
sS'N'
I200
sg9
F0.98999999999999999
sg10
I11
sg11
g12
sg13
I23
sg14
I5
sg15
g16
sg17
I23
sg18
F1
sg19
g4
(g6
S'gfffff\xee?'
tRp376
sa(dp377
g3
g347
sg8
F0.5
sS'N'
I200
sg9
F0.98999999999999999
sg10
I11
sg11
g12
sg13
I23
sg14
I5
sg15
g16
sg17
I23
sg18
F1
sg19
g4
(g6
S'\xb9\x1e\x85\xebQ\xb8\xee?'
tRp378
sa(dp379
g3
g347
sg8
F0.5
sS'N'
I200
sg9
F0.98999999999999999
sg10
I11
sg11
g12
sg13
I23
sg14
I5
sg15
g16
sg17
I23
sg18
F1
sg19
g4
(g6
S'\x0b\xd7\xa3p=\n\xef?'
tRp380
sa(dp381
g3
g347
sg8
F0.5
sS'N'
I200
sg9
F0.98999999999999999
sg10
I11
sg11
g12
sg13
I23
sg14
I5
sg15
g16
sg17
I23
sg18
F1
sg19
g4
(g6
S']\x8f\xc2\xf5(\\\xef?'
tRp382
sa(dp383
g3
g347
sg8
F0.5
sS'N'
I200
sg9
F0.98999999999999999
sg10
I11
sg11
g12
sg13
I23
sg14
I5
sg15
g16
sg17
I23
sg18
F1
sg19
g4
(g6
S'\xafG\xe1z\x14\xae\xef?'
tRp384
sa(dp385
g3
g347
sg8
F0.5
sS'N'
I200
sg9
F0.98999999999999999
sg10
I11
sg11
g12
sg13
I23
sg14
I5
sg15
g16
sg17
I23
sg18
F1
sg19
g4
(g6
S'\x00\x00\x00\x00\x00\x00\xf0?'
tRp386
sa(dp387
g3
g4
(g6
S"\n\xaa\xf8\xc3\n'\xb0?"
tRp388
sg8
F0.5
sS'N'
I200
sg9
F0.98999999999999999
sg10
I11
sg11
g12
sg13
I23
sg14
I5
sg15
g16
sg17
I23
sg18
F1
sg19
g4
(g6
S'\x00\x00\x00\x00\x00\x00\x00\x00'
tRp389
sa(dp390
g3
g388
sg8
F0.5
sS'N'
I200
sg9
F0.98999999999999999
sg10
I11
sg11
g12
sg13
I23
sg14
I5
sg15
g16
sg17
I23
sg18
F1
sg19
g4
(g6
S'\x9a\x99\x99\x99\x99\x99\xb9?'
tRp391
sa(dp392
g3
g388
sg8
F0.5
sS'N'
I200
sg9
F0.98999999999999999
sg10
I11
sg11
g12
sg13
I23
sg14
I5
sg15
g16
sg17
I23
sg18
F1
sg19
g4
(g6
S'\x9a\x99\x99\x99\x99\x99\xc9?'
tRp393
sa(dp394
g3
g388
sg8
F0.5
sS'N'
I200
sg9
F0.98999999999999999
sg10
I11
sg11
g12
sg13
I23
sg14
I5
sg15
g16
sg17
I23
sg18
F1
sg19
g4
(g6
S'433333\xd3?'
tRp395
sa(dp396
g3
g388
sg8
F0.5
sS'N'
I200
sg9
F0.98999999999999999
sg10
I11
sg11
g12
sg13
I23
sg14
I5
sg15
g16
sg17
I23
sg18
F1
sg19
g4
(g6
S'\x9a\x99\x99\x99\x99\x99\xd9?'
tRp397
sa(dp398
g3
g388
sg8
F0.5
sS'N'
I200
sg9
F0.98999999999999999
sg10
I11
sg11
g12
sg13
I23
sg14
I5
sg15
g16
sg17
I23
sg18
F1
sg19
g4
(g6
S'\x00\x00\x00\x00\x00\x00\xe0?'
tRp399
sa(dp400
g3
g388
sg8
F0.5
sS'N'
I200
sg9
F0.98999999999999999
sg10
I11
sg11
g12
sg13
I23
sg14
I5
sg15
g16
sg17
I23
sg18
F1
sg19
g4
(g6
S'433333\xe3?'
tRp401
sa(dp402
g3
g388
sg8
F0.5
sS'N'
I200
sg9
F0.98999999999999999
sg10
I11
sg11
g12
sg13
I23
sg14
I5
sg15
g16
sg17
I23
sg18
F1
sg19
g4
(g6
S'gfffff\xe6?'
tRp403
sa(dp404
g3
g388
sg8
F0.5
sS'N'
I200
sg9
F0.98999999999999999
sg10
I11
sg11
g12
sg13
I23
sg14
I5
sg15
g16
sg17
I23
sg18
F1
sg19
g4
(g6
S'\x9a\x99\x99\x99\x99\x99\xe9?'
tRp405
sa(dp406
g3
g388
sg8
F0.5
sS'N'
I200
sg9
F0.98999999999999999
sg10
I11
sg11
g12
sg13
I23
sg14
I5
sg15
g16
sg17
I23
sg18
F1
sg19
g4
(g6
S'\xcd\xcc\xcc\xcc\xcc\xcc\xec?'
tRp407
sa(dp408
g3
g388
sg8
F0.5
sS'N'
I200
sg9
F0.98999999999999999
sg10
I11
sg11
g12
sg13
I23
sg14
I5
sg15
g16
sg17
I23
sg18
F1
sg19
g4
(g6
S'\x1f\x85\xebQ\xb8\x1e\xed?'
tRp409
sa(dp410
g3
g388
sg8
F0.5
sS'N'
I200
sg9
F0.98999999999999999
sg10
I11
sg11
g12
sg13
I23
sg14
I5
sg15
g16
sg17
I23
sg18
F1
sg19
g4
(g6
S'q=\n\xd7\xa3p\xed?'
tRp411
sa(dp412
g3
g388
sg8
F0.5
sS'N'
I200
sg9
F0.98999999999999999
sg10
I11
sg11
g12
sg13
I23
sg14
I5
sg15
g16
sg17
I23
sg18
F1
sg19
g4
(g6
S'\xc3\xf5(\\\x8f\xc2\xed?'
tRp413
sa(dp414
g3
g388
sg8
F0.5
sS'N'
I200
sg9
F0.98999999999999999
sg10
I11
sg11
g12
sg13
I23
sg14
I5
sg15
g16
sg17
I23
sg18
F1
sg19
g4
(g6
S'\x15\xaeG\xe1z\x14\xee?'
tRp415
sa(dp416
g3
g388
sg8
F0.5
sS'N'
I200
sg9
F0.98999999999999999
sg10
I11
sg11
g12
sg13
I23
sg14
I5
sg15
g16
sg17
I23
sg18
F1
sg19
g4
(g6
S'gfffff\xee?'
tRp417
sa(dp418
g3
g388
sg8
F0.5
sS'N'
I200
sg9
F0.98999999999999999
sg10
I11
sg11
g12
sg13
I23
sg14
I5
sg15
g16
sg17
I23
sg18
F1
sg19
g4
(g6
S'\xb9\x1e\x85\xebQ\xb8\xee?'
tRp419
sa(dp420
g3
g388
sg8
F0.5
sS'N'
I200
sg9
F0.98999999999999999
sg10
I11
sg11
g12
sg13
I23
sg14
I5
sg15
g16
sg17
I23
sg18
F1
sg19
g4
(g6
S'\x0b\xd7\xa3p=\n\xef?'
tRp421
sa(dp422
g3
g388
sg8
F0.5
sS'N'
I200
sg9
F0.98999999999999999
sg10
I11
sg11
g12
sg13
I23
sg14
I5
sg15
g16
sg17
I23
sg18
F1
sg19
g4
(g6
S']\x8f\xc2\xf5(\\\xef?'
tRp423
sa(dp424
g3
g388
sg8
F0.5
sS'N'
I200
sg9
F0.98999999999999999
sg10
I11
sg11
g12
sg13
I23
sg14
I5
sg15
g16
sg17
I23
sg18
F1
sg19
g4
(g6
S'\xafG\xe1z\x14\xae\xef?'
tRp425
sa(dp426
g3
g388
sg8
F0.5
sS'N'
I200
sg9
F0.98999999999999999
sg10
I11
sg11
g12
sg13
I23
sg14
I5
sg15
g16
sg17
I23
sg18
F1
sg19
g4
(g6
S'\x00\x00\x00\x00\x00\x00\xf0?'
tRp427
sa(dp428
g3
g4
(g6
S'\xb7\x99\x99\x99\x99\x99\xb9?'
tRp429
sg8
F0.5
sS'N'
I200
sg9
F0.98999999999999999
sg10
I11
sg11
g12
sg13
I23
sg14
I5
sg15
g16
sg17
I23
sg18
F1
sg19
g4
(g6
S'\x00\x00\x00\x00\x00\x00\x00\x00'
tRp430
sa(dp431
g3
g429
sg8
F0.5
sS'N'
I200
sg9
F0.98999999999999999
sg10
I11
sg11
g12
sg13
I23
sg14
I5
sg15
g16
sg17
I23
sg18
F1
sg19
g4
(g6
S'\x9a\x99\x99\x99\x99\x99\xb9?'
tRp432
sa(dp433
g3
g429
sg8
F0.5
sS'N'
I200
sg9
F0.98999999999999999
sg10
I11
sg11
g12
sg13
I23
sg14
I5
sg15
g16
sg17
I23
sg18
F1
sg19
g4
(g6
S'\x9a\x99\x99\x99\x99\x99\xc9?'
tRp434
sa(dp435
g3
g429
sg8
F0.5
sS'N'
I200
sg9
F0.98999999999999999
sg10
I11
sg11
g12
sg13
I23
sg14
I5
sg15
g16
sg17
I23
sg18
F1
sg19
g4
(g6
S'433333\xd3?'
tRp436
sa(dp437
g3
g429
sg8
F0.5
sS'N'
I200
sg9
F0.98999999999999999
sg10
I11
sg11
g12
sg13
I23
sg14
I5
sg15
g16
sg17
I23
sg18
F1
sg19
g4
(g6
S'\x9a\x99\x99\x99\x99\x99\xd9?'
tRp438
sa(dp439
g3
g429
sg8
F0.5
sS'N'
I200
sg9
F0.98999999999999999
sg10
I11
sg11
g12
sg13
I23
sg14
I5
sg15
g16
sg17
I23
sg18
F1
sg19
g4
(g6
S'\x00\x00\x00\x00\x00\x00\xe0?'
tRp440
sa(dp441
g3
g429
sg8
F0.5
sS'N'
I200
sg9
F0.98999999999999999
sg10
I11
sg11
g12
sg13
I23
sg14
I5
sg15
g16
sg17
I23
sg18
F1
sg19
g4
(g6
S'433333\xe3?'
tRp442
sa(dp443
g3
g429
sg8
F0.5
sS'N'
I200
sg9
F0.98999999999999999
sg10
I11
sg11
g12
sg13
I23
sg14
I5
sg15
g16
sg17
I23
sg18
F1
sg19
g4
(g6
S'gfffff\xe6?'
tRp444
sa(dp445
g3
g429
sg8
F0.5
sS'N'
I200
sg9
F0.98999999999999999
sg10
I11
sg11
g12
sg13
I23
sg14
I5
sg15
g16
sg17
I23
sg18
F1
sg19
g4
(g6
S'\x9a\x99\x99\x99\x99\x99\xe9?'
tRp446
sa(dp447
g3
g429
sg8
F0.5
sS'N'
I200
sg9
F0.98999999999999999
sg10
I11
sg11
g12
sg13
I23
sg14
I5
sg15
g16
sg17
I23
sg18
F1
sg19
g4
(g6
S'\xcd\xcc\xcc\xcc\xcc\xcc\xec?'
tRp448
sa(dp449
g3
g429
sg8
F0.5
sS'N'
I200
sg9
F0.98999999999999999
sg10
I11
sg11
g12
sg13
I23
sg14
I5
sg15
g16
sg17
I23
sg18
F1
sg19
g4
(g6
S'\x1f\x85\xebQ\xb8\x1e\xed?'
tRp450
sa(dp451
g3
g429
sg8
F0.5
sS'N'
I200
sg9
F0.98999999999999999
sg10
I11
sg11
g12
sg13
I23
sg14
I5
sg15
g16
sg17
I23
sg18
F1
sg19
g4
(g6
S'q=\n\xd7\xa3p\xed?'
tRp452
sa(dp453
g3
g429
sg8
F0.5
sS'N'
I200
sg9
F0.98999999999999999
sg10
I11
sg11
g12
sg13
I23
sg14
I5
sg15
g16
sg17
I23
sg18
F1
sg19
g4
(g6
S'\xc3\xf5(\\\x8f\xc2\xed?'
tRp454
sa(dp455
g3
g429
sg8
F0.5
sS'N'
I200
sg9
F0.98999999999999999
sg10
I11
sg11
g12
sg13
I23
sg14
I5
sg15
g16
sg17
I23
sg18
F1
sg19
g4
(g6
S'\x15\xaeG\xe1z\x14\xee?'
tRp456
sa(dp457
g3
g429
sg8
F0.5
sS'N'
I200
sg9
F0.98999999999999999
sg10
I11
sg11
g12
sg13
I23
sg14
I5
sg15
g16
sg17
I23
sg18
F1
sg19
g4
(g6
S'gfffff\xee?'
tRp458
sa(dp459
g3
g429
sg8
F0.5
sS'N'
I200
sg9
F0.98999999999999999
sg10
I11
sg11
g12
sg13
I23
sg14
I5
sg15
g16
sg17
I23
sg18
F1
sg19
g4
(g6
S'\xb9\x1e\x85\xebQ\xb8\xee?'
tRp460
sa(dp461
g3
g429
sg8
F0.5
sS'N'
I200
sg9
F0.98999999999999999
sg10
I11
sg11
g12
sg13
I23
sg14
I5
sg15
g16
sg17
I23
sg18
F1
sg19
g4
(g6
S'\x0b\xd7\xa3p=\n\xef?'
tRp462
sa(dp463
g3
g429
sg8
F0.5
sS'N'
I200
sg9
F0.98999999999999999
sg10
I11
sg11
g12
sg13
I23
sg14
I5
sg15
g16
sg17
I23
sg18
F1
sg19
g4
(g6
S']\x8f\xc2\xf5(\\\xef?'
tRp464
sa(dp465
g3
g429
sg8
F0.5
sS'N'
I200
sg9
F0.98999999999999999
sg10
I11
sg11
g12
sg13
I23
sg14
I5
sg15
g16
sg17
I23
sg18
F1
sg19
g4
(g6
S'\xafG\xe1z\x14\xae\xef?'
tRp466
sa(dp467
g3
g429
sg8
F0.5
sS'N'
I200
sg9
F0.98999999999999999
sg10
I11
sg11
g12
sg13
I23
sg14
I5
sg15
g16
sg17
I23
sg18
F1
sg19
g4
(g6
S'\x00\x00\x00\x00\x00\x00\xf0?'
tRp468
sa(dp469
g3
g4
(g6
S'\x8f\xb3v\xc5`I\xc4?'
tRp470
sg8
F0.5
sS'N'
I200
sg9
F0.98999999999999999
sg10
I11
sg11
g12
sg13
I23
sg14
I5
sg15
g16
sg17
I23
sg18
F1
sg19
g4
(g6
S'\x00\x00\x00\x00\x00\x00\x00\x00'
tRp471
sa(dp472
g3
g470
sg8
F0.5
sS'N'
I200
sg9
F0.98999999999999999
sg10
I11
sg11
g12
sg13
I23
sg14
I5
sg15
g16
sg17
I23
sg18
F1
sg19
g4
(g6
S'\x9a\x99\x99\x99\x99\x99\xb9?'
tRp473
sa(dp474
g3
g470
sg8
F0.5
sS'N'
I200
sg9
F0.98999999999999999
sg10
I11
sg11
g12
sg13
I23
sg14
I5
sg15
g16
sg17
I23
sg18
F1
sg19
g4
(g6
S'\x9a\x99\x99\x99\x99\x99\xc9?'
tRp475
sa(dp476
g3
g470
sg8
F0.5
sS'N'
I200
sg9
F0.98999999999999999
sg10
I11
sg11
g12
sg13
I23
sg14
I5
sg15
g16
sg17
I23
sg18
F1
sg19
g4
(g6
S'433333\xd3?'
tRp477
sa(dp478
g3
g470
sg8
F0.5
sS'N'
I200
sg9
F0.98999999999999999
sg10
I11
sg11
g12
sg13
I23
sg14
I5
sg15
g16
sg17
I23
sg18
F1
sg19
g4
(g6
S'\x9a\x99\x99\x99\x99\x99\xd9?'
tRp479
sa(dp480
g3
g470
sg8
F0.5
sS'N'
I200
sg9
F0.98999999999999999
sg10
I11
sg11
g12
sg13
I23
sg14
I5
sg15
g16
sg17
I23
sg18
F1
sg19
g4
(g6
S'\x00\x00\x00\x00\x00\x00\xe0?'
tRp481
sa(dp482
g3
g470
sg8
F0.5
sS'N'
I200
sg9
F0.98999999999999999
sg10
I11
sg11
g12
sg13
I23
sg14
I5
sg15
g16
sg17
I23
sg18
F1
sg19
g4
(g6
S'433333\xe3?'
tRp483
sa(dp484
g3
g470
sg8
F0.5
sS'N'
I200
sg9
F0.98999999999999999
sg10
I11
sg11
g12
sg13
I23
sg14
I5
sg15
g16
sg17
I23
sg18
F1
sg19
g4
(g6
S'gfffff\xe6?'
tRp485
sa(dp486
g3
g470
sg8
F0.5
sS'N'
I200
sg9
F0.98999999999999999
sg10
I11
sg11
g12
sg13
I23
sg14
I5
sg15
g16
sg17
I23
sg18
F1
sg19
g4
(g6
S'\x9a\x99\x99\x99\x99\x99\xe9?'
tRp487
sa(dp488
g3
g470
sg8
F0.5
sS'N'
I200
sg9
F0.98999999999999999
sg10
I11
sg11
g12
sg13
I23
sg14
I5
sg15
g16
sg17
I23
sg18
F1
sg19
g4
(g6
S'\xcd\xcc\xcc\xcc\xcc\xcc\xec?'
tRp489
sa(dp490
g3
g470
sg8
F0.5
sS'N'
I200
sg9
F0.98999999999999999
sg10
I11
sg11
g12
sg13
I23
sg14
I5
sg15
g16
sg17
I23
sg18
F1
sg19
g4
(g6
S'\x1f\x85\xebQ\xb8\x1e\xed?'
tRp491
sa(dp492
g3
g470
sg8
F0.5
sS'N'
I200
sg9
F0.98999999999999999
sg10
I11
sg11
g12
sg13
I23
sg14
I5
sg15
g16
sg17
I23
sg18
F1
sg19
g4
(g6
S'q=\n\xd7\xa3p\xed?'
tRp493
sa(dp494
g3
g470
sg8
F0.5
sS'N'
I200
sg9
F0.98999999999999999
sg10
I11
sg11
g12
sg13
I23
sg14
I5
sg15
g16
sg17
I23
sg18
F1
sg19
g4
(g6
S'\xc3\xf5(\\\x8f\xc2\xed?'
tRp495
sa(dp496
g3
g470
sg8
F0.5
sS'N'
I200
sg9
F0.98999999999999999
sg10
I11
sg11
g12
sg13
I23
sg14
I5
sg15
g16
sg17
I23
sg18
F1
sg19
g4
(g6
S'\x15\xaeG\xe1z\x14\xee?'
tRp497
sa(dp498
g3
g470
sg8
F0.5
sS'N'
I200
sg9
F0.98999999999999999
sg10
I11
sg11
g12
sg13
I23
sg14
I5
sg15
g16
sg17
I23
sg18
F1
sg19
g4
(g6
S'gfffff\xee?'
tRp499
sa(dp500
g3
g470
sg8
F0.5
sS'N'
I200
sg9
F0.98999999999999999
sg10
I11
sg11
g12
sg13
I23
sg14
I5
sg15
g16
sg17
I23
sg18
F1
sg19
g4
(g6
S'\xb9\x1e\x85\xebQ\xb8\xee?'
tRp501
sa(dp502
g3
g470
sg8
F0.5
sS'N'
I200
sg9
F0.98999999999999999
sg10
I11
sg11
g12
sg13
I23
sg14
I5
sg15
g16
sg17
I23
sg18
F1
sg19
g4
(g6
S'\x0b\xd7\xa3p=\n\xef?'
tRp503
sa(dp504
g3
g470
sg8
F0.5
sS'N'
I200
sg9
F0.98999999999999999
sg10
I11
sg11
g12
sg13
I23
sg14
I5
sg15
g16
sg17
I23
sg18
F1
sg19
g4
(g6
S']\x8f\xc2\xf5(\\\xef?'
tRp505
sa(dp506
g3
g470
sg8
F0.5
sS'N'
I200
sg9
F0.98999999999999999
sg10
I11
sg11
g12
sg13
I23
sg14
I5
sg15
g16
sg17
I23
sg18
F1
sg19
g4
(g6
S'\xafG\xe1z\x14\xae\xef?'
tRp507
sa(dp508
g3
g470
sg8
F0.5
sS'N'
I200
sg9
F0.98999999999999999
sg10
I11
sg11
g12
sg13
I23
sg14
I5
sg15
g16
sg17
I23
sg18
F1
sg19
g4
(g6
S'\x00\x00\x00\x00\x00\x00\xf0?'
tRp509
sa(dp510
g3
g4
(g6
S'bp\xdd\x87y\x13\xd0?'
tRp511
sg8
F0.5
sS'N'
I200
sg9
F0.98999999999999999
sg10
I11
sg11
g12
sg13
I23
sg14
I5
sg15
g16
sg17
I23
sg18
F1
sg19
g4
(g6
S'\x00\x00\x00\x00\x00\x00\x00\x00'
tRp512
sa(dp513
g3
g511
sg8
F0.5
sS'N'
I200
sg9
F0.98999999999999999
sg10
I11
sg11
g12
sg13
I23
sg14
I5
sg15
g16
sg17
I23
sg18
F1
sg19
g4
(g6
S'\x9a\x99\x99\x99\x99\x99\xb9?'
tRp514
sa(dp515
g3
g511
sg8
F0.5
sS'N'
I200
sg9
F0.98999999999999999
sg10
I11
sg11
g12
sg13
I23
sg14
I5
sg15
g16
sg17
I23
sg18
F1
sg19
g4
(g6
S'\x9a\x99\x99\x99\x99\x99\xc9?'
tRp516
sa(dp517
g3
g511
sg8
F0.5
sS'N'
I200
sg9
F0.98999999999999999
sg10
I11
sg11
g12
sg13
I23
sg14
I5
sg15
g16
sg17
I23
sg18
F1
sg19
g4
(g6
S'433333\xd3?'
tRp518
sa(dp519
g3
g511
sg8
F0.5
sS'N'
I200
sg9
F0.98999999999999999
sg10
I11
sg11
g12
sg13
I23
sg14
I5
sg15
g16
sg17
I23
sg18
F1
sg19
g4
(g6
S'\x9a\x99\x99\x99\x99\x99\xd9?'
tRp520
sa(dp521
g3
g511
sg8
F0.5
sS'N'
I200
sg9
F0.98999999999999999
sg10
I11
sg11
g12
sg13
I23
sg14
I5
sg15
g16
sg17
I23
sg18
F1
sg19
g4
(g6
S'\x00\x00\x00\x00\x00\x00\xe0?'
tRp522
sa(dp523
g3
g511
sg8
F0.5
sS'N'
I200
sg9
F0.98999999999999999
sg10
I11
sg11
g12
sg13
I23
sg14
I5
sg15
g16
sg17
I23
sg18
F1
sg19
g4
(g6
S'433333\xe3?'
tRp524
sa(dp525
g3
g511
sg8
F0.5
sS'N'
I200
sg9
F0.98999999999999999
sg10
I11
sg11
g12
sg13
I23
sg14
I5
sg15
g16
sg17
I23
sg18
F1
sg19
g4
(g6
S'gfffff\xe6?'
tRp526
sa(dp527
g3
g511
sg8
F0.5
sS'N'
I200
sg9
F0.98999999999999999
sg10
I11
sg11
g12
sg13
I23
sg14
I5
sg15
g16
sg17
I23
sg18
F1
sg19
g4
(g6
S'\x9a\x99\x99\x99\x99\x99\xe9?'
tRp528
sa(dp529
g3
g511
sg8
F0.5
sS'N'
I200
sg9
F0.98999999999999999
sg10
I11
sg11
g12
sg13
I23
sg14
I5
sg15
g16
sg17
I23
sg18
F1
sg19
g4
(g6
S'\xcd\xcc\xcc\xcc\xcc\xcc\xec?'
tRp530
sa(dp531
g3
g511
sg8
F0.5
sS'N'
I200
sg9
F0.98999999999999999
sg10
I11
sg11
g12
sg13
I23
sg14
I5
sg15
g16
sg17
I23
sg18
F1
sg19
g4
(g6
S'\x1f\x85\xebQ\xb8\x1e\xed?'
tRp532
sa(dp533
g3
g511
sg8
F0.5
sS'N'
I200
sg9
F0.98999999999999999
sg10
I11
sg11
g12
sg13
I23
sg14
I5
sg15
g16
sg17
I23
sg18
F1
sg19
g4
(g6
S'q=\n\xd7\xa3p\xed?'
tRp534
sa(dp535
g3
g511
sg8
F0.5
sS'N'
I200
sg9
F0.98999999999999999
sg10
I11
sg11
g12
sg13
I23
sg14
I5
sg15
g16
sg17
I23
sg18
F1
sg19
g4
(g6
S'\xc3\xf5(\\\x8f\xc2\xed?'
tRp536
sa(dp537
g3
g511
sg8
F0.5
sS'N'
I200
sg9
F0.98999999999999999
sg10
I11
sg11
g12
sg13
I23
sg14
I5
sg15
g16
sg17
I23
sg18
F1
sg19
g4
(g6
S'\x15\xaeG\xe1z\x14\xee?'
tRp538
sa(dp539
g3
g511
sg8
F0.5
sS'N'
I200
sg9
F0.98999999999999999
sg10
I11
sg11
g12
sg13
I23
sg14
I5
sg15
g16
sg17
I23
sg18
F1
sg19
g4
(g6
S'gfffff\xee?'
tRp540
sa(dp541
g3
g511
sg8
F0.5
sS'N'
I200
sg9
F0.98999999999999999
sg10
I11
sg11
g12
sg13
I23
sg14
I5
sg15
g16
sg17
I23
sg18
F1
sg19
g4
(g6
S'\xb9\x1e\x85\xebQ\xb8\xee?'
tRp542
sa(dp543
g3
g511
sg8
F0.5
sS'N'
I200
sg9
F0.98999999999999999
sg10
I11
sg11
g12
sg13
I23
sg14
I5
sg15
g16
sg17
I23
sg18
F1
sg19
g4
(g6
S'\x0b\xd7\xa3p=\n\xef?'
tRp544
sa(dp545
g3
g511
sg8
F0.5
sS'N'
I200
sg9
F0.98999999999999999
sg10
I11
sg11
g12
sg13
I23
sg14
I5
sg15
g16
sg17
I23
sg18
F1
sg19
g4
(g6
S']\x8f\xc2\xf5(\\\xef?'
tRp546
sa(dp547
g3
g511
sg8
F0.5
sS'N'
I200
sg9
F0.98999999999999999
sg10
I11
sg11
g12
sg13
I23
sg14
I5
sg15
g16
sg17
I23
sg18
F1
sg19
g4
(g6
S'\xafG\xe1z\x14\xae\xef?'
tRp548
sa(dp549
g3
g511
sg8
F0.5
sS'N'
I200
sg9
F0.98999999999999999
sg10
I11
sg11
g12
sg13
I23
sg14
I5
sg15
g16
sg17
I23
sg18
F1
sg19
g4
(g6
S'\x00\x00\x00\x00\x00\x00\xf0?'
tRp550
sa(dp551
g3
g4
(g6
S'\xd9$u\x7f\x96z\xd9?'
tRp552
sg8
F0.5
sS'N'
I200
sg9
F0.98999999999999999
sg10
I11
sg11
g12
sg13
I23
sg14
I5
sg15
g16
sg17
I23
sg18
F1
sg19
g4
(g6
S'\x00\x00\x00\x00\x00\x00\x00\x00'
tRp553
sa(dp554
g3
g552
sg8
F0.5
sS'N'
I200
sg9
F0.98999999999999999
sg10
I11
sg11
g12
sg13
I23
sg14
I5
sg15
g16
sg17
I23
sg18
F1
sg19
g4
(g6
S'\x9a\x99\x99\x99\x99\x99\xb9?'
tRp555
sa(dp556
g3
g552
sg8
F0.5
sS'N'
I200
sg9
F0.98999999999999999
sg10
I11
sg11
g12
sg13
I23
sg14
I5
sg15
g16
sg17
I23
sg18
F1
sg19
g4
(g6
S'\x9a\x99\x99\x99\x99\x99\xc9?'
tRp557
sa(dp558
g3
g552
sg8
F0.5
sS'N'
I200
sg9
F0.98999999999999999
sg10
I11
sg11
g12
sg13
I23
sg14
I5
sg15
g16
sg17
I23
sg18
F1
sg19
g4
(g6
S'433333\xd3?'
tRp559
sa(dp560
g3
g552
sg8
F0.5
sS'N'
I200
sg9
F0.98999999999999999
sg10
I11
sg11
g12
sg13
I23
sg14
I5
sg15
g16
sg17
I23
sg18
F1
sg19
g4
(g6
S'\x9a\x99\x99\x99\x99\x99\xd9?'
tRp561
sa(dp562
g3
g552
sg8
F0.5
sS'N'
I200
sg9
F0.98999999999999999
sg10
I11
sg11
g12
sg13
I23
sg14
I5
sg15
g16
sg17
I23
sg18
F1
sg19
g4
(g6
S'\x00\x00\x00\x00\x00\x00\xe0?'
tRp563
sa(dp564
g3
g552
sg8
F0.5
sS'N'
I200
sg9
F0.98999999999999999
sg10
I11
sg11
g12
sg13
I23
sg14
I5
sg15
g16
sg17
I23
sg18
F1
sg19
g4
(g6
S'433333\xe3?'
tRp565
sa(dp566
g3
g552
sg8
F0.5
sS'N'
I200
sg9
F0.98999999999999999
sg10
I11
sg11
g12
sg13
I23
sg14
I5
sg15
g16
sg17
I23
sg18
F1
sg19
g4
(g6
S'gfffff\xe6?'
tRp567
sa(dp568
g3
g552
sg8
F0.5
sS'N'
I200
sg9
F0.98999999999999999
sg10
I11
sg11
g12
sg13
I23
sg14
I5
sg15
g16
sg17
I23
sg18
F1
sg19
g4
(g6
S'\x9a\x99\x99\x99\x99\x99\xe9?'
tRp569
sa(dp570
g3
g552
sg8
F0.5
sS'N'
I200
sg9
F0.98999999999999999
sg10
I11
sg11
g12
sg13
I23
sg14
I5
sg15
g16
sg17
I23
sg18
F1
sg19
g4
(g6
S'\xcd\xcc\xcc\xcc\xcc\xcc\xec?'
tRp571
sa(dp572
g3
g552
sg8
F0.5
sS'N'
I200
sg9
F0.98999999999999999
sg10
I11
sg11
g12
sg13
I23
sg14
I5
sg15
g16
sg17
I23
sg18
F1
sg19
g4
(g6
S'\x1f\x85\xebQ\xb8\x1e\xed?'
tRp573
sa(dp574
g3
g552
sg8
F0.5
sS'N'
I200
sg9
F0.98999999999999999
sg10
I11
sg11
g12
sg13
I23
sg14
I5
sg15
g16
sg17
I23
sg18
F1
sg19
g4
(g6
S'q=\n\xd7\xa3p\xed?'
tRp575
sa(dp576
g3
g552
sg8
F0.5
sS'N'
I200
sg9
F0.98999999999999999
sg10
I11
sg11
g12
sg13
I23
sg14
I5
sg15
g16
sg17
I23
sg18
F1
sg19
g4
(g6
S'\xc3\xf5(\\\x8f\xc2\xed?'
tRp577
sa(dp578
g3
g552
sg8
F0.5
sS'N'
I200
sg9
F0.98999999999999999
sg10
I11
sg11
g12
sg13
I23
sg14
I5
sg15
g16
sg17
I23
sg18
F1
sg19
g4
(g6
S'\x15\xaeG\xe1z\x14\xee?'
tRp579
sa(dp580
g3
g552
sg8
F0.5
sS'N'
I200
sg9
F0.98999999999999999
sg10
I11
sg11
g12
sg13
I23
sg14
I5
sg15
g16
sg17
I23
sg18
F1
sg19
g4
(g6
S'gfffff\xee?'
tRp581
sa(dp582
g3
g552
sg8
F0.5
sS'N'
I200
sg9
F0.98999999999999999
sg10
I11
sg11
g12
sg13
I23
sg14
I5
sg15
g16
sg17
I23
sg18
F1
sg19
g4
(g6
S'\xb9\x1e\x85\xebQ\xb8\xee?'
tRp583
sa(dp584
g3
g552
sg8
F0.5
sS'N'
I200
sg9
F0.98999999999999999
sg10
I11
sg11
g12
sg13
I23
sg14
I5
sg15
g16
sg17
I23
sg18
F1
sg19
g4
(g6
S'\x0b\xd7\xa3p=\n\xef?'
tRp585
sa(dp586
g3
g552
sg8
F0.5
sS'N'
I200
sg9
F0.98999999999999999
sg10
I11
sg11
g12
sg13
I23
sg14
I5
sg15
g16
sg17
I23
sg18
F1
sg19
g4
(g6
S']\x8f\xc2\xf5(\\\xef?'
tRp587
sa(dp588
g3
g552
sg8
F0.5
sS'N'
I200
sg9
F0.98999999999999999
sg10
I11
sg11
g12
sg13
I23
sg14
I5
sg15
g16
sg17
I23
sg18
F1
sg19
g4
(g6
S'\xafG\xe1z\x14\xae\xef?'
tRp589
sa(dp590
g3
g552
sg8
F0.5
sS'N'
I200
sg9
F0.98999999999999999
sg10
I11
sg11
g12
sg13
I23
sg14
I5
sg15
g16
sg17
I23
sg18
F1
sg19
g4
(g6
S'\x00\x00\x00\x00\x00\x00\xf0?'
tRp591
sa(dp592
g3
g4
(g6
S'\x99\xd4\xf6t\xcd0\xe4?'
tRp593
sg8
F0.5
sS'N'
I200
sg9
F0.98999999999999999
sg10
I11
sg11
g12
sg13
I23
sg14
I5
sg15
g16
sg17
I23
sg18
F1
sg19
g4
(g6
S'\x00\x00\x00\x00\x00\x00\x00\x00'
tRp594
sa(dp595
g3
g593
sg8
F0.5
sS'N'
I200
sg9
F0.98999999999999999
sg10
I11
sg11
g12
sg13
I23
sg14
I5
sg15
g16
sg17
I23
sg18
F1
sg19
g4
(g6
S'\x9a\x99\x99\x99\x99\x99\xb9?'
tRp596
sa(dp597
g3
g593
sg8
F0.5
sS'N'
I200
sg9
F0.98999999999999999
sg10
I11
sg11
g12
sg13
I23
sg14
I5
sg15
g16
sg17
I23
sg18
F1
sg19
g4
(g6
S'\x9a\x99\x99\x99\x99\x99\xc9?'
tRp598
sa(dp599
g3
g593
sg8
F0.5
sS'N'
I200
sg9
F0.98999999999999999
sg10
I11
sg11
g12
sg13
I23
sg14
I5
sg15
g16
sg17
I23
sg18
F1
sg19
g4
(g6
S'433333\xd3?'
tRp600
sa(dp601
g3
g593
sg8
F0.5
sS'N'
I200
sg9
F0.98999999999999999
sg10
I11
sg11
g12
sg13
I23
sg14
I5
sg15
g16
sg17
I23
sg18
F1
sg19
g4
(g6
S'\x9a\x99\x99\x99\x99\x99\xd9?'
tRp602
sa(dp603
g3
g593
sg8
F0.5
sS'N'
I200
sg9
F0.98999999999999999
sg10
I11
sg11
g12
sg13
I23
sg14
I5
sg15
g16
sg17
I23
sg18
F1
sg19
g4
(g6
S'\x00\x00\x00\x00\x00\x00\xe0?'
tRp604
sa(dp605
g3
g593
sg8
F0.5
sS'N'
I200
sg9
F0.98999999999999999
sg10
I11
sg11
g12
sg13
I23
sg14
I5
sg15
g16
sg17
I23
sg18
F1
sg19
g4
(g6
S'433333\xe3?'
tRp606
sa(dp607
g3
g593
sg8
F0.5
sS'N'
I200
sg9
F0.98999999999999999
sg10
I11
sg11
g12
sg13
I23
sg14
I5
sg15
g16
sg17
I23
sg18
F1
sg19
g4
(g6
S'gfffff\xe6?'
tRp608
sa(dp609
g3
g593
sg8
F0.5
sS'N'
I200
sg9
F0.98999999999999999
sg10
I11
sg11
g12
sg13
I23
sg14
I5
sg15
g16
sg17
I23
sg18
F1
sg19
g4
(g6
S'\x9a\x99\x99\x99\x99\x99\xe9?'
tRp610
sa(dp611
g3
g593
sg8
F0.5
sS'N'
I200
sg9
F0.98999999999999999
sg10
I11
sg11
g12
sg13
I23
sg14
I5
sg15
g16
sg17
I23
sg18
F1
sg19
g4
(g6
S'\xcd\xcc\xcc\xcc\xcc\xcc\xec?'
tRp612
sa(dp613
g3
g593
sg8
F0.5
sS'N'
I200
sg9
F0.98999999999999999
sg10
I11
sg11
g12
sg13
I23
sg14
I5
sg15
g16
sg17
I23
sg18
F1
sg19
g4
(g6
S'\x1f\x85\xebQ\xb8\x1e\xed?'
tRp614
sa(dp615
g3
g593
sg8
F0.5
sS'N'
I200
sg9
F0.98999999999999999
sg10
I11
sg11
g12
sg13
I23
sg14
I5
sg15
g16
sg17
I23
sg18
F1
sg19
g4
(g6
S'q=\n\xd7\xa3p\xed?'
tRp616
sa(dp617
g3
g593
sg8
F0.5
sS'N'
I200
sg9
F0.98999999999999999
sg10
I11
sg11
g12
sg13
I23
sg14
I5
sg15
g16
sg17
I23
sg18
F1
sg19
g4
(g6
S'\xc3\xf5(\\\x8f\xc2\xed?'
tRp618
sa(dp619
g3
g593
sg8
F0.5
sS'N'
I200
sg9
F0.98999999999999999
sg10
I11
sg11
g12
sg13
I23
sg14
I5
sg15
g16
sg17
I23
sg18
F1
sg19
g4
(g6
S'\x15\xaeG\xe1z\x14\xee?'
tRp620
sa(dp621
g3
g593
sg8
F0.5
sS'N'
I200
sg9
F0.98999999999999999
sg10
I11
sg11
g12
sg13
I23
sg14
I5
sg15
g16
sg17
I23
sg18
F1
sg19
g4
(g6
S'gfffff\xee?'
tRp622
sa(dp623
g3
g593
sg8
F0.5
sS'N'
I200
sg9
F0.98999999999999999
sg10
I11
sg11
g12
sg13
I23
sg14
I5
sg15
g16
sg17
I23
sg18
F1
sg19
g4
(g6
S'\xb9\x1e\x85\xebQ\xb8\xee?'
tRp624
sa(dp625
g3
g593
sg8
F0.5
sS'N'
I200
sg9
F0.98999999999999999
sg10
I11
sg11
g12
sg13
I23
sg14
I5
sg15
g16
sg17
I23
sg18
F1
sg19
g4
(g6
S'\x0b\xd7\xa3p=\n\xef?'
tRp626
sa(dp627
g3
g593
sg8
F0.5
sS'N'
I200
sg9
F0.98999999999999999
sg10
I11
sg11
g12
sg13
I23
sg14
I5
sg15
g16
sg17
I23
sg18
F1
sg19
g4
(g6
S']\x8f\xc2\xf5(\\\xef?'
tRp628
sa(dp629
g3
g593
sg8
F0.5
sS'N'
I200
sg9
F0.98999999999999999
sg10
I11
sg11
g12
sg13
I23
sg14
I5
sg15
g16
sg17
I23
sg18
F1
sg19
g4
(g6
S'\xafG\xe1z\x14\xae\xef?'
tRp630
sa(dp631
g3
g593
sg8
F0.5
sS'N'
I200
sg9
F0.98999999999999999
sg10
I11
sg11
g12
sg13
I23
sg14
I5
sg15
g16
sg17
I23
sg18
F1
sg19
g4
(g6
S'\x00\x00\x00\x00\x00\x00\xf0?'
tRp632
sa(dp633
g3
g4
(g6
S'\x1c\x00\x00\x00\x00\x00\xf0?'
tRp634
sg8
F0.5
sS'N'
I200
sg9
F0.98999999999999999
sg10
I11
sg11
g12
sg13
I23
sg14
I5
sg15
g16
sg17
I23
sg18
F1
sg19
g4
(g6
S'\x00\x00\x00\x00\x00\x00\x00\x00'
tRp635
sa(dp636
g3
g634
sg8
F0.5
sS'N'
I200
sg9
F0.98999999999999999
sg10
I11
sg11
g12
sg13
I23
sg14
I5
sg15
g16
sg17
I23
sg18
F1
sg19
g4
(g6
S'\x9a\x99\x99\x99\x99\x99\xb9?'
tRp637
sa(dp638
g3
g634
sg8
F0.5
sS'N'
I200
sg9
F0.98999999999999999
sg10
I11
sg11
g12
sg13
I23
sg14
I5
sg15
g16
sg17
I23
sg18
F1
sg19
g4
(g6
S'\x9a\x99\x99\x99\x99\x99\xc9?'
tRp639
sa(dp640
g3
g634
sg8
F0.5
sS'N'
I200
sg9
F0.98999999999999999
sg10
I11
sg11
g12
sg13
I23
sg14
I5
sg15
g16
sg17
I23
sg18
F1
sg19
g4
(g6
S'433333\xd3?'
tRp641
sa(dp642
g3
g634
sg8
F0.5
sS'N'
I200
sg9
F0.98999999999999999
sg10
I11
sg11
g12
sg13
I23
sg14
I5
sg15
g16
sg17
I23
sg18
F1
sg19
g4
(g6
S'\x9a\x99\x99\x99\x99\x99\xd9?'
tRp643
sa(dp644
g3
g634
sg8
F0.5
sS'N'
I200
sg9
F0.98999999999999999
sg10
I11
sg11
g12
sg13
I23
sg14
I5
sg15
g16
sg17
I23
sg18
F1
sg19
g4
(g6
S'\x00\x00\x00\x00\x00\x00\xe0?'
tRp645
sa(dp646
g3
g634
sg8
F0.5
sS'N'
I200
sg9
F0.98999999999999999
sg10
I11
sg11
g12
sg13
I23
sg14
I5
sg15
g16
sg17
I23
sg18
F1
sg19
g4
(g6
S'433333\xe3?'
tRp647
sa(dp648
g3
g634
sg8
F0.5
sS'N'
I200
sg9
F0.98999999999999999
sg10
I11
sg11
g12
sg13
I23
sg14
I5
sg15
g16
sg17
I23
sg18
F1
sg19
g4
(g6
S'gfffff\xe6?'
tRp649
sa(dp650
g3
g634
sg8
F0.5
sS'N'
I200
sg9
F0.98999999999999999
sg10
I11
sg11
g12
sg13
I23
sg14
I5
sg15
g16
sg17
I23
sg18
F1
sg19
g4
(g6
S'\x9a\x99\x99\x99\x99\x99\xe9?'
tRp651
sa(dp652
g3
g634
sg8
F0.5
sS'N'
I200
sg9
F0.98999999999999999
sg10
I11
sg11
g12
sg13
I23
sg14
I5
sg15
g16
sg17
I23
sg18
F1
sg19
g4
(g6
S'\xcd\xcc\xcc\xcc\xcc\xcc\xec?'
tRp653
sa(dp654
g3
g634
sg8
F0.5
sS'N'
I200
sg9
F0.98999999999999999
sg10
I11
sg11
g12
sg13
I23
sg14
I5
sg15
g16
sg17
I23
sg18
F1
sg19
g4
(g6
S'\x1f\x85\xebQ\xb8\x1e\xed?'
tRp655
sa(dp656
g3
g634
sg8
F0.5
sS'N'
I200
sg9
F0.98999999999999999
sg10
I11
sg11
g12
sg13
I23
sg14
I5
sg15
g16
sg17
I23
sg18
F1
sg19
g4
(g6
S'q=\n\xd7\xa3p\xed?'
tRp657
sa(dp658
g3
g634
sg8
F0.5
sS'N'
I200
sg9
F0.98999999999999999
sg10
I11
sg11
g12
sg13
I23
sg14
I5
sg15
g16
sg17
I23
sg18
F1
sg19
g4
(g6
S'\xc3\xf5(\\\x8f\xc2\xed?'
tRp659
sa(dp660
g3
g634
sg8
F0.5
sS'N'
I200
sg9
F0.98999999999999999
sg10
I11
sg11
g12
sg13
I23
sg14
I5
sg15
g16
sg17
I23
sg18
F1
sg19
g4
(g6
S'\x15\xaeG\xe1z\x14\xee?'
tRp661
sa(dp662
g3
g634
sg8
F0.5
sS'N'
I200
sg9
F0.98999999999999999
sg10
I11
sg11
g12
sg13
I23
sg14
I5
sg15
g16
sg17
I23
sg18
F1
sg19
g4
(g6
S'gfffff\xee?'
tRp663
sa(dp664
g3
g634
sg8
F0.5
sS'N'
I200
sg9
F0.98999999999999999
sg10
I11
sg11
g12
sg13
I23
sg14
I5
sg15
g16
sg17
I23
sg18
F1
sg19
g4
(g6
S'\xb9\x1e\x85\xebQ\xb8\xee?'
tRp665
sa(dp666
g3
g634
sg8
F0.5
sS'N'
I200
sg9
F0.98999999999999999
sg10
I11
sg11
g12
sg13
I23
sg14
I5
sg15
g16
sg17
I23
sg18
F1
sg19
g4
(g6
S'\x0b\xd7\xa3p=\n\xef?'
tRp667
sa(dp668
g3
g634
sg8
F0.5
sS'N'
I200
sg9
F0.98999999999999999
sg10
I11
sg11
g12
sg13
I23
sg14
I5
sg15
g16
sg17
I23
sg18
F1
sg19
g4
(g6
S']\x8f\xc2\xf5(\\\xef?'
tRp669
sa(dp670
g3
g634
sg8
F0.5
sS'N'
I200
sg9
F0.98999999999999999
sg10
I11
sg11
g12
sg13
I23
sg14
I5
sg15
g16
sg17
I23
sg18
F1
sg19
g4
(g6
S'\xafG\xe1z\x14\xae\xef?'
tRp671
sa(dp672
g3
g634
sg8
F0.5
sS'N'
I200
sg9
F0.98999999999999999
sg10
I11
sg11
g12
sg13
I23
sg14
I5
sg15
g16
sg17
I23
sg18
F1
sg19
g4
(g6
S'\x00\x00\x00\x00\x00\x00\xf0?'
tRp673
sa(dp674
g3
g4
(g6
S'\x81`\xd4\xf6\xb8[\xf9?'
tRp675
sg8
F0.5
sS'N'
I200
sg9
F0.98999999999999999
sg10
I11
sg11
g12
sg13
I23
sg14
I5
sg15
g16
sg17
I23
sg18
F1
sg19
g4
(g6
S'\x00\x00\x00\x00\x00\x00\x00\x00'
tRp676
sa(dp677
g3
g675
sg8
F0.5
sS'N'
I200
sg9
F0.98999999999999999
sg10
I11
sg11
g12
sg13
I23
sg14
I5
sg15
g16
sg17
I23
sg18
F1
sg19
g4
(g6
S'\x9a\x99\x99\x99\x99\x99\xb9?'
tRp678
sa(dp679
g3
g675
sg8
F0.5
sS'N'
I200
sg9
F0.98999999999999999
sg10
I11
sg11
g12
sg13
I23
sg14
I5
sg15
g16
sg17
I23
sg18
F1
sg19
g4
(g6
S'\x9a\x99\x99\x99\x99\x99\xc9?'
tRp680
sa(dp681
g3
g675
sg8
F0.5
sS'N'
I200
sg9
F0.98999999999999999
sg10
I11
sg11
g12
sg13
I23
sg14
I5
sg15
g16
sg17
I23
sg18
F1
sg19
g4
(g6
S'433333\xd3?'
tRp682
sa(dp683
g3
g675
sg8
F0.5
sS'N'
I200
sg9
F0.98999999999999999
sg10
I11
sg11
g12
sg13
I23
sg14
I5
sg15
g16
sg17
I23
sg18
F1
sg19
g4
(g6
S'\x9a\x99\x99\x99\x99\x99\xd9?'
tRp684
sa(dp685
g3
g675
sg8
F0.5
sS'N'
I200
sg9
F0.98999999999999999
sg10
I11
sg11
g12
sg13
I23
sg14
I5
sg15
g16
sg17
I23
sg18
F1
sg19
g4
(g6
S'\x00\x00\x00\x00\x00\x00\xe0?'
tRp686
sa(dp687
g3
g675
sg8
F0.5
sS'N'
I200
sg9
F0.98999999999999999
sg10
I11
sg11
g12
sg13
I23
sg14
I5
sg15
g16
sg17
I23
sg18
F1
sg19
g4
(g6
S'433333\xe3?'
tRp688
sa(dp689
g3
g675
sg8
F0.5
sS'N'
I200
sg9
F0.98999999999999999
sg10
I11
sg11
g12
sg13
I23
sg14
I5
sg15
g16
sg17
I23
sg18
F1
sg19
g4
(g6
S'gfffff\xe6?'
tRp690
sa(dp691
g3
g675
sg8
F0.5
sS'N'
I200
sg9
F0.98999999999999999
sg10
I11
sg11
g12
sg13
I23
sg14
I5
sg15
g16
sg17
I23
sg18
F1
sg19
g4
(g6
S'\x9a\x99\x99\x99\x99\x99\xe9?'
tRp692
sa(dp693
g3
g675
sg8
F0.5
sS'N'
I200
sg9
F0.98999999999999999
sg10
I11
sg11
g12
sg13
I23
sg14
I5
sg15
g16
sg17
I23
sg18
F1
sg19
g4
(g6
S'\xcd\xcc\xcc\xcc\xcc\xcc\xec?'
tRp694
sa(dp695
g3
g675
sg8
F0.5
sS'N'
I200
sg9
F0.98999999999999999
sg10
I11
sg11
g12
sg13
I23
sg14
I5
sg15
g16
sg17
I23
sg18
F1
sg19
g4
(g6
S'\x1f\x85\xebQ\xb8\x1e\xed?'
tRp696
sa(dp697
g3
g675
sg8
F0.5
sS'N'
I200
sg9
F0.98999999999999999
sg10
I11
sg11
g12
sg13
I23
sg14
I5
sg15
g16
sg17
I23
sg18
F1
sg19
g4
(g6
S'q=\n\xd7\xa3p\xed?'
tRp698
sa(dp699
g3
g675
sg8
F0.5
sS'N'
I200
sg9
F0.98999999999999999
sg10
I11
sg11
g12
sg13
I23
sg14
I5
sg15
g16
sg17
I23
sg18
F1
sg19
g4
(g6
S'\xc3\xf5(\\\x8f\xc2\xed?'
tRp700
sa(dp701
g3
g675
sg8
F0.5
sS'N'
I200
sg9
F0.98999999999999999
sg10
I11
sg11
g12
sg13
I23
sg14
I5
sg15
g16
sg17
I23
sg18
F1
sg19
g4
(g6
S'\x15\xaeG\xe1z\x14\xee?'
tRp702
sa(dp703
g3
g675
sg8
F0.5
sS'N'
I200
sg9
F0.98999999999999999
sg10
I11
sg11
g12
sg13
I23
sg14
I5
sg15
g16
sg17
I23
sg18
F1
sg19
g4
(g6
S'gfffff\xee?'
tRp704
sa(dp705
g3
g675
sg8
F0.5
sS'N'
I200
sg9
F0.98999999999999999
sg10
I11
sg11
g12
sg13
I23
sg14
I5
sg15
g16
sg17
I23
sg18
F1
sg19
g4
(g6
S'\xb9\x1e\x85\xebQ\xb8\xee?'
tRp706
sa(dp707
g3
g675
sg8
F0.5
sS'N'
I200
sg9
F0.98999999999999999
sg10
I11
sg11
g12
sg13
I23
sg14
I5
sg15
g16
sg17
I23
sg18
F1
sg19
g4
(g6
S'\x0b\xd7\xa3p=\n\xef?'
tRp708
sa(dp709
g3
g675
sg8
F0.5
sS'N'
I200
sg9
F0.98999999999999999
sg10
I11
sg11
g12
sg13
I23
sg14
I5
sg15
g16
sg17
I23
sg18
F1
sg19
g4
(g6
S']\x8f\xc2\xf5(\\\xef?'
tRp710
sa(dp711
g3
g675
sg8
F0.5
sS'N'
I200
sg9
F0.98999999999999999
sg10
I11
sg11
g12
sg13
I23
sg14
I5
sg15
g16
sg17
I23
sg18
F1
sg19
g4
(g6
S'\xafG\xe1z\x14\xae\xef?'
tRp712
sa(dp713
g3
g675
sg8
F0.5
sS'N'
I200
sg9
F0.98999999999999999
sg10
I11
sg11
g12
sg13
I23
sg14
I5
sg15
g16
sg17
I23
sg18
F1
sg19
g4
(g6
S'\x00\x00\x00\x00\x00\x00\xf0?'
tRp714
sa(dp715
g3
g4
(g6
S'\x86\xcc\xd4\xe9W\x18\x04@'
tRp716
sg8
F0.5
sS'N'
I200
sg9
F0.98999999999999999
sg10
I11
sg11
g12
sg13
I23
sg14
I5
sg15
g16
sg17
I23
sg18
F1
sg19
g4
(g6
S'\x00\x00\x00\x00\x00\x00\x00\x00'
tRp717
sa(dp718
g3
g716
sg8
F0.5
sS'N'
I200
sg9
F0.98999999999999999
sg10
I11
sg11
g12
sg13
I23
sg14
I5
sg15
g16
sg17
I23
sg18
F1
sg19
g4
(g6
S'\x9a\x99\x99\x99\x99\x99\xb9?'
tRp719
sa(dp720
g3
g716
sg8
F0.5
sS'N'
I200
sg9
F0.98999999999999999
sg10
I11
sg11
g12
sg13
I23
sg14
I5
sg15
g16
sg17
I23
sg18
F1
sg19
g4
(g6
S'\x9a\x99\x99\x99\x99\x99\xc9?'
tRp721
sa(dp722
g3
g716
sg8
F0.5
sS'N'
I200
sg9
F0.98999999999999999
sg10
I11
sg11
g12
sg13
I23
sg14
I5
sg15
g16
sg17
I23
sg18
F1
sg19
g4
(g6
S'433333\xd3?'
tRp723
sa(dp724
g3
g716
sg8
F0.5
sS'N'
I200
sg9
F0.98999999999999999
sg10
I11
sg11
g12
sg13
I23
sg14
I5
sg15
g16
sg17
I23
sg18
F1
sg19
g4
(g6
S'\x9a\x99\x99\x99\x99\x99\xd9?'
tRp725
sa(dp726
g3
g716
sg8
F0.5
sS'N'
I200
sg9
F0.98999999999999999
sg10
I11
sg11
g12
sg13
I23
sg14
I5
sg15
g16
sg17
I23
sg18
F1
sg19
g4
(g6
S'\x00\x00\x00\x00\x00\x00\xe0?'
tRp727
sa(dp728
g3
g716
sg8
F0.5
sS'N'
I200
sg9
F0.98999999999999999
sg10
I11
sg11
g12
sg13
I23
sg14
I5
sg15
g16
sg17
I23
sg18
F1
sg19
g4
(g6
S'433333\xe3?'
tRp729
sa(dp730
g3
g716
sg8
F0.5
sS'N'
I200
sg9
F0.98999999999999999
sg10
I11
sg11
g12
sg13
I23
sg14
I5
sg15
g16
sg17
I23
sg18
F1
sg19
g4
(g6
S'gfffff\xe6?'
tRp731
sa(dp732
g3
g716
sg8
F0.5
sS'N'
I200
sg9
F0.98999999999999999
sg10
I11
sg11
g12
sg13
I23
sg14
I5
sg15
g16
sg17
I23
sg18
F1
sg19
g4
(g6
S'\x9a\x99\x99\x99\x99\x99\xe9?'
tRp733
sa(dp734
g3
g716
sg8
F0.5
sS'N'
I200
sg9
F0.98999999999999999
sg10
I11
sg11
g12
sg13
I23
sg14
I5
sg15
g16
sg17
I23
sg18
F1
sg19
g4
(g6
S'\xcd\xcc\xcc\xcc\xcc\xcc\xec?'
tRp735
sa(dp736
g3
g716
sg8
F0.5
sS'N'
I200
sg9
F0.98999999999999999
sg10
I11
sg11
g12
sg13
I23
sg14
I5
sg15
g16
sg17
I23
sg18
F1
sg19
g4
(g6
S'\x1f\x85\xebQ\xb8\x1e\xed?'
tRp737
sa(dp738
g3
g716
sg8
F0.5
sS'N'
I200
sg9
F0.98999999999999999
sg10
I11
sg11
g12
sg13
I23
sg14
I5
sg15
g16
sg17
I23
sg18
F1
sg19
g4
(g6
S'q=\n\xd7\xa3p\xed?'
tRp739
sa(dp740
g3
g716
sg8
F0.5
sS'N'
I200
sg9
F0.98999999999999999
sg10
I11
sg11
g12
sg13
I23
sg14
I5
sg15
g16
sg17
I23
sg18
F1
sg19
g4
(g6
S'\xc3\xf5(\\\x8f\xc2\xed?'
tRp741
sa(dp742
g3
g716
sg8
F0.5
sS'N'
I200
sg9
F0.98999999999999999
sg10
I11
sg11
g12
sg13
I23
sg14
I5
sg15
g16
sg17
I23
sg18
F1
sg19
g4
(g6
S'\x15\xaeG\xe1z\x14\xee?'
tRp743
sa(dp744
g3
g716
sg8
F0.5
sS'N'
I200
sg9
F0.98999999999999999
sg10
I11
sg11
g12
sg13
I23
sg14
I5
sg15
g16
sg17
I23
sg18
F1
sg19
g4
(g6
S'gfffff\xee?'
tRp745
sa(dp746
g3
g716
sg8
F0.5
sS'N'
I200
sg9
F0.98999999999999999
sg10
I11
sg11
g12
sg13
I23
sg14
I5
sg15
g16
sg17
I23
sg18
F1
sg19
g4
(g6
S'\xb9\x1e\x85\xebQ\xb8\xee?'
tRp747
sa(dp748
g3
g716
sg8
F0.5
sS'N'
I200
sg9
F0.98999999999999999
sg10
I11
sg11
g12
sg13
I23
sg14
I5
sg15
g16
sg17
I23
sg18
F1
sg19
g4
(g6
S'\x0b\xd7\xa3p=\n\xef?'
tRp749
sa(dp750
g3
g716
sg8
F0.5
sS'N'
I200
sg9
F0.98999999999999999
sg10
I11
sg11
g12
sg13
I23
sg14
I5
sg15
g16
sg17
I23
sg18
F1
sg19
g4
(g6
S']\x8f\xc2\xf5(\\\xef?'
tRp751
sa(dp752
g3
g716
sg8
F0.5
sS'N'
I200
sg9
F0.98999999999999999
sg10
I11
sg11
g12
sg13
I23
sg14
I5
sg15
g16
sg17
I23
sg18
F1
sg19
g4
(g6
S'\xafG\xe1z\x14\xae\xef?'
tRp753
sa(dp754
g3
g716
sg8
F0.5
sS'N'
I200
sg9
F0.98999999999999999
sg10
I11
sg11
g12
sg13
I23
sg14
I5
sg15
g16
sg17
I23
sg18
F1
sg19
g4
(g6
S'\x00\x00\x00\x00\x00\x00\xf0?'
tRp755
sa(dp756
g3
g4
(g6
S'"nR\x1f<\xd9\x0f@'
tRp757
sg8
F0.5
sS'N'
I200
sg9
F0.98999999999999999
sg10
I11
sg11
g12
sg13
I23
sg14
I5
sg15
g16
sg17
I23
sg18
F1
sg19
g4
(g6
S'\x00\x00\x00\x00\x00\x00\x00\x00'
tRp758
sa(dp759
g3
g757
sg8
F0.5
sS'N'
I200
sg9
F0.98999999999999999
sg10
I11
sg11
g12
sg13
I23
sg14
I5
sg15
g16
sg17
I23
sg18
F1
sg19
g4
(g6
S'\x9a\x99\x99\x99\x99\x99\xb9?'
tRp760
sa(dp761
g3
g757
sg8
F0.5
sS'N'
I200
sg9
F0.98999999999999999
sg10
I11
sg11
g12
sg13
I23
sg14
I5
sg15
g16
sg17
I23
sg18
F1
sg19
g4
(g6
S'\x9a\x99\x99\x99\x99\x99\xc9?'
tRp762
sa(dp763
g3
g757
sg8
F0.5
sS'N'
I200
sg9
F0.98999999999999999
sg10
I11
sg11
g12
sg13
I23
sg14
I5
sg15
g16
sg17
I23
sg18
F1
sg19
g4
(g6
S'433333\xd3?'
tRp764
sa(dp765
g3
g757
sg8
F0.5
sS'N'
I200
sg9
F0.98999999999999999
sg10
I11
sg11
g12
sg13
I23
sg14
I5
sg15
g16
sg17
I23
sg18
F1
sg19
g4
(g6
S'\x9a\x99\x99\x99\x99\x99\xd9?'
tRp766
sa(dp767
g3
g757
sg8
F0.5
sS'N'
I200
sg9
F0.98999999999999999
sg10
I11
sg11
g12
sg13
I23
sg14
I5
sg15
g16
sg17
I23
sg18
F1
sg19
g4
(g6
S'\x00\x00\x00\x00\x00\x00\xe0?'
tRp768
sa(dp769
g3
g757
sg8
F0.5
sS'N'
I200
sg9
F0.98999999999999999
sg10
I11
sg11
g12
sg13
I23
sg14
I5
sg15
g16
sg17
I23
sg18
F1
sg19
g4
(g6
S'433333\xe3?'
tRp770
sa(dp771
g3
g757
sg8
F0.5
sS'N'
I200
sg9
F0.98999999999999999
sg10
I11
sg11
g12
sg13
I23
sg14
I5
sg15
g16
sg17
I23
sg18
F1
sg19
g4
(g6
S'gfffff\xe6?'
tRp772
sa(dp773
g3
g757
sg8
F0.5
sS'N'
I200
sg9
F0.98999999999999999
sg10
I11
sg11
g12
sg13
I23
sg14
I5
sg15
g16
sg17
I23
sg18
F1
sg19
g4
(g6
S'\x9a\x99\x99\x99\x99\x99\xe9?'
tRp774
sa(dp775
g3
g757
sg8
F0.5
sS'N'
I200
sg9
F0.98999999999999999
sg10
I11
sg11
g12
sg13
I23
sg14
I5
sg15
g16
sg17
I23
sg18
F1
sg19
g4
(g6
S'\xcd\xcc\xcc\xcc\xcc\xcc\xec?'
tRp776
sa(dp777
g3
g757
sg8
F0.5
sS'N'
I200
sg9
F0.98999999999999999
sg10
I11
sg11
g12
sg13
I23
sg14
I5
sg15
g16
sg17
I23
sg18
F1
sg19
g4
(g6
S'\x1f\x85\xebQ\xb8\x1e\xed?'
tRp778
sa(dp779
g3
g757
sg8
F0.5
sS'N'
I200
sg9
F0.98999999999999999
sg10
I11
sg11
g12
sg13
I23
sg14
I5
sg15
g16
sg17
I23
sg18
F1
sg19
g4
(g6
S'q=\n\xd7\xa3p\xed?'
tRp780
sa(dp781
g3
g757
sg8
F0.5
sS'N'
I200
sg9
F0.98999999999999999
sg10
I11
sg11
g12
sg13
I23
sg14
I5
sg15
g16
sg17
I23
sg18
F1
sg19
g4
(g6
S'\xc3\xf5(\\\x8f\xc2\xed?'
tRp782
sa(dp783
g3
g757
sg8
F0.5
sS'N'
I200
sg9
F0.98999999999999999
sg10
I11
sg11
g12
sg13
I23
sg14
I5
sg15
g16
sg17
I23
sg18
F1
sg19
g4
(g6
S'\x15\xaeG\xe1z\x14\xee?'
tRp784
sa(dp785
g3
g757
sg8
F0.5
sS'N'
I200
sg9
F0.98999999999999999
sg10
I11
sg11
g12
sg13
I23
sg14
I5
sg15
g16
sg17
I23
sg18
F1
sg19
g4
(g6
S'gfffff\xee?'
tRp786
sa(dp787
g3
g757
sg8
F0.5
sS'N'
I200
sg9
F0.98999999999999999
sg10
I11
sg11
g12
sg13
I23
sg14
I5
sg15
g16
sg17
I23
sg18
F1
sg19
g4
(g6
S'\xb9\x1e\x85\xebQ\xb8\xee?'
tRp788
sa(dp789
g3
g757
sg8
F0.5
sS'N'
I200
sg9
F0.98999999999999999
sg10
I11
sg11
g12
sg13
I23
sg14
I5
sg15
g16
sg17
I23
sg18
F1
sg19
g4
(g6
S'\x0b\xd7\xa3p=\n\xef?'
tRp790
sa(dp791
g3
g757
sg8
F0.5
sS'N'
I200
sg9
F0.98999999999999999
sg10
I11
sg11
g12
sg13
I23
sg14
I5
sg15
g16
sg17
I23
sg18
F1
sg19
g4
(g6
S']\x8f\xc2\xf5(\\\xef?'
tRp792
sa(dp793
g3
g757
sg8
F0.5
sS'N'
I200
sg9
F0.98999999999999999
sg10
I11
sg11
g12
sg13
I23
sg14
I5
sg15
g16
sg17
I23
sg18
F1
sg19
g4
(g6
S'\xafG\xe1z\x14\xae\xef?'
tRp794
sa(dp795
g3
g757
sg8
F0.5
sS'N'
I200
sg9
F0.98999999999999999
sg10
I11
sg11
g12
sg13
I23
sg14
I5
sg15
g16
sg17
I23
sg18
F1
sg19
g4
(g6
S'\x00\x00\x00\x00\x00\x00\xf0?'
tRp796
sa(dp797
g3
g4
(g6
S'\xcd\x894\xd2\x00=\x19@'
tRp798
sg8
F0.5
sS'N'
I200
sg9
F0.98999999999999999
sg10
I11
sg11
g12
sg13
I23
sg14
I5
sg15
g16
sg17
I23
sg18
F1
sg19
g4
(g6
S'\x00\x00\x00\x00\x00\x00\x00\x00'
tRp799
sa(dp800
g3
g798
sg8
F0.5
sS'N'
I200
sg9
F0.98999999999999999
sg10
I11
sg11
g12
sg13
I23
sg14
I5
sg15
g16
sg17
I23
sg18
F1
sg19
g4
(g6
S'\x9a\x99\x99\x99\x99\x99\xb9?'
tRp801
sa(dp802
g3
g798
sg8
F0.5
sS'N'
I200
sg9
F0.98999999999999999
sg10
I11
sg11
g12
sg13
I23
sg14
I5
sg15
g16
sg17
I23
sg18
F1
sg19
g4
(g6
S'\x9a\x99\x99\x99\x99\x99\xc9?'
tRp803
sa(dp804
g3
g798
sg8
F0.5
sS'N'
I200
sg9
F0.98999999999999999
sg10
I11
sg11
g12
sg13
I23
sg14
I5
sg15
g16
sg17
I23
sg18
F1
sg19
g4
(g6
S'433333\xd3?'
tRp805
sa(dp806
g3
g798
sg8
F0.5
sS'N'
I200
sg9
F0.98999999999999999
sg10
I11
sg11
g12
sg13
I23
sg14
I5
sg15
g16
sg17
I23
sg18
F1
sg19
g4
(g6
S'\x9a\x99\x99\x99\x99\x99\xd9?'
tRp807
sa(dp808
g3
g798
sg8
F0.5
sS'N'
I200
sg9
F0.98999999999999999
sg10
I11
sg11
g12
sg13
I23
sg14
I5
sg15
g16
sg17
I23
sg18
F1
sg19
g4
(g6
S'\x00\x00\x00\x00\x00\x00\xe0?'
tRp809
sa(dp810
g3
g798
sg8
F0.5
sS'N'
I200
sg9
F0.98999999999999999
sg10
I11
sg11
g12
sg13
I23
sg14
I5
sg15
g16
sg17
I23
sg18
F1
sg19
g4
(g6
S'433333\xe3?'
tRp811
sa(dp812
g3
g798
sg8
F0.5
sS'N'
I200
sg9
F0.98999999999999999
sg10
I11
sg11
g12
sg13
I23
sg14
I5
sg15
g16
sg17
I23
sg18
F1
sg19
g4
(g6
S'gfffff\xe6?'
tRp813
sa(dp814
g3
g798
sg8
F0.5
sS'N'
I200
sg9
F0.98999999999999999
sg10
I11
sg11
g12
sg13
I23
sg14
I5
sg15
g16
sg17
I23
sg18
F1
sg19
g4
(g6
S'\x9a\x99\x99\x99\x99\x99\xe9?'
tRp815
sa(dp816
g3
g798
sg8
F0.5
sS'N'
I200
sg9
F0.98999999999999999
sg10
I11
sg11
g12
sg13
I23
sg14
I5
sg15
g16
sg17
I23
sg18
F1
sg19
g4
(g6
S'\xcd\xcc\xcc\xcc\xcc\xcc\xec?'
tRp817
sa(dp818
g3
g798
sg8
F0.5
sS'N'
I200
sg9
F0.98999999999999999
sg10
I11
sg11
g12
sg13
I23
sg14
I5
sg15
g16
sg17
I23
sg18
F1
sg19
g4
(g6
S'\x1f\x85\xebQ\xb8\x1e\xed?'
tRp819
sa(dp820
g3
g798
sg8
F0.5
sS'N'
I200
sg9
F0.98999999999999999
sg10
I11
sg11
g12
sg13
I23
sg14
I5
sg15
g16
sg17
I23
sg18
F1
sg19
g4
(g6
S'q=\n\xd7\xa3p\xed?'
tRp821
sa(dp822
g3
g798
sg8
F0.5
sS'N'
I200
sg9
F0.98999999999999999
sg10
I11
sg11
g12
sg13
I23
sg14
I5
sg15
g16
sg17
I23
sg18
F1
sg19
g4
(g6
S'\xc3\xf5(\\\x8f\xc2\xed?'
tRp823
sa(dp824
g3
g798
sg8
F0.5
sS'N'
I200
sg9
F0.98999999999999999
sg10
I11
sg11
g12
sg13
I23
sg14
I5
sg15
g16
sg17
I23
sg18
F1
sg19
g4
(g6
S'\x15\xaeG\xe1z\x14\xee?'
tRp825
sa(dp826
g3
g798
sg8
F0.5
sS'N'
I200
sg9
F0.98999999999999999
sg10
I11
sg11
g12
sg13
I23
sg14
I5
sg15
g16
sg17
I23
sg18
F1
sg19
g4
(g6
S'gfffff\xee?'
tRp827
sa(dp828
g3
g798
sg8
F0.5
sS'N'
I200
sg9
F0.98999999999999999
sg10
I11
sg11
g12
sg13
I23
sg14
I5
sg15
g16
sg17
I23
sg18
F1
sg19
g4
(g6
S'\xb9\x1e\x85\xebQ\xb8\xee?'
tRp829
sa(dp830
g3
g798
sg8
F0.5
sS'N'
I200
sg9
F0.98999999999999999
sg10
I11
sg11
g12
sg13
I23
sg14
I5
sg15
g16
sg17
I23
sg18
F1
sg19
g4
(g6
S'\x0b\xd7\xa3p=\n\xef?'
tRp831
sa(dp832
g3
g798
sg8
F0.5
sS'N'
I200
sg9
F0.98999999999999999
sg10
I11
sg11
g12
sg13
I23
sg14
I5
sg15
g16
sg17
I23
sg18
F1
sg19
g4
(g6
S']\x8f\xc2\xf5(\\\xef?'
tRp833
sa(dp834
g3
g798
sg8
F0.5
sS'N'
I200
sg9
F0.98999999999999999
sg10
I11
sg11
g12
sg13
I23
sg14
I5
sg15
g16
sg17
I23
sg18
F1
sg19
g4
(g6
S'\xafG\xe1z\x14\xae\xef?'
tRp835
sa(dp836
g3
g798
sg8
F0.5
sS'N'
I200
sg9
F0.98999999999999999
sg10
I11
sg11
g12
sg13
I23
sg14
I5
sg15
g16
sg17
I23
sg18
F1
sg19
g4
(g6
S'\x00\x00\x00\x00\x00\x00\xf0?'
tRp837
sa(dp838
g3
g4
(g6
S'.\x00\x00\x00\x00\x00$@'
tRp839
sg8
F0.5
sS'N'
I200
sg9
F0.98999999999999999
sg10
I11
sg11
g12
sg13
I23
sg14
I5
sg15
g16
sg17
I23
sg18
F1
sg19
g4
(g6
S'\x00\x00\x00\x00\x00\x00\x00\x00'
tRp840
sa(dp841
g3
g839
sg8
F0.5
sS'N'
I200
sg9
F0.98999999999999999
sg10
I11
sg11
g12
sg13
I23
sg14
I5
sg15
g16
sg17
I23
sg18
F1
sg19
g4
(g6
S'\x9a\x99\x99\x99\x99\x99\xb9?'
tRp842
sa(dp843
g3
g839
sg8
F0.5
sS'N'
I200
sg9
F0.98999999999999999
sg10
I11
sg11
g12
sg13
I23
sg14
I5
sg15
g16
sg17
I23
sg18
F1
sg19
g4
(g6
S'\x9a\x99\x99\x99\x99\x99\xc9?'
tRp844
sa(dp845
g3
g839
sg8
F0.5
sS'N'
I200
sg9
F0.98999999999999999
sg10
I11
sg11
g12
sg13
I23
sg14
I5
sg15
g16
sg17
I23
sg18
F1
sg19
g4
(g6
S'433333\xd3?'
tRp846
sa(dp847
g3
g839
sg8
F0.5
sS'N'
I200
sg9
F0.98999999999999999
sg10
I11
sg11
g12
sg13
I23
sg14
I5
sg15
g16
sg17
I23
sg18
F1
sg19
g4
(g6
S'\x9a\x99\x99\x99\x99\x99\xd9?'
tRp848
sa(dp849
g3
g839
sg8
F0.5
sS'N'
I200
sg9
F0.98999999999999999
sg10
I11
sg11
g12
sg13
I23
sg14
I5
sg15
g16
sg17
I23
sg18
F1
sg19
g4
(g6
S'\x00\x00\x00\x00\x00\x00\xe0?'
tRp850
sa(dp851
g3
g839
sg8
F0.5
sS'N'
I200
sg9
F0.98999999999999999
sg10
I11
sg11
g12
sg13
I23
sg14
I5
sg15
g16
sg17
I23
sg18
F1
sg19
g4
(g6
S'433333\xe3?'
tRp852
sa(dp853
g3
g839
sg8
F0.5
sS'N'
I200
sg9
F0.98999999999999999
sg10
I11
sg11
g12
sg13
I23
sg14
I5
sg15
g16
sg17
I23
sg18
F1
sg19
g4
(g6
S'gfffff\xe6?'
tRp854
sa(dp855
g3
g839
sg8
F0.5
sS'N'
I200
sg9
F0.98999999999999999
sg10
I11
sg11
g12
sg13
I23
sg14
I5
sg15
g16
sg17
I23
sg18
F1
sg19
g4
(g6
S'\x9a\x99\x99\x99\x99\x99\xe9?'
tRp856
sa(dp857
g3
g839
sg8
F0.5
sS'N'
I200
sg9
F0.98999999999999999
sg10
I11
sg11
g12
sg13
I23
sg14
I5
sg15
g16
sg17
I23
sg18
F1
sg19
g4
(g6
S'\xcd\xcc\xcc\xcc\xcc\xcc\xec?'
tRp858
sa(dp859
g3
g839
sg8
F0.5
sS'N'
I200
sg9
F0.98999999999999999
sg10
I11
sg11
g12
sg13
I23
sg14
I5
sg15
g16
sg17
I23
sg18
F1
sg19
g4
(g6
S'\x1f\x85\xebQ\xb8\x1e\xed?'
tRp860
sa(dp861
g3
g839
sg8
F0.5
sS'N'
I200
sg9
F0.98999999999999999
sg10
I11
sg11
g12
sg13
I23
sg14
I5
sg15
g16
sg17
I23
sg18
F1
sg19
g4
(g6
S'q=\n\xd7\xa3p\xed?'
tRp862
sa(dp863
g3
g839
sg8
F0.5
sS'N'
I200
sg9
F0.98999999999999999
sg10
I11
sg11
g12
sg13
I23
sg14
I5
sg15
g16
sg17
I23
sg18
F1
sg19
g4
(g6
S'\xc3\xf5(\\\x8f\xc2\xed?'
tRp864
sa(dp865
g3
g839
sg8
F0.5
sS'N'
I200
sg9
F0.98999999999999999
sg10
I11
sg11
g12
sg13
I23
sg14
I5
sg15
g16
sg17
I23
sg18
F1
sg19
g4
(g6
S'\x15\xaeG\xe1z\x14\xee?'
tRp866
sa(dp867
g3
g839
sg8
F0.5
sS'N'
I200
sg9
F0.98999999999999999
sg10
I11
sg11
g12
sg13
I23
sg14
I5
sg15
g16
sg17
I23
sg18
F1
sg19
g4
(g6
S'gfffff\xee?'
tRp868
sa(dp869
g3
g839
sg8
F0.5
sS'N'
I200
sg9
F0.98999999999999999
sg10
I11
sg11
g12
sg13
I23
sg14
I5
sg15
g16
sg17
I23
sg18
F1
sg19
g4
(g6
S'\xb9\x1e\x85\xebQ\xb8\xee?'
tRp870
sa(dp871
g3
g839
sg8
F0.5
sS'N'
I200
sg9
F0.98999999999999999
sg10
I11
sg11
g12
sg13
I23
sg14
I5
sg15
g16
sg17
I23
sg18
F1
sg19
g4
(g6
S'\x0b\xd7\xa3p=\n\xef?'
tRp872
sa(dp873
g3
g839
sg8
F0.5
sS'N'
I200
sg9
F0.98999999999999999
sg10
I11
sg11
g12
sg13
I23
sg14
I5
sg15
g16
sg17
I23
sg18
F1
sg19
g4
(g6
S']\x8f\xc2\xf5(\\\xef?'
tRp874
sa(dp875
g3
g839
sg8
F0.5
sS'N'
I200
sg9
F0.98999999999999999
sg10
I11
sg11
g12
sg13
I23
sg14
I5
sg15
g16
sg17
I23
sg18
F1
sg19
g4
(g6
S'\xafG\xe1z\x14\xae\xef?'
tRp876
sa(dp877
g3
g839
sg8
F0.5
sS'N'
I200
sg9
F0.98999999999999999
sg10
I11
sg11
g12
sg13
I23
sg14
I5
sg15
g16
sg17
I23
sg18
F1
sg19
g4
(g6
S'\x00\x00\x00\x00\x00\x00\xf0?'
tRp878
sa(dp879
g3
g4
(g6
S'\xb4x\x894\xa7\xb2/@'
tRp880
sg8
F0.5
sS'N'
I200
sg9
F0.98999999999999999
sg10
I11
sg11
g12
sg13
I23
sg14
I5
sg15
g16
sg17
I23
sg18
F1
sg19
g4
(g6
S'\x00\x00\x00\x00\x00\x00\x00\x00'
tRp881
sa(dp882
g3
g880
sg8
F0.5
sS'N'
I200
sg9
F0.98999999999999999
sg10
I11
sg11
g12
sg13
I23
sg14
I5
sg15
g16
sg17
I23
sg18
F1
sg19
g4
(g6
S'\x9a\x99\x99\x99\x99\x99\xb9?'
tRp883
sa(dp884
g3
g880
sg8
F0.5
sS'N'
I200
sg9
F0.98999999999999999
sg10
I11
sg11
g12
sg13
I23
sg14
I5
sg15
g16
sg17
I23
sg18
F1
sg19
g4
(g6
S'\x9a\x99\x99\x99\x99\x99\xc9?'
tRp885
sa(dp886
g3
g880
sg8
F0.5
sS'N'
I200
sg9
F0.98999999999999999
sg10
I11
sg11
g12
sg13
I23
sg14
I5
sg15
g16
sg17
I23
sg18
F1
sg19
g4
(g6
S'433333\xd3?'
tRp887
sa(dp888
g3
g880
sg8
F0.5
sS'N'
I200
sg9
F0.98999999999999999
sg10
I11
sg11
g12
sg13
I23
sg14
I5
sg15
g16
sg17
I23
sg18
F1
sg19
g4
(g6
S'\x9a\x99\x99\x99\x99\x99\xd9?'
tRp889
sa(dp890
g3
g880
sg8
F0.5
sS'N'
I200
sg9
F0.98999999999999999
sg10
I11
sg11
g12
sg13
I23
sg14
I5
sg15
g16
sg17
I23
sg18
F1
sg19
g4
(g6
S'\x00\x00\x00\x00\x00\x00\xe0?'
tRp891
sa(dp892
g3
g880
sg8
F0.5
sS'N'
I200
sg9
F0.98999999999999999
sg10
I11
sg11
g12
sg13
I23
sg14
I5
sg15
g16
sg17
I23
sg18
F1
sg19
g4
(g6
S'433333\xe3?'
tRp893
sa(dp894
g3
g880
sg8
F0.5
sS'N'
I200
sg9
F0.98999999999999999
sg10
I11
sg11
g12
sg13
I23
sg14
I5
sg15
g16
sg17
I23
sg18
F1
sg19
g4
(g6
S'gfffff\xe6?'
tRp895
sa(dp896
g3
g880
sg8
F0.5
sS'N'
I200
sg9
F0.98999999999999999
sg10
I11
sg11
g12
sg13
I23
sg14
I5
sg15
g16
sg17
I23
sg18
F1
sg19
g4
(g6
S'\x9a\x99\x99\x99\x99\x99\xe9?'
tRp897
sa(dp898
g3
g880
sg8
F0.5
sS'N'
I200
sg9
F0.98999999999999999
sg10
I11
sg11
g12
sg13
I23
sg14
I5
sg15
g16
sg17
I23
sg18
F1
sg19
g4
(g6
S'\xcd\xcc\xcc\xcc\xcc\xcc\xec?'
tRp899
sa(dp900
g3
g880
sg8
F0.5
sS'N'
I200
sg9
F0.98999999999999999
sg10
I11
sg11
g12
sg13
I23
sg14
I5
sg15
g16
sg17
I23
sg18
F1
sg19
g4
(g6
S'\x1f\x85\xebQ\xb8\x1e\xed?'
tRp901
sa(dp902
g3
g880
sg8
F0.5
sS'N'
I200
sg9
F0.98999999999999999
sg10
I11
sg11
g12
sg13
I23
sg14
I5
sg15
g16
sg17
I23
sg18
F1
sg19
g4
(g6
S'q=\n\xd7\xa3p\xed?'
tRp903
sa(dp904
g3
g880
sg8
F0.5
sS'N'
I200
sg9
F0.98999999999999999
sg10
I11
sg11
g12
sg13
I23
sg14
I5
sg15
g16
sg17
I23
sg18
F1
sg19
g4
(g6
S'\xc3\xf5(\\\x8f\xc2\xed?'
tRp905
sa(dp906
g3
g880
sg8
F0.5
sS'N'
I200
sg9
F0.98999999999999999
sg10
I11
sg11
g12
sg13
I23
sg14
I5
sg15
g16
sg17
I23
sg18
F1
sg19
g4
(g6
S'\x15\xaeG\xe1z\x14\xee?'
tRp907
sa(dp908
g3
g880
sg8
F0.5
sS'N'
I200
sg9
F0.98999999999999999
sg10
I11
sg11
g12
sg13
I23
sg14
I5
sg15
g16
sg17
I23
sg18
F1
sg19
g4
(g6
S'gfffff\xee?'
tRp909
sa(dp910
g3
g880
sg8
F0.5
sS'N'
I200
sg9
F0.98999999999999999
sg10
I11
sg11
g12
sg13
I23
sg14
I5
sg15
g16
sg17
I23
sg18
F1
sg19
g4
(g6
S'\xb9\x1e\x85\xebQ\xb8\xee?'
tRp911
sa(dp912
g3
g880
sg8
F0.5
sS'N'
I200
sg9
F0.98999999999999999
sg10
I11
sg11
g12
sg13
I23
sg14
I5
sg15
g16
sg17
I23
sg18
F1
sg19
g4
(g6
S'\x0b\xd7\xa3p=\n\xef?'
tRp913
sa(dp914
g3
g880
sg8
F0.5
sS'N'
I200
sg9
F0.98999999999999999
sg10
I11
sg11
g12
sg13
I23
sg14
I5
sg15
g16
sg17
I23
sg18
F1
sg19
g4
(g6
S']\x8f\xc2\xf5(\\\xef?'
tRp915
sa(dp916
g3
g880
sg8
F0.5
sS'N'
I200
sg9
F0.98999999999999999
sg10
I11
sg11
g12
sg13
I23
sg14
I5
sg15
g16
sg17
I23
sg18
F1
sg19
g4
(g6
S'\xafG\xe1z\x14\xae\xef?'
tRp917
sa(dp918
g3
g880
sg8
F0.5
sS'N'
I200
sg9
F0.98999999999999999
sg10
I11
sg11
g12
sg13
I23
sg14
I5
sg15
g16
sg17
I23
sg18
F1
sg19
g4
(g6
S'\x00\x00\x00\x00\x00\x00\xf0?'
tRp919
sa(dp920
g3
g4
(g6
S'\xb6\xffI\xe4m\x1e9@'
tRp921
sg8
F0.5
sS'N'
I200
sg9
F0.98999999999999999
sg10
I11
sg11
g12
sg13
I23
sg14
I5
sg15
g16
sg17
I23
sg18
F1
sg19
g4
(g6
S'\x00\x00\x00\x00\x00\x00\x00\x00'
tRp922
sa(dp923
g3
g921
sg8
F0.5
sS'N'
I200
sg9
F0.98999999999999999
sg10
I11
sg11
g12
sg13
I23
sg14
I5
sg15
g16
sg17
I23
sg18
F1
sg19
g4
(g6
S'\x9a\x99\x99\x99\x99\x99\xb9?'
tRp924
sa(dp925
g3
g921
sg8
F0.5
sS'N'
I200
sg9
F0.98999999999999999
sg10
I11
sg11
g12
sg13
I23
sg14
I5
sg15
g16
sg17
I23
sg18
F1
sg19
g4
(g6
S'\x9a\x99\x99\x99\x99\x99\xc9?'
tRp926
sa(dp927
g3
g921
sg8
F0.5
sS'N'
I200
sg9
F0.98999999999999999
sg10
I11
sg11
g12
sg13
I23
sg14
I5
sg15
g16
sg17
I23
sg18
F1
sg19
g4
(g6
S'433333\xd3?'
tRp928
sa(dp929
g3
g921
sg8
F0.5
sS'N'
I200
sg9
F0.98999999999999999
sg10
I11
sg11
g12
sg13
I23
sg14
I5
sg15
g16
sg17
I23
sg18
F1
sg19
g4
(g6
S'\x9a\x99\x99\x99\x99\x99\xd9?'
tRp930
sa(dp931
g3
g921
sg8
F0.5
sS'N'
I200
sg9
F0.98999999999999999
sg10
I11
sg11
g12
sg13
I23
sg14
I5
sg15
g16
sg17
I23
sg18
F1
sg19
g4
(g6
S'\x00\x00\x00\x00\x00\x00\xe0?'
tRp932
sa(dp933
g3
g921
sg8
F0.5
sS'N'
I200
sg9
F0.98999999999999999
sg10
I11
sg11
g12
sg13
I23
sg14
I5
sg15
g16
sg17
I23
sg18
F1
sg19
g4
(g6
S'433333\xe3?'
tRp934
sa(dp935
g3
g921
sg8
F0.5
sS'N'
I200
sg9
F0.98999999999999999
sg10
I11
sg11
g12
sg13
I23
sg14
I5
sg15
g16
sg17
I23
sg18
F1
sg19
g4
(g6
S'gfffff\xe6?'
tRp936
sa(dp937
g3
g921
sg8
F0.5
sS'N'
I200
sg9
F0.98999999999999999
sg10
I11
sg11
g12
sg13
I23
sg14
I5
sg15
g16
sg17
I23
sg18
F1
sg19
g4
(g6
S'\x9a\x99\x99\x99\x99\x99\xe9?'
tRp938
sa(dp939
g3
g921
sg8
F0.5
sS'N'
I200
sg9
F0.98999999999999999
sg10
I11
sg11
g12
sg13
I23
sg14
I5
sg15
g16
sg17
I23
sg18
F1
sg19
g4
(g6
S'\xcd\xcc\xcc\xcc\xcc\xcc\xec?'
tRp940
sa(dp941
g3
g921
sg8
F0.5
sS'N'
I200
sg9
F0.98999999999999999
sg10
I11
sg11
g12
sg13
I23
sg14
I5
sg15
g16
sg17
I23
sg18
F1
sg19
g4
(g6
S'\x1f\x85\xebQ\xb8\x1e\xed?'
tRp942
sa(dp943
g3
g921
sg8
F0.5
sS'N'
I200
sg9
F0.98999999999999999
sg10
I11
sg11
g12
sg13
I23
sg14
I5
sg15
g16
sg17
I23
sg18
F1
sg19
g4
(g6
S'q=\n\xd7\xa3p\xed?'
tRp944
sa(dp945
g3
g921
sg8
F0.5
sS'N'
I200
sg9
F0.98999999999999999
sg10
I11
sg11
g12
sg13
I23
sg14
I5
sg15
g16
sg17
I23
sg18
F1
sg19
g4
(g6
S'\xc3\xf5(\\\x8f\xc2\xed?'
tRp946
sa(dp947
g3
g921
sg8
F0.5
sS'N'
I200
sg9
F0.98999999999999999
sg10
I11
sg11
g12
sg13
I23
sg14
I5
sg15
g16
sg17
I23
sg18
F1
sg19
g4
(g6
S'\x15\xaeG\xe1z\x14\xee?'
tRp948
sa(dp949
g3
g921
sg8
F0.5
sS'N'
I200
sg9
F0.98999999999999999
sg10
I11
sg11
g12
sg13
I23
sg14
I5
sg15
g16
sg17
I23
sg18
F1
sg19
g4
(g6
S'gfffff\xee?'
tRp950
sa(dp951
g3
g921
sg8
F0.5
sS'N'
I200
sg9
F0.98999999999999999
sg10
I11
sg11
g12
sg13
I23
sg14
I5
sg15
g16
sg17
I23
sg18
F1
sg19
g4
(g6
S'\xb9\x1e\x85\xebQ\xb8\xee?'
tRp952
sa(dp953
g3
g921
sg8
F0.5
sS'N'
I200
sg9
F0.98999999999999999
sg10
I11
sg11
g12
sg13
I23
sg14
I5
sg15
g16
sg17
I23
sg18
F1
sg19
g4
(g6
S'\x0b\xd7\xa3p=\n\xef?'
tRp954
sa(dp955
g3
g921
sg8
F0.5
sS'N'
I200
sg9
F0.98999999999999999
sg10
I11
sg11
g12
sg13
I23
sg14
I5
sg15
g16
sg17
I23
sg18
F1
sg19
g4
(g6
S']\x8f\xc2\xf5(\\\xef?'
tRp956
sa(dp957
g3
g921
sg8
F0.5
sS'N'
I200
sg9
F0.98999999999999999
sg10
I11
sg11
g12
sg13
I23
sg14
I5
sg15
g16
sg17
I23
sg18
F1
sg19
g4
(g6
S'\xafG\xe1z\x14\xae\xef?'
tRp958
sa(dp959
g3
g921
sg8
F0.5
sS'N'
I200
sg9
F0.98999999999999999
sg10
I11
sg11
g12
sg13
I23
sg14
I5
sg15
g16
sg17
I23
sg18
F1
sg19
g4
(g6
S'\x00\x00\x00\x00\x00\x00\xf0?'
tRp960
sa(dp961
g3
g4
(g6
S'\xe0\x84\x93\x93\xc5\xe7C@'
tRp962
sg8
F0.5
sS'N'
I200
sg9
F0.98999999999999999
sg10
I11
sg11
g12
sg13
I23
sg14
I5
sg15
g16
sg17
I23
sg18
F1
sg19
g4
(g6
S'\x00\x00\x00\x00\x00\x00\x00\x00'
tRp963
sa(dp964
g3
g962
sg8
F0.5
sS'N'
I200
sg9
F0.98999999999999999
sg10
I11
sg11
g12
sg13
I23
sg14
I5
sg15
g16
sg17
I23
sg18
F1
sg19
g4
(g6
S'\x9a\x99\x99\x99\x99\x99\xb9?'
tRp965
sa(dp966
g3
g962
sg8
F0.5
sS'N'
I200
sg9
F0.98999999999999999
sg10
I11
sg11
g12
sg13
I23
sg14
I5
sg15
g16
sg17
I23
sg18
F1
sg19
g4
(g6
S'\x9a\x99\x99\x99\x99\x99\xc9?'
tRp967
sa(dp968
g3
g962
sg8
F0.5
sS'N'
I200
sg9
F0.98999999999999999
sg10
I11
sg11
g12
sg13
I23
sg14
I5
sg15
g16
sg17
I23
sg18
F1
sg19
g4
(g6
S'433333\xd3?'
tRp969
sa(dp970
g3
g962
sg8
F0.5
sS'N'
I200
sg9
F0.98999999999999999
sg10
I11
sg11
g12
sg13
I23
sg14
I5
sg15
g16
sg17
I23
sg18
F1
sg19
g4
(g6
S'\x9a\x99\x99\x99\x99\x99\xd9?'
tRp971
sa(dp972
g3
g962
sg8
F0.5
sS'N'
I200
sg9
F0.98999999999999999
sg10
I11
sg11
g12
sg13
I23
sg14
I5
sg15
g16
sg17
I23
sg18
F1
sg19
g4
(g6
S'\x00\x00\x00\x00\x00\x00\xe0?'
tRp973
sa(dp974
g3
g962
sg8
F0.5
sS'N'
I200
sg9
F0.98999999999999999
sg10
I11
sg11
g12
sg13
I23
sg14
I5
sg15
g16
sg17
I23
sg18
F1
sg19
g4
(g6
S'433333\xe3?'
tRp975
sa(dp976
g3
g962
sg8
F0.5
sS'N'
I200
sg9
F0.98999999999999999
sg10
I11
sg11
g12
sg13
I23
sg14
I5
sg15
g16
sg17
I23
sg18
F1
sg19
g4
(g6
S'gfffff\xe6?'
tRp977
sa(dp978
g3
g962
sg8
F0.5
sS'N'
I200
sg9
F0.98999999999999999
sg10
I11
sg11
g12
sg13
I23
sg14
I5
sg15
g16
sg17
I23
sg18
F1
sg19
g4
(g6
S'\x9a\x99\x99\x99\x99\x99\xe9?'
tRp979
sa(dp980
g3
g962
sg8
F0.5
sS'N'
I200
sg9
F0.98999999999999999
sg10
I11
sg11
g12
sg13
I23
sg14
I5
sg15
g16
sg17
I23
sg18
F1
sg19
g4
(g6
S'\xcd\xcc\xcc\xcc\xcc\xcc\xec?'
tRp981
sa(dp982
g3
g962
sg8
F0.5
sS'N'
I200
sg9
F0.98999999999999999
sg10
I11
sg11
g12
sg13
I23
sg14
I5
sg15
g16
sg17
I23
sg18
F1
sg19
g4
(g6
S'\x1f\x85\xebQ\xb8\x1e\xed?'
tRp983
sa(dp984
g3
g962
sg8
F0.5
sS'N'
I200
sg9
F0.98999999999999999
sg10
I11
sg11
g12
sg13
I23
sg14
I5
sg15
g16
sg17
I23
sg18
F1
sg19
g4
(g6
S'q=\n\xd7\xa3p\xed?'
tRp985
sa(dp986
g3
g962
sg8
F0.5
sS'N'
I200
sg9
F0.98999999999999999
sg10
I11
sg11
g12
sg13
I23
sg14
I5
sg15
g16
sg17
I23
sg18
F1
sg19
g4
(g6
S'\xc3\xf5(\\\x8f\xc2\xed?'
tRp987
sa(dp988
g3
g962
sg8
F0.5
sS'N'
I200
sg9
F0.98999999999999999
sg10
I11
sg11
g12
sg13
I23
sg14
I5
sg15
g16
sg17
I23
sg18
F1
sg19
g4
(g6
S'\x15\xaeG\xe1z\x14\xee?'
tRp989
sa(dp990
g3
g962
sg8
F0.5
sS'N'
I200
sg9
F0.98999999999999999
sg10
I11
sg11
g12
sg13
I23
sg14
I5
sg15
g16
sg17
I23
sg18
F1
sg19
g4
(g6
S'gfffff\xee?'
tRp991
sa(dp992
g3
g962
sg8
F0.5
sS'N'
I200
sg9
F0.98999999999999999
sg10
I11
sg11
g12
sg13
I23
sg14
I5
sg15
g16
sg17
I23
sg18
F1
sg19
g4
(g6
S'\xb9\x1e\x85\xebQ\xb8\xee?'
tRp993
sa(dp994
g3
g962
sg8
F0.5
sS'N'
I200
sg9
F0.98999999999999999
sg10
I11
sg11
g12
sg13
I23
sg14
I5
sg15
g16
sg17
I23
sg18
F1
sg19
g4
(g6
S'\x0b\xd7\xa3p=\n\xef?'
tRp995
sa(dp996
g3
g962
sg8
F0.5
sS'N'
I200
sg9
F0.98999999999999999
sg10
I11
sg11
g12
sg13
I23
sg14
I5
sg15
g16
sg17
I23
sg18
F1
sg19
g4
(g6
S']\x8f\xc2\xf5(\\\xef?'
tRp997
sa(dp998
g3
g962
sg8
F0.5
sS'N'
I200
sg9
F0.98999999999999999
sg10
I11
sg11
g12
sg13
I23
sg14
I5
sg15
g16
sg17
I23
sg18
F1
sg19
g4
(g6
S'\xafG\xe1z\x14\xae\xef?'
tRp999
sa(dp1000
g3
g962
sg8
F0.5
sS'N'
I200
sg9
F0.98999999999999999
sg10
I11
sg11
g12
sg13
I23
sg14
I5
sg15
g16
sg17
I23
sg18
F1
sg19
g4
(g6
S'\x00\x00\x00\x00\x00\x00\xf0?'
tRp1001
sa(dp1002
g3
g4
(g6
S'S\xac\xc1\x06A\x8cO@'
tRp1003
sg8
F0.5
sS'N'
I200
sg9
F0.98999999999999999
sg10
I11
sg11
g12
sg13
I23
sg14
I5
sg15
g16
sg17
I23
sg18
F1
sg19
g4
(g6
S'\x00\x00\x00\x00\x00\x00\x00\x00'
tRp1004
sa(dp1005
g3
g1003
sg8
F0.5
sS'N'
I200
sg9
F0.98999999999999999
sg10
I11
sg11
g12
sg13
I23
sg14
I5
sg15
g16
sg17
I23
sg18
F1
sg19
g4
(g6
S'\x9a\x99\x99\x99\x99\x99\xb9?'
tRp1006
sa(dp1007
g3
g1003
sg8
F0.5
sS'N'
I200
sg9
F0.98999999999999999
sg10
I11
sg11
g12
sg13
I23
sg14
I5
sg15
g16
sg17
I23
sg18
F1
sg19
g4
(g6
S'\x9a\x99\x99\x99\x99\x99\xc9?'
tRp1008
sa(dp1009
g3
g1003
sg8
F0.5
sS'N'
I200
sg9
F0.98999999999999999
sg10
I11
sg11
g12
sg13
I23
sg14
I5
sg15
g16
sg17
I23
sg18
F1
sg19
g4
(g6
S'433333\xd3?'
tRp1010
sa(dp1011
g3
g1003
sg8
F0.5
sS'N'
I200
sg9
F0.98999999999999999
sg10
I11
sg11
g12
sg13
I23
sg14
I5
sg15
g16
sg17
I23
sg18
F1
sg19
g4
(g6
S'\x9a\x99\x99\x99\x99\x99\xd9?'
tRp1012
sa(dp1013
g3
g1003
sg8
F0.5
sS'N'
I200
sg9
F0.98999999999999999
sg10
I11
sg11
g12
sg13
I23
sg14
I5
sg15
g16
sg17
I23
sg18
F1
sg19
g4
(g6
S'\x00\x00\x00\x00\x00\x00\xe0?'
tRp1014
sa(dp1015
g3
g1003
sg8
F0.5
sS'N'
I200
sg9
F0.98999999999999999
sg10
I11
sg11
g12
sg13
I23
sg14
I5
sg15
g16
sg17
I23
sg18
F1
sg19
g4
(g6
S'433333\xe3?'
tRp1016
sa(dp1017
g3
g1003
sg8
F0.5
sS'N'
I200
sg9
F0.98999999999999999
sg10
I11
sg11
g12
sg13
I23
sg14
I5
sg15
g16
sg17
I23
sg18
F1
sg19
g4
(g6
S'gfffff\xe6?'
tRp1018
sa(dp1019
g3
g1003
sg8
F0.5
sS'N'
I200
sg9
F0.98999999999999999
sg10
I11
sg11
g12
sg13
I23
sg14
I5
sg15
g16
sg17
I23
sg18
F1
sg19
g4
(g6
S'\x9a\x99\x99\x99\x99\x99\xe9?'
tRp1020
sa(dp1021
g3
g1003
sg8
F0.5
sS'N'
I200
sg9
F0.98999999999999999
sg10
I11
sg11
g12
sg13
I23
sg14
I5
sg15
g16
sg17
I23
sg18
F1
sg19
g4
(g6
S'\xcd\xcc\xcc\xcc\xcc\xcc\xec?'
tRp1022
sa(dp1023
g3
g1003
sg8
F0.5
sS'N'
I200
sg9
F0.98999999999999999
sg10
I11
sg11
g12
sg13
I23
sg14
I5
sg15
g16
sg17
I23
sg18
F1
sg19
g4
(g6
S'\x1f\x85\xebQ\xb8\x1e\xed?'
tRp1024
sa(dp1025
g3
g1003
sg8
F0.5
sS'N'
I200
sg9
F0.98999999999999999
sg10
I11
sg11
g12
sg13
I23
sg14
I5
sg15
g16
sg17
I23
sg18
F1
sg19
g4
(g6
S'q=\n\xd7\xa3p\xed?'
tRp1026
sa(dp1027
g3
g1003
sg8
F0.5
sS'N'
I200
sg9
F0.98999999999999999
sg10
I11
sg11
g12
sg13
I23
sg14
I5
sg15
g16
sg17
I23
sg18
F1
sg19
g4
(g6
S'\xc3\xf5(\\\x8f\xc2\xed?'
tRp1028
sa(dp1029
g3
g1003
sg8
F0.5
sS'N'
I200
sg9
F0.98999999999999999
sg10
I11
sg11
g12
sg13
I23
sg14
I5
sg15
g16
sg17
I23
sg18
F1
sg19
g4
(g6
S'\x15\xaeG\xe1z\x14\xee?'
tRp1030
sa(dp1031
g3
g1003
sg8
F0.5
sS'N'
I200
sg9
F0.98999999999999999
sg10
I11
sg11
g12
sg13
I23
sg14
I5
sg15
g16
sg17
I23
sg18
F1
sg19
g4
(g6
S'gfffff\xee?'
tRp1032
sa(dp1033
g3
g1003
sg8
F0.5
sS'N'
I200
sg9
F0.98999999999999999
sg10
I11
sg11
g12
sg13
I23
sg14
I5
sg15
g16
sg17
I23
sg18
F1
sg19
g4
(g6
S'\xb9\x1e\x85\xebQ\xb8\xee?'
tRp1034
sa(dp1035
g3
g1003
sg8
F0.5
sS'N'
I200
sg9
F0.98999999999999999
sg10
I11
sg11
g12
sg13
I23
sg14
I5
sg15
g16
sg17
I23
sg18
F1
sg19
g4
(g6
S'\x0b\xd7\xa3p=\n\xef?'
tRp1036
sa(dp1037
g3
g1003
sg8
F0.5
sS'N'
I200
sg9
F0.98999999999999999
sg10
I11
sg11
g12
sg13
I23
sg14
I5
sg15
g16
sg17
I23
sg18
F1
sg19
g4
(g6
S']\x8f\xc2\xf5(\\\xef?'
tRp1038
sa(dp1039
g3
g1003
sg8
F0.5
sS'N'
I200
sg9
F0.98999999999999999
sg10
I11
sg11
g12
sg13
I23
sg14
I5
sg15
g16
sg17
I23
sg18
F1
sg19
g4
(g6
S'\xafG\xe1z\x14\xae\xef?'
tRp1040
sa(dp1041
g3
g1003
sg8
F0.5
sS'N'
I200
sg9
F0.98999999999999999
sg10
I11
sg11
g12
sg13
I23
sg14
I5
sg15
g16
sg17
I23
sg18
F1
sg19
g4
(g6
S'\x00\x00\x00\x00\x00\x00\xf0?'
tRp1042
sa(dp1043
g3
g4
(g6
S'H\x00\x00\x00\x00\x00Y@'
tRp1044
sg8
F0.5
sS'N'
I200
sg9
F0.98999999999999999
sg10
I11
sg11
g12
sg13
I23
sg14
I5
sg15
g16
sg17
I23
sg18
F1
sg19
g4
(g6
S'\x00\x00\x00\x00\x00\x00\x00\x00'
tRp1045
sa(dp1046
g3
g1044
sg8
F0.5
sS'N'
I200
sg9
F0.98999999999999999
sg10
I11
sg11
g12
sg13
I23
sg14
I5
sg15
g16
sg17
I23
sg18
F1
sg19
g4
(g6
S'\x9a\x99\x99\x99\x99\x99\xb9?'
tRp1047
sa(dp1048
g3
g1044
sg8
F0.5
sS'N'
I200
sg9
F0.98999999999999999
sg10
I11
sg11
g12
sg13
I23
sg14
I5
sg15
g16
sg17
I23
sg18
F1
sg19
g4
(g6
S'\x9a\x99\x99\x99\x99\x99\xc9?'
tRp1049
sa(dp1050
g3
g1044
sg8
F0.5
sS'N'
I200
sg9
F0.98999999999999999
sg10
I11
sg11
g12
sg13
I23
sg14
I5
sg15
g16
sg17
I23
sg18
F1
sg19
g4
(g6
S'433333\xd3?'
tRp1051
sa(dp1052
g3
g1044
sg8
F0.5
sS'N'
I200
sg9
F0.98999999999999999
sg10
I11
sg11
g12
sg13
I23
sg14
I5
sg15
g16
sg17
I23
sg18
F1
sg19
g4
(g6
S'\x9a\x99\x99\x99\x99\x99\xd9?'
tRp1053
sa(dp1054
g3
g1044
sg8
F0.5
sS'N'
I200
sg9
F0.98999999999999999
sg10
I11
sg11
g12
sg13
I23
sg14
I5
sg15
g16
sg17
I23
sg18
F1
sg19
g4
(g6
S'\x00\x00\x00\x00\x00\x00\xe0?'
tRp1055
sa(dp1056
g3
g1044
sg8
F0.5
sS'N'
I200
sg9
F0.98999999999999999
sg10
I11
sg11
g12
sg13
I23
sg14
I5
sg15
g16
sg17
I23
sg18
F1
sg19
g4
(g6
S'433333\xe3?'
tRp1057
sa(dp1058
g3
g1044
sg8
F0.5
sS'N'
I200
sg9
F0.98999999999999999
sg10
I11
sg11
g12
sg13
I23
sg14
I5
sg15
g16
sg17
I23
sg18
F1
sg19
g4
(g6
S'gfffff\xe6?'
tRp1059
sa(dp1060
g3
g1044
sg8
F0.5
sS'N'
I200
sg9
F0.98999999999999999
sg10
I11
sg11
g12
sg13
I23
sg14
I5
sg15
g16
sg17
I23
sg18
F1
sg19
g4
(g6
S'\x9a\x99\x99\x99\x99\x99\xe9?'
tRp1061
sa(dp1062
g3
g1044
sg8
F0.5
sS'N'
I200
sg9
F0.98999999999999999
sg10
I11
sg11
g12
sg13
I23
sg14
I5
sg15
g16
sg17
I23
sg18
F1
sg19
g4
(g6
S'\xcd\xcc\xcc\xcc\xcc\xcc\xec?'
tRp1063
sa(dp1064
g3
g1044
sg8
F0.5
sS'N'
I200
sg9
F0.98999999999999999
sg10
I11
sg11
g12
sg13
I23
sg14
I5
sg15
g16
sg17
I23
sg18
F1
sg19
g4
(g6
S'\x1f\x85\xebQ\xb8\x1e\xed?'
tRp1065
sa(dp1066
g3
g1044
sg8
F0.5
sS'N'
I200
sg9
F0.98999999999999999
sg10
I11
sg11
g12
sg13
I23
sg14
I5
sg15
g16
sg17
I23
sg18
F1
sg19
g4
(g6
S'q=\n\xd7\xa3p\xed?'
tRp1067
sa(dp1068
g3
g1044
sg8
F0.5
sS'N'
I200
sg9
F0.98999999999999999
sg10
I11
sg11
g12
sg13
I23
sg14
I5
sg15
g16
sg17
I23
sg18
F1
sg19
g4
(g6
S'\xc3\xf5(\\\x8f\xc2\xed?'
tRp1069
sa(dp1070
g3
g1044
sg8
F0.5
sS'N'
I200
sg9
F0.98999999999999999
sg10
I11
sg11
g12
sg13
I23
sg14
I5
sg15
g16
sg17
I23
sg18
F1
sg19
g4
(g6
S'\x15\xaeG\xe1z\x14\xee?'
tRp1071
sa(dp1072
g3
g1044
sg8
F0.5
sS'N'
I200
sg9
F0.98999999999999999
sg10
I11
sg11
g12
sg13
I23
sg14
I5
sg15
g16
sg17
I23
sg18
F1
sg19
g4
(g6
S'gfffff\xee?'
tRp1073
sa(dp1074
g3
g1044
sg8
F0.5
sS'N'
I200
sg9
F0.98999999999999999
sg10
I11
sg11
g12
sg13
I23
sg14
I5
sg15
g16
sg17
I23
sg18
F1
sg19
g4
(g6
S'\xb9\x1e\x85\xebQ\xb8\xee?'
tRp1075
sa(dp1076
g3
g1044
sg8
F0.5
sS'N'
I200
sg9
F0.98999999999999999
sg10
I11
sg11
g12
sg13
I23
sg14
I5
sg15
g16
sg17
I23
sg18
F1
sg19
g4
(g6
S'\x0b\xd7\xa3p=\n\xef?'
tRp1077
sa(dp1078
g3
g1044
sg8
F0.5
sS'N'
I200
sg9
F0.98999999999999999
sg10
I11
sg11
g12
sg13
I23
sg14
I5
sg15
g16
sg17
I23
sg18
F1
sg19
g4
(g6
S']\x8f\xc2\xf5(\\\xef?'
tRp1079
sa(dp1080
g3
g1044
sg8
F0.5
sS'N'
I200
sg9
F0.98999999999999999
sg10
I11
sg11
g12
sg13
I23
sg14
I5
sg15
g16
sg17
I23
sg18
F1
sg19
g4
(g6
S'\xafG\xe1z\x14\xae\xef?'
tRp1081
sa(dp1082
g3
g1044
sg8
F0.5
sS'N'
I200
sg9
F0.98999999999999999
sg10
I11
sg11
g12
sg13
I23
sg14
I5
sg15
g16
sg17
I23
sg18
F1
sg19
g4
(g6
S'\x00\x00\x00\x00\x00\x00\xf0?'
tRp1083
sa(dp1084
g3
g4
(g6
S'|\xeb\xd5\x80\xa8\xcfc@'
tRp1085
sg8
F0.5
sS'N'
I200
sg9
F0.98999999999999999
sg10
I11
sg11
g12
sg13
I23
sg14
I5
sg15
g16
sg17
I23
sg18
F1
sg19
g4
(g6
S'\x00\x00\x00\x00\x00\x00\x00\x00'
tRp1086
sa(dp1087
g3
g1085
sg8
F0.5
sS'N'
I200
sg9
F0.98999999999999999
sg10
I11
sg11
g12
sg13
I23
sg14
I5
sg15
g16
sg17
I23
sg18
F1
sg19
g4
(g6
S'\x9a\x99\x99\x99\x99\x99\xb9?'
tRp1088
sa(dp1089
g3
g1085
sg8
F0.5
sS'N'
I200
sg9
F0.98999999999999999
sg10
I11
sg11
g12
sg13
I23
sg14
I5
sg15
g16
sg17
I23
sg18
F1
sg19
g4
(g6
S'\x9a\x99\x99\x99\x99\x99\xc9?'
tRp1090
sa(dp1091
g3
g1085
sg8
F0.5
sS'N'
I200
sg9
F0.98999999999999999
sg10
I11
sg11
g12
sg13
I23
sg14
I5
sg15
g16
sg17
I23
sg18
F1
sg19
g4
(g6
S'433333\xd3?'
tRp1092
sa(dp1093
g3
g1085
sg8
F0.5
sS'N'
I200
sg9
F0.98999999999999999
sg10
I11
sg11
g12
sg13
I23
sg14
I5
sg15
g16
sg17
I23
sg18
F1
sg19
g4
(g6
S'\x9a\x99\x99\x99\x99\x99\xd9?'
tRp1094
sa(dp1095
g3
g1085
sg8
F0.5
sS'N'
I200
sg9
F0.98999999999999999
sg10
I11
sg11
g12
sg13
I23
sg14
I5
sg15
g16
sg17
I23
sg18
F1
sg19
g4
(g6
S'\x00\x00\x00\x00\x00\x00\xe0?'
tRp1096
sa(dp1097
g3
g1085
sg8
F0.5
sS'N'
I200
sg9
F0.98999999999999999
sg10
I11
sg11
g12
sg13
I23
sg14
I5
sg15
g16
sg17
I23
sg18
F1
sg19
g4
(g6
S'433333\xe3?'
tRp1098
sa(dp1099
g3
g1085
sg8
F0.5
sS'N'
I200
sg9
F0.98999999999999999
sg10
I11
sg11
g12
sg13
I23
sg14
I5
sg15
g16
sg17
I23
sg18
F1
sg19
g4
(g6
S'gfffff\xe6?'
tRp1100
sa(dp1101
g3
g1085
sg8
F0.5
sS'N'
I200
sg9
F0.98999999999999999
sg10
I11
sg11
g12
sg13
I23
sg14
I5
sg15
g16
sg17
I23
sg18
F1
sg19
g4
(g6
S'\x9a\x99\x99\x99\x99\x99\xe9?'
tRp1102
sa(dp1103
g3
g1085
sg8
F0.5
sS'N'
I200
sg9
F0.98999999999999999
sg10
I11
sg11
g12
sg13
I23
sg14
I5
sg15
g16
sg17
I23
sg18
F1
sg19
g4
(g6
S'\xcd\xcc\xcc\xcc\xcc\xcc\xec?'
tRp1104
sa(dp1105
g3
g1085
sg8
F0.5
sS'N'
I200
sg9
F0.98999999999999999
sg10
I11
sg11
g12
sg13
I23
sg14
I5
sg15
g16
sg17
I23
sg18
F1
sg19
g4
(g6
S'\x1f\x85\xebQ\xb8\x1e\xed?'
tRp1106
sa(dp1107
g3
g1085
sg8
F0.5
sS'N'
I200
sg9
F0.98999999999999999
sg10
I11
sg11
g12
sg13
I23
sg14
I5
sg15
g16
sg17
I23
sg18
F1
sg19
g4
(g6
S'q=\n\xd7\xa3p\xed?'
tRp1108
sa(dp1109
g3
g1085
sg8
F0.5
sS'N'
I200
sg9
F0.98999999999999999
sg10
I11
sg11
g12
sg13
I23
sg14
I5
sg15
g16
sg17
I23
sg18
F1
sg19
g4
(g6
S'\xc3\xf5(\\\x8f\xc2\xed?'
tRp1110
sa(dp1111
g3
g1085
sg8
F0.5
sS'N'
I200
sg9
F0.98999999999999999
sg10
I11
sg11
g12
sg13
I23
sg14
I5
sg15
g16
sg17
I23
sg18
F1
sg19
g4
(g6
S'\x15\xaeG\xe1z\x14\xee?'
tRp1112
sa(dp1113
g3
g1085
sg8
F0.5
sS'N'
I200
sg9
F0.98999999999999999
sg10
I11
sg11
g12
sg13
I23
sg14
I5
sg15
g16
sg17
I23
sg18
F1
sg19
g4
(g6
S'gfffff\xee?'
tRp1114
sa(dp1115
g3
g1085
sg8
F0.5
sS'N'
I200
sg9
F0.98999999999999999
sg10
I11
sg11
g12
sg13
I23
sg14
I5
sg15
g16
sg17
I23
sg18
F1
sg19
g4
(g6
S'\xb9\x1e\x85\xebQ\xb8\xee?'
tRp1116
sa(dp1117
g3
g1085
sg8
F0.5
sS'N'
I200
sg9
F0.98999999999999999
sg10
I11
sg11
g12
sg13
I23
sg14
I5
sg15
g16
sg17
I23
sg18
F1
sg19
g4
(g6
S'\x0b\xd7\xa3p=\n\xef?'
tRp1118
sa(dp1119
g3
g1085
sg8
F0.5
sS'N'
I200
sg9
F0.98999999999999999
sg10
I11
sg11
g12
sg13
I23
sg14
I5
sg15
g16
sg17
I23
sg18
F1
sg19
g4
(g6
S']\x8f\xc2\xf5(\\\xef?'
tRp1120
sa(dp1121
g3
g1085
sg8
F0.5
sS'N'
I200
sg9
F0.98999999999999999
sg10
I11
sg11
g12
sg13
I23
sg14
I5
sg15
g16
sg17
I23
sg18
F1
sg19
g4
(g6
S'\xafG\xe1z\x14\xae\xef?'
tRp1122
sa(dp1123
g3
g1085
sg8
F0.5
sS'N'
I200
sg9
F0.98999999999999999
sg10
I11
sg11
g12
sg13
I23
sg14
I5
sg15
g16
sg17
I23
sg18
F1
sg19
g4
(g6
S'\x00\x00\x00\x00\x00\x00\xf0?'
tRp1124
sa(dp1125
g3
g4
(g6
S'\xb6\x7f\\]\tfo@'
tRp1126
sg8
F0.5
sS'N'
I200
sg9
F0.98999999999999999
sg10
I11
sg11
g12
sg13
I23
sg14
I5
sg15
g16
sg17
I23
sg18
F1
sg19
g4
(g6
S'\x00\x00\x00\x00\x00\x00\x00\x00'
tRp1127
sa(dp1128
g3
g1126
sg8
F0.5
sS'N'
I200
sg9
F0.98999999999999999
sg10
I11
sg11
g12
sg13
I23
sg14
I5
sg15
g16
sg17
I23
sg18
F1
sg19
g4
(g6
S'\x9a\x99\x99\x99\x99\x99\xb9?'
tRp1129
sa(dp1130
g3
g1126
sg8
F0.5
sS'N'
I200
sg9
F0.98999999999999999
sg10
I11
sg11
g12
sg13
I23
sg14
I5
sg15
g16
sg17
I23
sg18
F1
sg19
g4
(g6
S'\x9a\x99\x99\x99\x99\x99\xc9?'
tRp1131
sa(dp1132
g3
g1126
sg8
F0.5
sS'N'
I200
sg9
F0.98999999999999999
sg10
I11
sg11
g12
sg13
I23
sg14
I5
sg15
g16
sg17
I23
sg18
F1
sg19
g4
(g6
S'433333\xd3?'
tRp1133
sa(dp1134
g3
g1126
sg8
F0.5
sS'N'
I200
sg9
F0.98999999999999999
sg10
I11
sg11
g12
sg13
I23
sg14
I5
sg15
g16
sg17
I23
sg18
F1
sg19
g4
(g6
S'\x9a\x99\x99\x99\x99\x99\xd9?'
tRp1135
sa(dp1136
g3
g1126
sg8
F0.5
sS'N'
I200
sg9
F0.98999999999999999
sg10
I11
sg11
g12
sg13
I23
sg14
I5
sg15
g16
sg17
I23
sg18
F1
sg19
g4
(g6
S'\x00\x00\x00\x00\x00\x00\xe0?'
tRp1137
sa(dp1138
g3
g1126
sg8
F0.5
sS'N'
I200
sg9
F0.98999999999999999
sg10
I11
sg11
g12
sg13
I23
sg14
I5
sg15
g16
sg17
I23
sg18
F1
sg19
g4
(g6
S'433333\xe3?'
tRp1139
sa(dp1140
g3
g1126
sg8
F0.5
sS'N'
I200
sg9
F0.98999999999999999
sg10
I11
sg11
g12
sg13
I23
sg14
I5
sg15
g16
sg17
I23
sg18
F1
sg19
g4
(g6
S'gfffff\xe6?'
tRp1141
sa(dp1142
g3
g1126
sg8
F0.5
sS'N'
I200
sg9
F0.98999999999999999
sg10
I11
sg11
g12
sg13
I23
sg14
I5
sg15
g16
sg17
I23
sg18
F1
sg19
g4
(g6
S'\x9a\x99\x99\x99\x99\x99\xe9?'
tRp1143
sa(dp1144
g3
g1126
sg8
F0.5
sS'N'
I200
sg9
F0.98999999999999999
sg10
I11
sg11
g12
sg13
I23
sg14
I5
sg15
g16
sg17
I23
sg18
F1
sg19
g4
(g6
S'\xcd\xcc\xcc\xcc\xcc\xcc\xec?'
tRp1145
sa(dp1146
g3
g1126
sg8
F0.5
sS'N'
I200
sg9
F0.98999999999999999
sg10
I11
sg11
g12
sg13
I23
sg14
I5
sg15
g16
sg17
I23
sg18
F1
sg19
g4
(g6
S'\x1f\x85\xebQ\xb8\x1e\xed?'
tRp1147
sa(dp1148
g3
g1126
sg8
F0.5
sS'N'
I200
sg9
F0.98999999999999999
sg10
I11
sg11
g12
sg13
I23
sg14
I5
sg15
g16
sg17
I23
sg18
F1
sg19
g4
(g6
S'q=\n\xd7\xa3p\xed?'
tRp1149
sa(dp1150
g3
g1126
sg8
F0.5
sS'N'
I200
sg9
F0.98999999999999999
sg10
I11
sg11
g12
sg13
I23
sg14
I5
sg15
g16
sg17
I23
sg18
F1
sg19
g4
(g6
S'\xc3\xf5(\\\x8f\xc2\xed?'
tRp1151
sa(dp1152
g3
g1126
sg8
F0.5
sS'N'
I200
sg9
F0.98999999999999999
sg10
I11
sg11
g12
sg13
I23
sg14
I5
sg15
g16
sg17
I23
sg18
F1
sg19
g4
(g6
S'\x15\xaeG\xe1z\x14\xee?'
tRp1153
sa(dp1154
g3
g1126
sg8
F0.5
sS'N'
I200
sg9
F0.98999999999999999
sg10
I11
sg11
g12
sg13
I23
sg14
I5
sg15
g16
sg17
I23
sg18
F1
sg19
g4
(g6
S'gfffff\xee?'
tRp1155
sa(dp1156
g3
g1126
sg8
F0.5
sS'N'
I200
sg9
F0.98999999999999999
sg10
I11
sg11
g12
sg13
I23
sg14
I5
sg15
g16
sg17
I23
sg18
F1
sg19
g4
(g6
S'\xb9\x1e\x85\xebQ\xb8\xee?'
tRp1157
sa(dp1158
g3
g1126
sg8
F0.5
sS'N'
I200
sg9
F0.98999999999999999
sg10
I11
sg11
g12
sg13
I23
sg14
I5
sg15
g16
sg17
I23
sg18
F1
sg19
g4
(g6
S'\x0b\xd7\xa3p=\n\xef?'
tRp1159
sa(dp1160
g3
g1126
sg8
F0.5
sS'N'
I200
sg9
F0.98999999999999999
sg10
I11
sg11
g12
sg13
I23
sg14
I5
sg15
g16
sg17
I23
sg18
F1
sg19
g4
(g6
S']\x8f\xc2\xf5(\\\xef?'
tRp1161
sa(dp1162
g3
g1126
sg8
F0.5
sS'N'
I200
sg9
F0.98999999999999999
sg10
I11
sg11
g12
sg13
I23
sg14
I5
sg15
g16
sg17
I23
sg18
F1
sg19
g4
(g6
S'\xafG\xe1z\x14\xae\xef?'
tRp1163
sa(dp1164
g3
g1126
sg8
F0.5
sS'N'
I200
sg9
F0.98999999999999999
sg10
I11
sg11
g12
sg13
I23
sg14
I5
sg15
g16
sg17
I23
sg18
F1
sg19
g4
(g6
S'\x00\x00\x00\x00\x00\x00\xf0?'
tRp1165
sa(dp1166
g3
g4
(g6
S"'fx\xf8\xb6\xe1x@"
tRp1167
sg8
F0.5
sS'N'
I200
sg9
F0.98999999999999999
sg10
I11
sg11
g12
sg13
I23
sg14
I5
sg15
g16
sg17
I23
sg18
F1
sg19
g4
(g6
S'\x00\x00\x00\x00\x00\x00\x00\x00'
tRp1168
sa(dp1169
g3
g1167
sg8
F0.5
sS'N'
I200
sg9
F0.98999999999999999
sg10
I11
sg11
g12
sg13
I23
sg14
I5
sg15
g16
sg17
I23
sg18
F1
sg19
g4
(g6
S'\x9a\x99\x99\x99\x99\x99\xb9?'
tRp1170
sa(dp1171
g3
g1167
sg8
F0.5
sS'N'
I200
sg9
F0.98999999999999999
sg10
I11
sg11
g12
sg13
I23
sg14
I5
sg15
g16
sg17
I23
sg18
F1
sg19
g4
(g6
S'\x9a\x99\x99\x99\x99\x99\xc9?'
tRp1172
sa(dp1173
g3
g1167
sg8
F0.5
sS'N'
I200
sg9
F0.98999999999999999
sg10
I11
sg11
g12
sg13
I23
sg14
I5
sg15
g16
sg17
I23
sg18
F1
sg19
g4
(g6
S'433333\xd3?'
tRp1174
sa(dp1175
g3
g1167
sg8
F0.5
sS'N'
I200
sg9
F0.98999999999999999
sg10
I11
sg11
g12
sg13
I23
sg14
I5
sg15
g16
sg17
I23
sg18
F1
sg19
g4
(g6
S'\x9a\x99\x99\x99\x99\x99\xd9?'
tRp1176
sa(dp1177
g3
g1167
sg8
F0.5
sS'N'
I200
sg9
F0.98999999999999999
sg10
I11
sg11
g12
sg13
I23
sg14
I5
sg15
g16
sg17
I23
sg18
F1
sg19
g4
(g6
S'\x00\x00\x00\x00\x00\x00\xe0?'
tRp1178
sa(dp1179
g3
g1167
sg8
F0.5
sS'N'
I200
sg9
F0.98999999999999999
sg10
I11
sg11
g12
sg13
I23
sg14
I5
sg15
g16
sg17
I23
sg18
F1
sg19
g4
(g6
S'433333\xe3?'
tRp1180
sa(dp1181
g3
g1167
sg8
F0.5
sS'N'
I200
sg9
F0.98999999999999999
sg10
I11
sg11
g12
sg13
I23
sg14
I5
sg15
g16
sg17
I23
sg18
F1
sg19
g4
(g6
S'gfffff\xe6?'
tRp1182
sa(dp1183
g3
g1167
sg8
F0.5
sS'N'
I200
sg9
F0.98999999999999999
sg10
I11
sg11
g12
sg13
I23
sg14
I5
sg15
g16
sg17
I23
sg18
F1
sg19
g4
(g6
S'\x9a\x99\x99\x99\x99\x99\xe9?'
tRp1184
sa(dp1185
g3
g1167
sg8
F0.5
sS'N'
I200
sg9
F0.98999999999999999
sg10
I11
sg11
g12
sg13
I23
sg14
I5
sg15
g16
sg17
I23
sg18
F1
sg19
g4
(g6
S'\xcd\xcc\xcc\xcc\xcc\xcc\xec?'
tRp1186
sa(dp1187
g3
g1167
sg8
F0.5
sS'N'
I200
sg9
F0.98999999999999999
sg10
I11
sg11
g12
sg13
I23
sg14
I5
sg15
g16
sg17
I23
sg18
F1
sg19
g4
(g6
S'\x1f\x85\xebQ\xb8\x1e\xed?'
tRp1188
sa(dp1189
g3
g1167
sg8
F0.5
sS'N'
I200
sg9
F0.98999999999999999
sg10
I11
sg11
g12
sg13
I23
sg14
I5
sg15
g16
sg17
I23
sg18
F1
sg19
g4
(g6
S'q=\n\xd7\xa3p\xed?'
tRp1190
sa(dp1191
g3
g1167
sg8
F0.5
sS'N'
I200
sg9
F0.98999999999999999
sg10
I11
sg11
g12
sg13
I23
sg14
I5
sg15
g16
sg17
I23
sg18
F1
sg19
g4
(g6
S'\xc3\xf5(\\\x8f\xc2\xed?'
tRp1192
sa(dp1193
g3
g1167
sg8
F0.5
sS'N'
I200
sg9
F0.98999999999999999
sg10
I11
sg11
g12
sg13
I23
sg14
I5
sg15
g16
sg17
I23
sg18
F1
sg19
g4
(g6
S'\x15\xaeG\xe1z\x14\xee?'
tRp1194
sa(dp1195
g3
g1167
sg8
F0.5
sS'N'
I200
sg9
F0.98999999999999999
sg10
I11
sg11
g12
sg13
I23
sg14
I5
sg15
g16
sg17
I23
sg18
F1
sg19
g4
(g6
S'gfffff\xee?'
tRp1196
sa(dp1197
g3
g1167
sg8
F0.5
sS'N'
I200
sg9
F0.98999999999999999
sg10
I11
sg11
g12
sg13
I23
sg14
I5
sg15
g16
sg17
I23
sg18
F1
sg19
g4
(g6
S'\xb9\x1e\x85\xebQ\xb8\xee?'
tRp1198
sa(dp1199
g3
g1167
sg8
F0.5
sS'N'
I200
sg9
F0.98999999999999999
sg10
I11
sg11
g12
sg13
I23
sg14
I5
sg15
g16
sg17
I23
sg18
F1
sg19
g4
(g6
S'\x0b\xd7\xa3p=\n\xef?'
tRp1200
sa(dp1201
g3
g1167
sg8
F0.5
sS'N'
I200
sg9
F0.98999999999999999
sg10
I11
sg11
g12
sg13
I23
sg14
I5
sg15
g16
sg17
I23
sg18
F1
sg19
g4
(g6
S']\x8f\xc2\xf5(\\\xef?'
tRp1202
sa(dp1203
g3
g1167
sg8
F0.5
sS'N'
I200
sg9
F0.98999999999999999
sg10
I11
sg11
g12
sg13
I23
sg14
I5
sg15
g16
sg17
I23
sg18
F1
sg19
g4
(g6
S'\xafG\xe1z\x14\xae\xef?'
tRp1204
sa(dp1205
g3
g1167
sg8
F0.5
sS'N'
I200
sg9
F0.98999999999999999
sg10
I11
sg11
g12
sg13
I23
sg14
I5
sg15
g16
sg17
I23
sg18
F1
sg19
g4
(g6
S'\x00\x00\x00\x00\x00\x00\xf0?'
tRp1206
sa(dp1207
g3
g4
(g6
S'\xbf\x0b9\xa4\xa8\xb7\x83@'
tRp1208
sg8
F0.5
sS'N'
I200
sg9
F0.98999999999999999
sg10
I11
sg11
g12
sg13
I23
sg14
I5
sg15
g16
sg17
I23
sg18
F1
sg19
g4
(g6
S'\x00\x00\x00\x00\x00\x00\x00\x00'
tRp1209
sa(dp1210
g3
g1208
sg8
F0.5
sS'N'
I200
sg9
F0.98999999999999999
sg10
I11
sg11
g12
sg13
I23
sg14
I5
sg15
g16
sg17
I23
sg18
F1
sg19
g4
(g6
S'\x9a\x99\x99\x99\x99\x99\xb9?'
tRp1211
sa(dp1212
g3
g1208
sg8
F0.5
sS'N'
I200
sg9
F0.98999999999999999
sg10
I11
sg11
g12
sg13
I23
sg14
I5
sg15
g16
sg17
I23
sg18
F1
sg19
g4
(g6
S'\x9a\x99\x99\x99\x99\x99\xc9?'
tRp1213
sa(dp1214
g3
g1208
sg8
F0.5
sS'N'
I200
sg9
F0.98999999999999999
sg10
I11
sg11
g12
sg13
I23
sg14
I5
sg15
g16
sg17
I23
sg18
F1
sg19
g4
(g6
S'433333\xd3?'
tRp1215
sa(dp1216
g3
g1208
sg8
F0.5
sS'N'
I200
sg9
F0.98999999999999999
sg10
I11
sg11
g12
sg13
I23
sg14
I5
sg15
g16
sg17
I23
sg18
F1
sg19
g4
(g6
S'\x9a\x99\x99\x99\x99\x99\xd9?'
tRp1217
sa(dp1218
g3
g1208
sg8
F0.5
sS'N'
I200
sg9
F0.98999999999999999
sg10
I11
sg11
g12
sg13
I23
sg14
I5
sg15
g16
sg17
I23
sg18
F1
sg19
g4
(g6
S'\x00\x00\x00\x00\x00\x00\xe0?'
tRp1219
sa(dp1220
g3
g1208
sg8
F0.5
sS'N'
I200
sg9
F0.98999999999999999
sg10
I11
sg11
g12
sg13
I23
sg14
I5
sg15
g16
sg17
I23
sg18
F1
sg19
g4
(g6
S'433333\xe3?'
tRp1221
sa(dp1222
g3
g1208
sg8
F0.5
sS'N'
I200
sg9
F0.98999999999999999
sg10
I11
sg11
g12
sg13
I23
sg14
I5
sg15
g16
sg17
I23
sg18
F1
sg19
g4
(g6
S'gfffff\xe6?'
tRp1223
sa(dp1224
g3
g1208
sg8
F0.5
sS'N'
I200
sg9
F0.98999999999999999
sg10
I11
sg11
g12
sg13
I23
sg14
I5
sg15
g16
sg17
I23
sg18
F1
sg19
g4
(g6
S'\x9a\x99\x99\x99\x99\x99\xe9?'
tRp1225
sa(dp1226
g3
g1208
sg8
F0.5
sS'N'
I200
sg9
F0.98999999999999999
sg10
I11
sg11
g12
sg13
I23
sg14
I5
sg15
g16
sg17
I23
sg18
F1
sg19
g4
(g6
S'\xcd\xcc\xcc\xcc\xcc\xcc\xec?'
tRp1227
sa(dp1228
g3
g1208
sg8
F0.5
sS'N'
I200
sg9
F0.98999999999999999
sg10
I11
sg11
g12
sg13
I23
sg14
I5
sg15
g16
sg17
I23
sg18
F1
sg19
g4
(g6
S'\x1f\x85\xebQ\xb8\x1e\xed?'
tRp1229
sa(dp1230
g3
g1208
sg8
F0.5
sS'N'
I200
sg9
F0.98999999999999999
sg10
I11
sg11
g12
sg13
I23
sg14
I5
sg15
g16
sg17
I23
sg18
F1
sg19
g4
(g6
S'q=\n\xd7\xa3p\xed?'
tRp1231
sa(dp1232
g3
g1208
sg8
F0.5
sS'N'
I200
sg9
F0.98999999999999999
sg10
I11
sg11
g12
sg13
I23
sg14
I5
sg15
g16
sg17
I23
sg18
F1
sg19
g4
(g6
S'\xc3\xf5(\\\x8f\xc2\xed?'
tRp1233
sa(dp1234
g3
g1208
sg8
F0.5
sS'N'
I200
sg9
F0.98999999999999999
sg10
I11
sg11
g12
sg13
I23
sg14
I5
sg15
g16
sg17
I23
sg18
F1
sg19
g4
(g6
S'\x15\xaeG\xe1z\x14\xee?'
tRp1235
sa(dp1236
g3
g1208
sg8
F0.5
sS'N'
I200
sg9
F0.98999999999999999
sg10
I11
sg11
g12
sg13
I23
sg14
I5
sg15
g16
sg17
I23
sg18
F1
sg19
g4
(g6
S'gfffff\xee?'
tRp1237
sa(dp1238
g3
g1208
sg8
F0.5
sS'N'
I200
sg9
F0.98999999999999999
sg10
I11
sg11
g12
sg13
I23
sg14
I5
sg15
g16
sg17
I23
sg18
F1
sg19
g4
(g6
S'\xb9\x1e\x85\xebQ\xb8\xee?'
tRp1239
sa(dp1240
g3
g1208
sg8
F0.5
sS'N'
I200
sg9
F0.98999999999999999
sg10
I11
sg11
g12
sg13
I23
sg14
I5
sg15
g16
sg17
I23
sg18
F1
sg19
g4
(g6
S'\x0b\xd7\xa3p=\n\xef?'
tRp1241
sa(dp1242
g3
g1208
sg8
F0.5
sS'N'
I200
sg9
F0.98999999999999999
sg10
I11
sg11
g12
sg13
I23
sg14
I5
sg15
g16
sg17
I23
sg18
F1
sg19
g4
(g6
S']\x8f\xc2\xf5(\\\xef?'
tRp1243
sa(dp1244
g3
g1208
sg8
F0.5
sS'N'
I200
sg9
F0.98999999999999999
sg10
I11
sg11
g12
sg13
I23
sg14
I5
sg15
g16
sg17
I23
sg18
F1
sg19
g4
(g6
S'\xafG\xe1z\x14\xae\xef?'
tRp1245
sa(dp1246
g3
g1208
sg8
F0.5
sS'N'
I200
sg9
F0.98999999999999999
sg10
I11
sg11
g12
sg13
I23
sg14
I5
sg15
g16
sg17
I23
sg18
F1
sg19
g4
(g6
S'\x00\x00\x00\x00\x00\x00\xf0?'
tRp1247
sa(dp1248
g3
g4
(g6
S'l\x00\x00\x00\x00@\x8f@'
tRp1249
sg8
F0.5
sS'N'
I200
sg9
F0.98999999999999999
sg10
I11
sg11
g12
sg13
I23
sg14
I5
sg15
g16
sg17
I23
sg18
F1
sg19
g4
(g6
S'\x00\x00\x00\x00\x00\x00\x00\x00'
tRp1250
sa(dp1251
g3
g1249
sg8
F0.5
sS'N'
I200
sg9
F0.98999999999999999
sg10
I11
sg11
g12
sg13
I23
sg14
I5
sg15
g16
sg17
I23
sg18
F1
sg19
g4
(g6
S'\x9a\x99\x99\x99\x99\x99\xb9?'
tRp1252
sa(dp1253
g3
g1249
sg8
F0.5
sS'N'
I200
sg9
F0.98999999999999999
sg10
I11
sg11
g12
sg13
I23
sg14
I5
sg15
g16
sg17
I23
sg18
F1
sg19
g4
(g6
S'\x9a\x99\x99\x99\x99\x99\xc9?'
tRp1254
sa(dp1255
g3
g1249
sg8
F0.5
sS'N'
I200
sg9
F0.98999999999999999
sg10
I11
sg11
g12
sg13
I23
sg14
I5
sg15
g16
sg17
I23
sg18
F1
sg19
g4
(g6
S'433333\xd3?'
tRp1256
sa(dp1257
g3
g1249
sg8
F0.5
sS'N'
I200
sg9
F0.98999999999999999
sg10
I11
sg11
g12
sg13
I23
sg14
I5
sg15
g16
sg17
I23
sg18
F1
sg19
g4
(g6
S'\x9a\x99\x99\x99\x99\x99\xd9?'
tRp1258
sa(dp1259
g3
g1249
sg8
F0.5
sS'N'
I200
sg9
F0.98999999999999999
sg10
I11
sg11
g12
sg13
I23
sg14
I5
sg15
g16
sg17
I23
sg18
F1
sg19
g4
(g6
S'\x00\x00\x00\x00\x00\x00\xe0?'
tRp1260
sa(dp1261
g3
g1249
sg8
F0.5
sS'N'
I200
sg9
F0.98999999999999999
sg10
I11
sg11
g12
sg13
I23
sg14
I5
sg15
g16
sg17
I23
sg18
F1
sg19
g4
(g6
S'433333\xe3?'
tRp1262
sa(dp1263
g3
g1249
sg8
F0.5
sS'N'
I200
sg9
F0.98999999999999999
sg10
I11
sg11
g12
sg13
I23
sg14
I5
sg15
g16
sg17
I23
sg18
F1
sg19
g4
(g6
S'gfffff\xe6?'
tRp1264
sa(dp1265
g3
g1249
sg8
F0.5
sS'N'
I200
sg9
F0.98999999999999999
sg10
I11
sg11
g12
sg13
I23
sg14
I5
sg15
g16
sg17
I23
sg18
F1
sg19
g4
(g6
S'\x9a\x99\x99\x99\x99\x99\xe9?'
tRp1266
sa(dp1267
g3
g1249
sg8
F0.5
sS'N'
I200
sg9
F0.98999999999999999
sg10
I11
sg11
g12
sg13
I23
sg14
I5
sg15
g16
sg17
I23
sg18
F1
sg19
g4
(g6
S'\xcd\xcc\xcc\xcc\xcc\xcc\xec?'
tRp1268
sa(dp1269
g3
g1249
sg8
F0.5
sS'N'
I200
sg9
F0.98999999999999999
sg10
I11
sg11
g12
sg13
I23
sg14
I5
sg15
g16
sg17
I23
sg18
F1
sg19
g4
(g6
S'\x1f\x85\xebQ\xb8\x1e\xed?'
tRp1270
sa(dp1271
g3
g1249
sg8
F0.5
sS'N'
I200
sg9
F0.98999999999999999
sg10
I11
sg11
g12
sg13
I23
sg14
I5
sg15
g16
sg17
I23
sg18
F1
sg19
g4
(g6
S'q=\n\xd7\xa3p\xed?'
tRp1272
sa(dp1273
g3
g1249
sg8
F0.5
sS'N'
I200
sg9
F0.98999999999999999
sg10
I11
sg11
g12
sg13
I23
sg14
I5
sg15
g16
sg17
I23
sg18
F1
sg19
g4
(g6
S'\xc3\xf5(\\\x8f\xc2\xed?'
tRp1274
sa(dp1275
g3
g1249
sg8
F0.5
sS'N'
I200
sg9
F0.98999999999999999
sg10
I11
sg11
g12
sg13
I23
sg14
I5
sg15
g16
sg17
I23
sg18
F1
sg19
g4
(g6
S'\x15\xaeG\xe1z\x14\xee?'
tRp1276
sa(dp1277
g3
g1249
sg8
F0.5
sS'N'
I200
sg9
F0.98999999999999999
sg10
I11
sg11
g12
sg13
I23
sg14
I5
sg15
g16
sg17
I23
sg18
F1
sg19
g4
(g6
S'gfffff\xee?'
tRp1278
sa(dp1279
g3
g1249
sg8
F0.5
sS'N'
I200
sg9
F0.98999999999999999
sg10
I11
sg11
g12
sg13
I23
sg14
I5
sg15
g16
sg17
I23
sg18
F1
sg19
g4
(g6
S'\xb9\x1e\x85\xebQ\xb8\xee?'
tRp1280
sa(dp1281
g3
g1249
sg8
F0.5
sS'N'
I200
sg9
F0.98999999999999999
sg10
I11
sg11
g12
sg13
I23
sg14
I5
sg15
g16
sg17
I23
sg18
F1
sg19
g4
(g6
S'\x0b\xd7\xa3p=\n\xef?'
tRp1282
sa(dp1283
g3
g1249
sg8
F0.5
sS'N'
I200
sg9
F0.98999999999999999
sg10
I11
sg11
g12
sg13
I23
sg14
I5
sg15
g16
sg17
I23
sg18
F1
sg19
g4
(g6
S']\x8f\xc2\xf5(\\\xef?'
tRp1284
sa(dp1285
g3
g1249
sg8
F0.5
sS'N'
I200
sg9
F0.98999999999999999
sg10
I11
sg11
g12
sg13
I23
sg14
I5
sg15
g16
sg17
I23
sg18
F1
sg19
g4
(g6
S'\xafG\xe1z\x14\xae\xef?'
tRp1286
sa(dp1287
g3
g1249
sg8
F0.5
sS'N'
I200
sg9
F0.98999999999999999
sg10
I11
sg11
g12
sg13
I23
sg14
I5
sg15
g16
sg17
I23
sg18
F1
sg19
g4
(g6
S'\x00\x00\x00\x00\x00\x00\xf0?'
tRp1288
sa.